
arithmetic.exe:     file format elf64-littleriscv


Disassembly of section .text:

0000000000010000 <_start>:
   10000:	f7bf0013 	add	sp,sp,-64
   10004:	0024626f 	jal	1918c <_init>
   10008:	20000cb7 	lui	a0,0x19
   1000c:	2106a013 	add	a0,a0,424
   10010:	0000c56f 	jal	10324 <atexit>
   10014:	27810183 	ld	a0,64(sp)
   10018:	2f812013 	add	a1,sp,72
   1001c:	0024406f 	jal	1911c <main>
   10020:	20800013 	move	a0,v0
   10024:	0000c56f 	jal	10338 <exit>

0000000000010028 <__do_global_dtors_aux>:
   10028:	f7bf4013 	add	sp,sp,-48
   1002c:	07a841a3 	sd	s0,16(sp)
   10030:	a0000db7 	lui	s0,0x1b
   10034:	152c0203 	lbu	v0,-1280(s0)
   10038:	07aea1a3 	sd	s3,40(sp)
   1003c:	07ac81a3 	sd	s2,32(sp)
   10040:	07aa61a3 	sd	s1,24(sp)
   10044:	078221a3 	sd	ra,8(sp)
   10048:	0080d8e3 	bnez	v0,100b4 <$L1>
   1004c:	b8000d37 	lui	s3,0x1a
   10050:	b0000d37 	lui	s2,0x1a
   10054:	a8000db7 	lui	s1,0x1b
   10058:	bdeca013 	add	s3,s3,-1240
   1005c:	b5acc013 	add	s2,s2,-1232
   10060:	b5af0033 	sub	s2,s2,s3
   10064:	156c2183 	ld	v0,-1272(s1)
   10068:	b5810e93 	sra	s2,s2,0x3
   1006c:	b5bffc13 	add	s2,s2,-1
   10070:	00ac4be3 	bleu	s2,v0,10094 <$L3>

0000000000010074 <$L6>:
   10074:	10800413 	add	v0,v0,1
   10078:	18800c93 	sll	v1,v0,0x3
   1007c:	1dc60033 	add	v1,s3,v1
   10080:	18c00183 	ld	v1,0(v1)
   10084:	b54421a3 	sd	v0,-1272(s1)
   10088:	08c0006b 	jalr	v1
   1008c:	156c2183 	ld	v0,-1272(s1)
   10090:	f8adcb63 	bltu	v0,s2,10074 <$L6>

0000000000010094 <$L3>:
   10094:	10000037 	lui	v0,0x0
   10098:	10800013 	move	v0,v0
   1009c:	00802063 	beqz	v0,100ac <$L5>
   100a0:	20000d37 	lui	a0,0x1a
   100a4:	212ce013 	add	a0,a0,-1224
   100a8:	0000006f 	jal	100a8 <$L3+0x14>

00000000000100ac <$L5>:
   100ac:	10000413 	li	v0,1
   100b0:	b5040023 	sb	v0,-1280(s0)

00000000000100b4 <$L1>:
   100b4:	0f802183 	ld	ra,8(sp)
   100b8:	bf80a183 	ld	s3,40(sp)
   100bc:	b7808183 	ld	s2,32(sp)
   100c0:	af806183 	ld	s1,24(sp)
   100c4:	a7804183 	ld	s0,16(sp)
   100c8:	f780c013 	add	sp,sp,48
   100cc:	004000eb 	ret

00000000000100d0 <call___do_global_dtors_aux>:
   100d0:	f7bfc013 	add	sp,sp,-16
   100d4:	078221a3 	sd	ra,8(sp)
   100d8:	0f802183 	ld	ra,8(sp)
   100dc:	f7804013 	add	sp,sp,16
   100e0:	004000eb 	ret

00000000000100e4 <frame_dummy>:
   100e4:	10000037 	lui	v0,0x0
   100e8:	f7bfc013 	add	sp,sp,-16
   100ec:	10800013 	move	v0,v0
   100f0:	078221a3 	sd	ra,8(sp)
   100f4:	00803063 	beqz	v0,1010c <$L11>
   100f8:	20000d37 	lui	a0,0x1a
   100fc:	28000db7 	lui	a1,0x1b
   10100:	212ce013 	add	a0,a0,-1224
   10104:	296c4013 	add	a1,a1,-1264
   10108:	0000006f 	jal	10108 <$LELTP0+0x9>

000000000001010c <$L11>:
   1010c:	20000d37 	lui	a0,0x1a
   10110:	112d0183 	ld	v0,-1216(a0)
   10114:	00804063 	beqz	v0,10134 <$L10>
   10118:	98000037 	lui	t7,0x0
   1011c:	9cc00013 	move	t7,t7
   10120:	04c02863 	beqz	t7,10134 <$L10>
   10124:	0f802183 	ld	ra,8(sp)
   10128:	212d0013 	add	a0,a0,-1216
   1012c:	f7804013 	add	sp,sp,16
   10130:	04c0016b 	jr	t7

0000000000010134 <$L10>:
   10134:	0f802183 	ld	ra,8(sp)
   10138:	f7804013 	add	sp,sp,16
   1013c:	004000eb 	ret

0000000000010140 <call_frame_dummy>:
   10140:	f7bfc013 	add	sp,sp,-16
   10144:	078221a3 	sd	ra,8(sp)
   10148:	0f802183 	ld	ra,8(sp)
   1014c:	f7804013 	add	sp,sp,16
   10150:	004000eb 	ret

0000000000010154 <arith1>:
   10154:	1908043b 	mulw	v1,a0,a0
   10158:	11bffc1b 	addw	v0,a2,-1
   1015c:	20c8043b 	mulw	a0,v1,a0
   10160:	394a043b 	mulw	a3,a1,a1
   10164:	4100149b 	sllw	a4,a0,0x5
   10168:	19000c9b 	sllw	v1,a0,0x3
   1016c:	1a07003b 	subw	v1,a4,v1
   10170:	20c9003b 	subw	a0,v1,a0
   10174:	210a063b 	divw	a0,a0,a1
   10178:	210f003b 	subw	a0,a0,a3
   1017c:	310c00bb 	sllw	a2,a0,a2
   10180:	318a003b 	addw	a2,a2,a1
   10184:	118502bb 	sraw	v0,a2,v0
   10188:	108a073b 	remw	v0,v0,a1
   1018c:	004000eb 	ret

0000000000010190 <arith2>:
   10190:	2108043b 	mulw	a0,a0,a0
   10194:	110b003b 	subw	v0,a0,a1
   10198:	2148003b 	addw	a0,a1,a0
   1019c:	108c07bb 	remuw	v0,v0,a2
   101a0:	310c06bb 	divuw	a2,a0,a2
   101a4:	108c003b 	addw	v0,v0,a2
   101a8:	004000eb 	ret

00000000000101ac <logic1>:
   101ac:	194803b3 	and	v1,a1,a0
   101b0:	10000013 	li	v0,0
   101b4:	01001863 	beqz	a0,101c0 <$L4>
   101b8:	01401063 	beqz	a1,101c0 <$L4>
   101bc:	100c01b3 	sltu	v0,zero,a2

00000000000101c0 <$L4>:
   101c0:	10c4003b 	addw	v0,v1,v0
   101c4:	004000eb 	ret

00000000000101c8 <logic2>:
   101c8:	318a0333 	or	a2,a2,a1
   101cc:	290a02bb 	srlw	a1,a0,a1
   101d0:	218803b3 	and	a0,a2,a0
   101d4:	110a0233 	xor	v0,a0,a1
   101d8:	108a003b 	addw	v0,v0,a1
   101dc:	004000eb 	ret

00000000000101e0 <comp1>:
   101e0:	1900189b 	sllw	v1,a0,0x6
   101e4:	11002c9b 	sllw	v0,a0,0xb
   101e8:	10c4003b 	addw	v0,v1,v0
   101ec:	1880209b 	sllw	v1,v0,0x8
   101f0:	1086003b 	addw	v0,v0,v1
   101f4:	1089003b 	subw	v0,v0,a0
   101f8:	19400c9b 	sllw	v1,a1,0x3
   101fc:	1080089b 	sllw	v0,v0,0x2
   10200:	29401c9b 	sllw	a1,a1,0x7
   10204:	28cb003b 	subw	a1,v1,a1
   10208:	2089003b 	subw	a0,v0,a0
   1020c:	19802c9b 	sllw	v1,a2,0xb
   10210:	210a003b 	addw	a0,a0,a1
   10214:	18cd003b 	subw	v1,v1,a2
   10218:	103adab7 	lui	v0,0x75b5
   1021c:	2106003b 	addw	a0,a0,v1
   10220:	10a80c1b 	addw	v0,v0,-1533
   10224:	1104003b 	addw	v0,a0,v0
   10228:	004000eb 	ret

000000000001022c <comp2>:
   1022c:	21001513 	slt	a0,a0,5
   10230:	11800013 	move	v0,a2
   10234:	01001063 	beqz	a0,1023c <$L13>
   10238:	004000eb 	ret

000000000001023c <$L13>:
   1023c:	11400013 	move	v0,a1
   10240:	004000eb 	ret

0000000000010244 <compare1>:
   10244:	194801b3 	sltu	v1,a1,a0
   10248:	210a01b3 	sltu	a0,a0,a1
   1024c:	11000613 	xor	v0,a0,1
   10250:	28c0041b 	addw	a1,v1,1
   10254:	1144003b 	addw	v0,a1,v0
   10258:	2088003b 	addw	a0,v0,a0
   1025c:	18c00613 	xor	v1,v1,1
   10260:	1106003b 	addw	v0,a0,v1
   10264:	004000eb 	ret

0000000000010268 <compare2>:
   10268:	19480133 	slt	v1,a1,a0
   1026c:	210a0133 	slt	a0,a0,a1
   10270:	11000613 	xor	v0,a0,1
   10274:	28c0041b 	addw	a1,v1,1
   10278:	1144003b 	addw	v0,a1,v0
   1027c:	2088003b 	addw	a0,v0,a0
   10280:	18c00613 	xor	v1,v1,1
   10284:	1106003b 	addw	v0,a0,v1
   10288:	004000eb 	ret

000000000001028c <compare3>:
   1028c:	19032513 	slt	v1,a0,201
   10290:	11136113 	slt	v0,a0,1240
   10294:	18c00613 	xor	v1,v1,1
   10298:	18c0041b 	addw	v1,v1,1
   1029c:	10800613 	xor	v0,v0,1
   102a0:	10c4003b 	addw	v0,v1,v0
   102a4:	192cb913 	slt	v1,a0,-1234
   102a8:	1086003b 	addw	v0,v0,v1
   102ac:	180000b7 	lui	v1,0x1
   102b0:	18c2741b 	addw	v1,v1,157
   102b4:	21060133 	slt	a0,a0,v1
   102b8:	1088003b 	addw	v0,v0,a0
   102bc:	004000eb 	ret

00000000000102c0 <__do_global_ctors_aux>:
   102c0:	f7bf8013 	add	sp,sp,-32
   102c4:	07a841a3 	sd	s0,16(sp)
   102c8:	a0000d37 	lui	s0,0x1a
   102cc:	a52c8013 	add	s0,s0,-1248
   102d0:	153fe183 	ld	v0,-8(s0)
   102d4:	183ffc13 	li	v1,-1
   102d8:	07aa61a3 	sd	s1,24(sp)
   102dc:	078221a3 	sd	ra,8(sp)
   102e0:	00863863 	beq	v0,v1,102fc <$L1>
   102e4:	a53fe013 	add	s0,s0,-8
   102e8:	a83ffc13 	li	s1,-1

00000000000102ec <$L3>:
   102ec:	a53fe013 	add	s0,s0,-8
   102f0:	0880006b 	jalr	v0
   102f4:	15000183 	ld	v0,0(s0)
   102f8:	f8abe8e3 	bne	v0,s1,102ec <$L3>

00000000000102fc <$L1>:
   102fc:	0f802183 	ld	ra,8(sp)
   10300:	af806183 	ld	s1,24(sp)
   10304:	a7804183 	ld	s0,16(sp)
   10308:	f7808013 	add	sp,sp,32
   1030c:	004000eb 	ret

0000000000010310 <call___do_global_ctors_aux>:
   10310:	f7bfc013 	add	sp,sp,-16
   10314:	078221a3 	sd	ra,8(sp)
   10318:	0f802183 	ld	ra,8(sp)
   1031c:	f7804013 	add	sp,sp,16
   10320:	004000eb 	ret

0000000000010324 <atexit>:
   10324:	29000013 	move	a1,a0
   10328:	30000013 	li	a2,0
   1032c:	20000013 	li	a0,0

0000000000010330 <$LVL1>:
   10330:	38000013 	li	a3,0
   10334:	00079467 	j	12184 <__register_exitproc>

0000000000010338 <exit>:
   10338:	f7bfc013 	add	sp,sp,-16

000000000001033c <$LCFI0>:
   1033c:	28000013 	li	a1,0

0000000000010340 <$LM3>:
   10340:	07a821a3 	sd	s0,8(sp)
   10344:	078201a3 	sd	ra,0(sp)

0000000000010348 <$LM4>:
   10348:	a1000013 	move	s0,a0

000000000001034c <$LM5>:
   1034c:	0007db6f 	jal	122b8 <__call_exitprocs>

0000000000010350 <$LM6>:
   10350:	10000cb7 	lui	v0,0x19
   10354:	20898183 	ld	a0,608(v0)
   10358:	11016183 	ld	v0,88(a0)
   1035c:	00801063 	beqz	v0,10364 <$L2>

0000000000010360 <$LM7>:
   10360:	0880006b 	jalr	v0

0000000000010364 <$L2>:
   10364:	25000013 	move	a0,s0
   10368:	00235e6f 	jal	190e0 <_exit>

000000000001036c <_printf_r>:
   1036c:	f7bec013 	add	sp,sp,-80

0000000000010370 <$LCFI0>:
   10370:	078c81a3 	sd	a2,32(sp)
   10374:	078ea1a3 	sd	a3,40(sp)
   10378:	0790c1a3 	sd	a4,48(sp)
   1037c:	0792e1a3 	sd	a5,56(sp)
   10380:	079501a3 	sd	a6,64(sp)
   10384:	079721a3 	sd	a7,72(sp)
   10388:	31400013 	move	a2,a1

000000000001038c <$LM2>:
   1038c:	29004183 	ld	a1,16(a0)

0000000000010390 <$LM3>:
   10390:	17808013 	add	v0,sp,32

0000000000010394 <$LM4>:
   10394:	38800013 	move	a3,v0

0000000000010398 <$LM5>:
   10398:	078261a3 	sd	ra,24(sp)

000000000001039c <$LM6>:
   1039c:	078401a3 	sd	v0,0(sp)

00000000000103a0 <$LM7>:
   103a0:	0000196f 	jal	10404 <_vfprintf_r>

00000000000103a4 <$LM8>:
   103a4:	0f806183 	ld	ra,24(sp)
   103a8:	f7814013 	add	sp,sp,80
   103ac:	004000eb 	ret

00000000000103b0 <printf>:
   103b0:	10000d37 	lui	v0,0x1a
   103b4:	10ad4183 	ld	v0,-1200(v0)

00000000000103b8 <$LM11>:
   103b8:	f7be8013 	add	sp,sp,-96

00000000000103bc <$LCFI1>:
   103bc:	078cc1a3 	sd	a2,48(sp)
   103c0:	078ee1a3 	sd	a3,56(sp)
   103c4:	078aa1a3 	sd	a1,40(sp)
   103c8:	079101a3 	sd	a4,64(sp)
   103cc:	079321a3 	sd	a5,72(sp)
   103d0:	079541a3 	sd	a6,80(sp)
   103d4:	079761a3 	sd	a7,88(sp)

00000000000103d8 <$LM12>:
   103d8:	28804183 	ld	a1,16(v0)

00000000000103dc <$LM13>:
   103dc:	31000013 	move	a2,a0

00000000000103e0 <$LM14>:
   103e0:	20800013 	move	a0,v0

00000000000103e4 <$LM15>:
   103e4:	1780a013 	add	v0,sp,40

00000000000103e8 <$LM16>:
   103e8:	38800013 	move	a3,v0

00000000000103ec <$LM17>:
   103ec:	078261a3 	sd	ra,24(sp)

00000000000103f0 <$LM18>:
   103f0:	078401a3 	sd	v0,0(sp)

00000000000103f4 <$LM19>:
   103f4:	0000046f 	jal	10404 <_vfprintf_r>

00000000000103f8 <$LM20>:
   103f8:	0f806183 	ld	ra,24(sp)
   103fc:	f7818013 	add	sp,sp,96
   10400:	004000eb 	ret

0000000000010404 <_vfprintf_r>:
   10404:	f7a64013 	add	sp,sp,-1648

0000000000010408 <$LCFI0>:
   10408:	67b0e1a3 	sd	s4,1592(sp)
   1040c:	67aca1a3 	sd	s2,1576(sp)
   10410:	67aa81a3 	sd	s1,1568(sp)
   10414:	678241a3 	sd	ra,1552(sp)
   10418:	c1000013 	move	s4,a0
   1041c:	b1400013 	move	s2,a1
   10420:	a9800013 	move	s1,a2
   10424:	5f8e61a3 	sd	a3,1432(sp)
   10428:	67bb61a3 	sd	s9,1624(sp)
   1042c:	67b741a3 	sd	s7,1616(sp)
   10430:	67b521a3 	sd	s6,1608(sp)
   10434:	67b301a3 	sd	s5,1600(sp)
   10438:	67aec1a3 	sd	s3,1584(sp)
   1043c:	67a861a3 	sd	s0,1560(sp)
   10440:	67aba1a7 	fsd	fs1,1640(sp)
   10444:	67a981a7 	fsd	fs0,1632(sp)

0000000000010448 <$LM2>:
   10448:	000fe06f 	jal	143c8 <_localeconv_r>

000000000001044c <$LVL1>:
   1044c:	10800183 	ld	v0,0(v0)

0000000000010450 <$LM3>:
   10450:	20800013 	move	a0,v0

0000000000010454 <$LM4>:
   10454:	5f8541a3 	sd	v0,1488(sp)

0000000000010458 <$LM5>:
   10458:	0017ce6f 	jal	16390 <strlen>

000000000001045c <$LVL3>:
   1045c:	5f8581a3 	sd	v0,1504(sp)

0000000000010460 <$LM6>:
   10460:	06001863 	beqz	s4,1046c <$L2>

0000000000010464 <$LM7>:
   10464:	16014103 	lw	v0,80(s4)

0000000000010468 <$LVL5>:
   10468:	38816863 	beqz	v0,10c1c <$L372>

000000000001046c <$L2>:
   1046c:	5d804083 	lh	a7,16(s2)
   10470:	18000137 	lui	v1,0x2
   10474:	12c0409b 	sllw	v0,a7,0x10
   10478:	1080429b 	srlw	v0,v0,0x10
   1047c:	188603b3 	and	v1,v0,v1
   10480:	00c068e3 	bnez	v1,104b4 <$L3>

0000000000010484 <$LM9>:
   10484:	25829103 	lw	a0,164(s2)
   10488:	18000137 	lui	v1,0x2
   1048c:	17ffff37 	lui	v0,0xffffe
   10490:	1ac60333 	or	v1,a7,v1
   10494:	10bffc1b 	addw	v0,v0,-1
   10498:	210403b3 	and	a0,a0,v0
   1049c:	58c0c093 	sll	a7,v1,0x30
   104a0:	10c0409b 	sllw	v0,v1,0x10
   104a4:	1080429b 	srlw	v0,v0,0x10
   104a8:	5ac1c293 	sra	a7,a7,0x30
   104ac:	058640a3 	sh	v1,16(s2)
   104b0:	0d889123 	sw	a0,164(s2)

00000000000104b4 <$L3>:
   104b4:	18802393 	and	v1,v0,8
   104b8:	30c04863 	beqz	v1,10adc <$L4>

00000000000104bc <$LM11>:
   104bc:	1d806183 	ld	v1,24(s2)
   104c0:	30c03863 	beqz	v1,10adc <$L4>

00000000000104c4 <$LM12>:
   104c4:	10806b93 	and	v0,v0,26
   104c8:	18002813 	li	v1,10
   104cc:	30867863 	beq	v0,v1,10b08 <$L373>

00000000000104d0 <$L7>:
   104d0:	bf818013 	add	s3,sp,96

00000000000104d4 <$LM14>:
   104d4:	e8000013 	li	s9,0

00000000000104d8 <$LM15>:
   104d8:	a001e0d3 	mxtf.d	fs0,zero

00000000000104dc <$LM16>:
   104dc:	07aea1a3 	sd	s3,40(sp)

00000000000104e0 <$LM17>:
   104e0:	0780d123 	sw	zero,52(sp)

00000000000104e4 <$LM18>:
   104e4:	0780c123 	sw	zero,48(sp)

00000000000104e8 <$LM19>:
   104e8:	5f8161a3 	sd	zero,1496(sp)

00000000000104ec <$LM20>:
   104ec:	5f81a1a3 	sd	zero,1512(sp)

00000000000104f0 <$LM21>:
   104f0:	5f81c1a3 	sd	zero,1520(sp)

00000000000104f4 <$LM22>:
   104f4:	a5c00013 	move	s0,s3

00000000000104f8 <$LM23>:
   104f8:	5fba81a3 	sd	s9,1440(sp)

00000000000104fc <$L301>:
   104fc:	15400003 	lb	v0,0(s1)
   10500:	28809863 	beqz	v0,10a4c <$L247>

0000000000010504 <$L386>:
   10504:	18009413 	li	v1,37
   10508:	cd400013 	move	s5,s1
   1050c:	008618e3 	bne	v0,v1,10518 <$L13>
   10510:	00001667 	j	10568 <$L10>

0000000000010514 <$L11>:
   10514:	00862063 	beq	v0,v1,10524 <$L351>

0000000000010518 <$L13>:
   10518:	ce400413 	add	s5,s5,1

000000000001051c <$LM27>:
   1051c:	16400003 	lb	v0,0(s5)
   10520:	f881e8e3 	bnez	v0,10514 <$L11>

0000000000010524 <$L351>:
   10524:	d66b0033 	sub	s6,s5,s1
   10528:	d680009b 	sllw	s6,s6,0x0

000000000001052c <$LM28>:
   1052c:	06807863 	beqz	s6,10568 <$L10>

0000000000010530 <$LM29>:
   10530:	1780c103 	lw	v0,48(sp)
   10534:	2780d103 	lw	a0,52(sp)
   10538:	052a01a3 	sd	s1,0(s0)
   1053c:	1080041b 	addw	v0,v0,1
   10540:	2134003b 	addw	a0,a0,s6
   10544:	18802113 	slt	v1,v0,8
   10548:	053421a3 	sd	s6,8(s0)
   1054c:	0788d123 	sw	a0,52(sp)

0000000000010550 <$LVL12>:
   10550:	0784c123 	sw	v0,48(sp)
   10554:	a5004013 	add	s0,s0,16

0000000000010558 <$LVL13>:
   10558:	30c0f863 	beqz	v1,10bd4 <$L374>

000000000001055c <$L15>:
   1055c:	1f968183 	ld	v1,1440(sp)
   10560:	18f4003b 	addw	v1,v1,s6
   10564:	5f8681a3 	sd	v1,1440(sp)

0000000000010568 <$L10>:
   10568:	16400003 	lb	v0,0(s5)
   1056c:	48814863 	beqz	v0,10f10 <$L17>

0000000000010570 <$LM32>:
   10570:	10000cb7 	lui	v0,0x19

0000000000010574 <$LM33>:
   10574:	ae400413 	add	s1,s5,1

0000000000010578 <$LM34>:
   10578:	07800023 	sb	zero,0(sp)
   1057c:	28000013 	li	a1,0

0000000000010580 <$LM35>:
   10580:	d83ffc13 	li	s7,-1

0000000000010584 <$LM36>:
   10584:	e8000013 	li	s9,0

0000000000010588 <$LM37>:
   10588:	c8000013 	li	s5,0

000000000001058c <$LM38>:
   1058c:	2089a013 	add	a0,v0,616

0000000000010590 <$LM39>:
   10590:	3000a813 	li	a2,42

0000000000010594 <$L299>:
   10594:	d5400003 	lb	s6,0(s1)

0000000000010598 <$LVL20>:
   10598:	ad400413 	add	s1,s1,1

000000000001059c <$L300>:
   1059c:	16bf801b 	addw	v0,s6,-32
   105a0:	18816593 	sltu	v1,v0,89
   105a4:	00c068e3 	bnez	v1,105d8 <$L375>

00000000000105a8 <$L21>:
   105a8:	078a0023 	sb	a1,0(sp)

00000000000105ac <$LM43>:
   105ac:	4e80c863 	beqz	s6,10f10 <$L17>

00000000000105b0 <$LM44>:
   105b0:	07b4e023 	sb	s6,56(sp)

00000000000105b4 <$LM45>:
   105b4:	07800023 	sb	zero,0(sp)

00000000000105b8 <$L363>:
   105b8:	38000413 	li	a3,1
   105bc:	5f8e41a3 	sd	a3,1424(sp)

00000000000105c0 <$LM47>:
   105c0:	18000413 	li	v1,1

00000000000105c4 <$LM48>:
   105c4:	3f80e013 	add	a3,sp,56

00000000000105c8 <$LM49>:
   105c8:	5f86a1a3 	sd	v1,1448(sp)

00000000000105cc <$LM50>:
   105cc:	5f8f01a3 	sd	a3,1472(sp)

00000000000105d0 <$LM51>:
   105d0:	5f8121a3 	sd	zero,1480(sp)
   105d4:	00003067 	j	10694 <$L150>

00000000000105d8 <$L375>:
   105d8:	10808093 	sll	v0,v0,0x20
   105dc:	10808293 	srl	v0,v0,0x20
   105e0:	10800c93 	sll	v0,v0,0x3
   105e4:	11040033 	add	v0,a0,v0
   105e8:	10800183 	ld	v0,0(v0)
   105ec:	0080016b 	jr	v0

00000000000105f0 <$L42>:
   105f0:	ce404313 	or	s5,s5,16

00000000000105f4 <$LM54>:
   105f4:	ffffe867 	j	10594 <$L299>

00000000000105f8 <$L29>:
   105f8:	ce404313 	or	s5,s5,16

00000000000105fc <$L352>:
   105fc:	16404393 	and	v0,s5,16

0000000000010600 <$LM57>:
   10600:	078a0023 	sb	a1,0(sp)

0000000000010604 <$LM58>:
   10604:	308048e3 	bnez	v0,10c28 <$L376>

0000000000010608 <$LM59>:
   10608:	16410393 	and	v0,s5,64
   1060c:	1f966183 	ld	v1,1432(sp)
   10610:	008010e3 	bnez	v0,10618 <$L416>
   10614:	00048b67 	j	11840 <$L59>

0000000000010618 <$L416>:
   10618:	10c00083 	lh	v0,0(v1)
   1061c:	18c02013 	add	v1,v1,8
   10620:	5f8661a3 	sd	v1,1432(sp)

0000000000010624 <$L58>:
   10624:	008012e3 	bgez	v0,1062c <$L417>
   10628:	00041167 	j	1166c <$L60>

000000000001062c <$L417>:
   1062c:	2f800003 	lb	a1,0(sp)

0000000000010630 <$LM63>:
   10630:	18000413 	li	v1,1

0000000000010634 <$L61>:
   10634:	06c01263 	bltz	s7,1063c <$L138>

0000000000010638 <$LM65>:
   10638:	ce7dff93 	and	s5,s5,-129

000000000001063c <$L138>:
   1063c:	4081e8e3 	bnez	v0,10f30 <$L139>

0000000000010640 <$LM67>:
   10640:	46c1e0e3 	bnez	s7,10f30 <$L139>

0000000000010644 <$LM68>:
   10644:	68c1a0e3 	bnez	v1,11414 <$L272>

0000000000010648 <$LM69>:
   10648:	16400793 	and	v0,s5,1

000000000001064c <$LVL33>:
   1064c:	68819063 	beqz	v0,11414 <$L272>

0000000000010650 <$LM70>:
   10650:	17817c13 	add	v0,sp,95
   10654:	1dc50033 	sub	v1,s3,v0

0000000000010658 <$LVL35>:
   10658:	18c0009b 	sllw	v1,v1,0x0
   1065c:	2000c013 	li	a0,48
   10660:	07897c23 	sb	a0,95(sp)
   10664:	5f86a1a3 	sd	v1,1448(sp)
   10668:	5f8501a3 	sd	v0,1472(sp)

000000000001066c <$L147>:
   1066c:	1f96a183 	ld	v1,1448(sp)
   10670:	10c00013 	move	v0,v1
   10674:	00f612e3 	ble	s7,v1,1067c <$L149>
   10678:	16c00013 	move	v0,s7

000000000001067c <$L149>:
   1067c:	5f8441a3 	sd	v0,1424(sp)

0000000000010680 <$LBB12>:
   10680:	5fb721a3 	sd	s7,1480(sp)

0000000000010684 <$L68>:
   10684:	01402063 	beqz	a1,10694 <$L150>

0000000000010688 <$L116>:
   10688:	1f964183 	ld	v1,1424(sp)
   1068c:	18c0041b 	addw	v1,v1,1
   10690:	5f8641a3 	sd	v1,1424(sp)

0000000000010694 <$L150>:
   10694:	16400b93 	and	v0,s5,2
   10698:	5f84c1a3 	sd	v0,1456(sp)
   1069c:	00802063 	beqz	v0,106ac <$L151>

00000000000106a0 <$LM75>:
   106a0:	3f964183 	ld	a3,1424(sp)
   106a4:	39c0081b 	addw	a3,a3,2
   106a8:	5f8e41a3 	sd	a3,1424(sp)

00000000000106ac <$L151>:
   106ac:	1e421393 	and	v1,s5,132
   106b0:	5f86e123 	sw	v1,1464(sp)
   106b4:	00c1c8e3 	bnez	v1,10798 <$L152>

00000000000106b8 <$LM77>:
   106b8:	3f964183 	ld	a3,1424(sp)
   106bc:	174f003b 	subw	v0,s9,a3

00000000000106c0 <$LVL41>:
   106c0:	d8800013 	move	s7,v0
   106c4:	0005aae3 	blez	v0,10798 <$L152>
   106c8:	18000cb7 	lui	v1,0x19

00000000000106cc <$LM78>:
   106cc:	10804513 	slt	v0,v0,17

00000000000106d0 <$LVL42>:
   106d0:	18d4c013 	add	v1,v1,1328
   106d4:	008100e3 	bnez	v0,10754 <$L153>

00000000000106d8 <$LM79>:
   106d8:	15000013 	move	v0,s0
   106dc:	38004013 	li	a3,16
   106e0:	a0c00013 	move	s0,v1

00000000000106e4 <$LVL43>:
   106e4:	00000467 	j	106f4 <$L156>

00000000000106e8 <$L155>:
   106e8:	deffc01b 	addw	s7,s7,-16
   106ec:	1ec04513 	slt	v1,s7,17

00000000000106f0 <$LVL45>:
   106f0:	00c0b8e3 	bnez	v1,1074c <$L377>

00000000000106f4 <$L156>:
   106f4:	1f80c103 	lw	v1,48(sp)
   106f8:	2f80d103 	lw	a1,52(sp)
   106fc:	00a801a3 	sd	s0,0(v0)
   10700:	18c0041b 	addw	v1,v1,1
   10704:	2940401b 	addw	a1,a1,16
   10708:	20c02113 	slt	a0,v1,8
   1070c:	008e21a3 	sd	a3,8(v0)
   10710:	078ad123 	sw	a1,52(sp)

0000000000010714 <$LVL47>:
   10714:	0786c123 	sw	v1,48(sp)
   10718:	10804013 	add	v0,v0,16

000000000001071c <$LVL48>:
   1071c:	f90198e3 	bnez	a0,106e8 <$L155>

0000000000010720 <$LM82>:
   10720:	26000013 	move	a0,s4
   10724:	2d800013 	move	a1,s2
   10728:	3780a013 	add	a2,sp,40
   1072c:	5f8fe1a3 	sd	a3,1528(sp)
   10730:	00173a6f 	jal	16418 <__sprint_r>

0000000000010734 <$LVL49>:
   10734:	3f97e183 	ld	a3,1528(sp)
   10738:	208198e3 	bnez	v0,10c04 <$L350>

000000000001073c <$LM83>:
   1073c:	deffc01b 	addw	s7,s7,-16
   10740:	1ec04513 	slt	v1,s7,17
   10744:	15c00013 	move	v0,s3

0000000000010748 <$LVL50>:
   10748:	f8c15863 	beqz	v1,106f4 <$L156>

000000000001074c <$L377>:
   1074c:	1d000013 	move	v1,s0
   10750:	a0800013 	move	s0,v0

0000000000010754 <$L153>:
   10754:	1780c103 	lw	v0,48(sp)
   10758:	2780d103 	lw	a0,52(sp)
   1075c:	050601a3 	sd	v1,0(s0)
   10760:	1080041b 	addw	v0,v0,1
   10764:	2136003b 	addw	a0,a0,s7
   10768:	18802113 	slt	v1,v0,8
   1076c:	053621a3 	sd	s7,8(s0)
   10770:	0788d123 	sw	a0,52(sp)

0000000000010774 <$LVL53>:
   10774:	0784c123 	sw	v0,48(sp)
   10778:	a5004013 	add	s0,s0,16

000000000001077c <$LVL54>:
   1077c:	00c038e3 	bnez	v1,10798 <$L152>

0000000000010780 <$LM85>:
   10780:	26000013 	move	a0,s4
   10784:	2d800013 	move	a1,s2
   10788:	3780a013 	add	a2,sp,40
   1078c:	0017236f 	jal	16418 <__sprint_r>
   10790:	2080e8e3 	bnez	v0,10c04 <$L350>

0000000000010794 <$LM86>:
   10794:	a5c00013 	move	s0,s3

0000000000010798 <$L152>:
   10798:	17800003 	lb	v0,0(sp)

000000000001079c <$LVL56>:
   1079c:	00806863 	beqz	v0,107d0 <$L158>

00000000000107a0 <$LM88>:
   107a0:	1780c103 	lw	v0,48(sp)

00000000000107a4 <$LVL58>:
   107a4:	2780d103 	lw	a0,52(sp)
   107a8:	28000413 	li	a1,1
   107ac:	1080041b 	addw	v0,v0,1
   107b0:	2100041b 	addw	a0,a0,1
   107b4:	18802113 	slt	v1,v0,8
   107b8:	053c01a3 	sd	sp,0(s0)
   107bc:	050a21a3 	sd	a1,8(s0)
   107c0:	0788d123 	sw	a0,52(sp)

00000000000107c4 <$LVL59>:
   107c4:	0784c123 	sw	v0,48(sp)
   107c8:	a5004013 	add	s0,s0,16

00000000000107cc <$LVL60>:
   107cc:	58c1a863 	beqz	v1,113a0 <$L378>

00000000000107d0 <$L158>:
   107d0:	1f96c183 	ld	v1,1456(sp)
   107d4:	00c07063 	beqz	v1,1080c <$L160>

00000000000107d8 <$LM90>:
   107d8:	1780c103 	lw	v0,48(sp)

00000000000107dc <$LVL62>:
   107dc:	2780d103 	lw	a0,52(sp)
   107e0:	2f802013 	add	a1,sp,8
   107e4:	1080041b 	addw	v0,v0,1
   107e8:	050a01a3 	sd	a1,0(s0)
   107ec:	2100081b 	addw	a0,a0,2
   107f0:	28000813 	li	a1,2
   107f4:	18802113 	slt	v1,v0,8
   107f8:	050a21a3 	sd	a1,8(s0)
   107fc:	0788d123 	sw	a0,52(sp)

0000000000010800 <$LVL63>:
   10800:	0784c123 	sw	v0,48(sp)
   10804:	a5004013 	add	s0,s0,16

0000000000010808 <$LVL64>:
   10808:	58c16863 	beqz	v1,113bc <$L379>

000000000001080c <$L160>:
   1080c:	3f96e103 	lw	a3,1464(sp)
   10810:	10020013 	li	v0,128

0000000000010814 <$LVL66>:
   10814:	41c50863 	beq	a3,v0,11098 <$L380>

0000000000010818 <$L162>:
   10818:	1f96a183 	ld	v1,1448(sp)
   1081c:	3f972183 	ld	a3,1480(sp)
   10820:	d9c7003b 	subw	s7,a3,v1

0000000000010824 <$LVL68>:
   10824:	1ec00013 	move	v1,s7
   10828:	0037b2e3 	blez	s7,10900 <$L168>

000000000001082c <$LM93>:
   1082c:	dec04513 	slt	s7,s7,17

0000000000010830 <$LVL69>:
   10830:	06c01063 	beqz	s7,10838 <$L418>
   10834:	00040d67 	j	11868 <$L381>

0000000000010838 <$L418>:
   10838:	d8000cb7 	lui	s7,0x19

000000000001083c <$LM94>:
   1083c:	15000013 	move	v0,s0
   10840:	ded50013 	add	s7,s7,1344
   10844:	38004013 	li	a3,16
   10848:	a0c00013 	move	s0,v1

000000000001084c <$LVL70>:
   1084c:	00000467 	j	1085c <$L172>

0000000000010850 <$L171>:
   10850:	a53fc01b 	addw	s0,s0,-16
   10854:	1d004513 	slt	v1,s0,17

0000000000010858 <$LVL72>:
   10858:	00c0b8e3 	bnez	v1,108b4 <$L382>

000000000001085c <$L172>:
   1085c:	1f80c103 	lw	v1,48(sp)
   10860:	2f80d103 	lw	a1,52(sp)
   10864:	00b601a3 	sd	s7,0(v0)
   10868:	18c0041b 	addw	v1,v1,1
   1086c:	2940401b 	addw	a1,a1,16
   10870:	20c02113 	slt	a0,v1,8
   10874:	008e21a3 	sd	a3,8(v0)
   10878:	078ad123 	sw	a1,52(sp)

000000000001087c <$LVL74>:
   1087c:	0786c123 	sw	v1,48(sp)
   10880:	10804013 	add	v0,v0,16

0000000000010884 <$LVL75>:
   10884:	f90198e3 	bnez	a0,10850 <$L171>

0000000000010888 <$LM97>:
   10888:	26000013 	move	a0,s4
   1088c:	2d800013 	move	a1,s2
   10890:	3780a013 	add	a2,sp,40
   10894:	5f8fe1a3 	sd	a3,1528(sp)
   10898:	0016e06f 	jal	16418 <__sprint_r>

000000000001089c <$LVL76>:
   1089c:	3f97e183 	ld	a3,1528(sp)
   108a0:	1880c8e3 	bnez	v0,10c04 <$L350>

00000000000108a4 <$LM98>:
   108a4:	a53fc01b 	addw	s0,s0,-16
   108a8:	1d004513 	slt	v1,s0,17
   108ac:	15c00013 	move	v0,s3

00000000000108b0 <$LVL77>:
   108b0:	f8c15863 	beqz	v1,1085c <$L172>

00000000000108b4 <$L382>:
   108b4:	1d000013 	move	v1,s0
   108b8:	a0800013 	move	s0,v0

00000000000108bc <$L169>:
   108bc:	1780c103 	lw	v0,48(sp)
   108c0:	2f80d103 	lw	a1,52(sp)
   108c4:	053601a3 	sd	s7,0(s0)
   108c8:	1080041b 	addw	v0,v0,1
   108cc:	2946003b 	addw	a1,a1,v1
   108d0:	20802113 	slt	a0,v0,8
   108d4:	050621a3 	sd	v1,8(s0)
   108d8:	078ad123 	sw	a1,52(sp)

00000000000108dc <$LVL80>:
   108dc:	0784c123 	sw	v0,48(sp)
   108e0:	a5004013 	add	s0,s0,16

00000000000108e4 <$LVL81>:
   108e4:	010038e3 	bnez	a0,10900 <$L168>

00000000000108e8 <$LM100>:
   108e8:	26000013 	move	a0,s4
   108ec:	2d800013 	move	a1,s2
   108f0:	3780a013 	add	a2,sp,40
   108f4:	0016c96f 	jal	16418 <__sprint_r>
   108f8:	188018e3 	bnez	v0,10c04 <$L350>

00000000000108fc <$LM101>:
   108fc:	a5c00013 	move	s0,s3

0000000000010900 <$L168>:
   10900:	16440393 	and	v0,s5,256
   10904:	3080f8e3 	bnez	v0,10f80 <$L174>

0000000000010908 <$LM103>:
   10908:	3f970183 	ld	a3,1472(sp)
   1090c:	1780c103 	lw	v0,48(sp)
   10910:	2780d103 	lw	a0,52(sp)
   10914:	1f96a183 	ld	v1,1448(sp)
   10918:	050e01a3 	sd	a3,0(s0)
   1091c:	3f96a183 	ld	a3,1448(sp)
   10920:	1080041b 	addw	v0,v0,1
   10924:	2106003b 	addw	a0,a0,v1
   10928:	18802113 	slt	v1,v0,8
   1092c:	0784c123 	sw	v0,48(sp)
   10930:	050e21a3 	sd	a3,8(s0)
   10934:	0788d123 	sw	a0,52(sp)

0000000000010938 <$LVL83>:
   10938:	15004013 	add	v0,s0,16
   1093c:	40c1d863 	beqz	v1,11228 <$L232>

0000000000010940 <$L176>:
   10940:	ce401393 	and	s5,s5,4
   10944:	0641a863 	beqz	s5,10a18 <$L362>

0000000000010948 <$LM105>:
   10948:	3f964183 	ld	a3,1424(sp)
   1094c:	1f4f003b 	subw	v1,s9,a3

0000000000010950 <$LVL85>:
   10950:	c8c00013 	move	s5,v1
   10954:	00078ae3 	blez	v1,10a18 <$L362>

0000000000010958 <$LM106>:
   10958:	18c04513 	slt	v1,v1,17

000000000001095c <$LVL86>:
   1095c:	00c01063 	beqz	v1,10964 <$L419>
   10960:	0004a367 	j	11bec <$L383>

0000000000010964 <$L419>:
   10964:	18000cb7 	lui	v1,0x19
   10968:	18d4c013 	add	v1,v1,1328

000000000001096c <$LM107>:
   1096c:	d0004013 	li	s6,16
   10970:	a0c00013 	move	s0,v1
   10974:	00000467 	j	10984 <$L239>

0000000000010978 <$L238>:
   10978:	ce7fc01b 	addw	s5,s5,-16
   1097c:	1e404513 	slt	v1,s5,17

0000000000010980 <$LVL88>:
   10980:	00c0a8e3 	bnez	v1,109d4 <$L384>

0000000000010984 <$L239>:
   10984:	1f80c103 	lw	v1,48(sp)
   10988:	2f80d103 	lw	a1,52(sp)
   1098c:	00a801a3 	sd	s0,0(v0)
   10990:	18c0041b 	addw	v1,v1,1
   10994:	2940401b 	addw	a1,a1,16
   10998:	20c02113 	slt	a0,v1,8
   1099c:	00b421a3 	sd	s6,8(v0)
   109a0:	078ad123 	sw	a1,52(sp)

00000000000109a4 <$LVL90>:
   109a4:	0786c123 	sw	v1,48(sp)
   109a8:	10804013 	add	v0,v0,16

00000000000109ac <$LVL91>:
   109ac:	f90198e3 	bnez	a0,10978 <$L238>

00000000000109b0 <$LM110>:
   109b0:	26000013 	move	a0,s4
   109b4:	2d800013 	move	a1,s2
   109b8:	3780a013 	add	a2,sp,40
   109bc:	0016976f 	jal	16418 <__sprint_r>

00000000000109c0 <$LVL92>:
   109c0:	108088e3 	bnez	v0,10c04 <$L350>

00000000000109c4 <$LM111>:
   109c4:	ce7fc01b 	addw	s5,s5,-16
   109c8:	1e404513 	slt	v1,s5,17
   109cc:	15c00013 	move	v0,s3

00000000000109d0 <$LVL93>:
   109d0:	f8c16863 	beqz	v1,10984 <$L239>

00000000000109d4 <$L384>:
   109d4:	1d000013 	move	v1,s0

00000000000109d8 <$L236>:
   109d8:	2780c103 	lw	a0,48(sp)
   109dc:	2f80d103 	lw	a1,52(sp)
   109e0:	008601a3 	sd	v1,0(v0)
   109e4:	2100041b 	addw	a0,a0,1
   109e8:	2972003b 	addw	a1,a1,s5
   109ec:	31002113 	slt	a2,a0,8
   109f0:	00b221a3 	sd	s5,8(v0)
   109f4:	19400013 	move	v1,a1
   109f8:	078ad123 	sw	a1,52(sp)

00000000000109fc <$LVL95>:
   109fc:	0788c123 	sw	a0,48(sp)
   10a00:	018038e3 	bnez	a2,10a1c <$L234>

0000000000010a04 <$LM113>:
   10a04:	26000013 	move	a0,s4
   10a08:	2d800013 	move	a1,s2
   10a0c:	3780a013 	add	a2,sp,40
   10a10:	0016826f 	jal	16418 <__sprint_r>

0000000000010a14 <$LVL96>:
   10a14:	0881e0e3 	bnez	v0,10c04 <$L350>

0000000000010a18 <$L362>:
   10a18:	1f80d103 	lw	v1,52(sp)

0000000000010a1c <$L234>:
   10a1c:	3f964183 	ld	a3,1424(sp)
   10a20:	11c00013 	move	v0,a3
   10a24:	01fa12e3 	ble	s9,a3,10a2c <$L240>
   10a28:	17400013 	move	v0,s9

0000000000010a2c <$L240>:
   10a2c:	27968183 	ld	a0,1440(sp)
   10a30:	2088003b 	addw	a0,v0,a0
   10a34:	5f8881a3 	sd	a0,1440(sp)

0000000000010a38 <$LM116>:
   10a38:	08c170e3 	bnez	v1,10bf0 <$L385>

0000000000010a3c <$L241>:
   10a3c:	15400003 	lb	v0,0(s1)

0000000000010a40 <$LM118>:
   10a40:	0780c123 	sw	zero,48(sp)

0000000000010a44 <$LVL99>:
   10a44:	a5c00013 	move	s0,s3

0000000000010a48 <$LM119>:
   10a48:	d08178e3 	bnez	v0,10504 <$L386>

0000000000010a4c <$L247>:
   10a4c:	cd400013 	move	s5,s1
   10a50:	fffec667 	j	10568 <$L10>

0000000000010a54 <$L32>:
   10a54:	ce404313 	or	s5,s5,16

0000000000010a58 <$L48>:
   10a58:	16404393 	and	v0,s5,16
   10a5c:	0881f8e3 	bnez	v0,10c58 <$L387>

0000000000010a60 <$LM123>:
   10a60:	16410393 	and	v0,s5,64
   10a64:	1f966183 	ld	v1,1432(sp)
   10a68:	6881d063 	beqz	v0,11850 <$L122>

0000000000010a6c <$LM124>:
   10a6c:	27966183 	ld	a0,1432(sp)
   10a70:	10c00283 	lhu	v0,0(v1)

0000000000010a74 <$LM125>:
   10a74:	18000013 	li	v1,0

0000000000010a78 <$LM126>:
   10a78:	21002013 	add	a0,a0,8
   10a7c:	5f8861a3 	sd	a0,1432(sp)
   10a80:	00000c67 	j	10ab0 <$L121>

0000000000010a84 <$L33>:
   10a84:	ce404313 	or	s5,s5,16

0000000000010a88 <$L47>:
   10a88:	16404393 	and	v0,s5,16
   10a8c:	088160e3 	bnez	v0,10c3c <$L388>

0000000000010a90 <$LM129>:
   10a90:	16410393 	and	v0,s5,64
   10a94:	1f966183 	ld	v1,1432(sp)
   10a98:	6880b863 	beqz	v0,117f4 <$L134>

0000000000010a9c <$LM130>:
   10a9c:	27966183 	ld	a0,1432(sp)
   10aa0:	10c00283 	lhu	v0,0(v1)

0000000000010aa4 <$LM131>:
   10aa4:	18000413 	li	v1,1

0000000000010aa8 <$LM132>:
   10aa8:	21002013 	add	a0,a0,8
   10aac:	5f8861a3 	sd	a0,1432(sp)

0000000000010ab0 <$L121>:
   10ab0:	07800023 	sb	zero,0(sp)
   10ab4:	28000013 	li	a1,0
   10ab8:	fffedf67 	j	10634 <$L61>

0000000000010abc <$L24>:
   10abc:	1f966183 	ld	v1,1432(sp)
   10ac0:	e8c00103 	lw	s9,0(v1)

0000000000010ac4 <$LVL110>:
   10ac4:	18c02013 	add	v1,v1,8
   10ac8:	5f8661a3 	sd	v1,1432(sp)

0000000000010acc <$LM135>:
   10acc:	d74192e3 	bgez	s9,10594 <$L299>

0000000000010ad0 <$LM136>:
   10ad0:	e83b003b 	neg	s9,s9

0000000000010ad4 <$L25>:
   10ad4:	ce401313 	or	s5,s5,4

0000000000010ad8 <$LM138>:
   10ad8:	fffeaf67 	j	10594 <$L299>

0000000000010adc <$L4>:
   10adc:	26000013 	move	a0,s4
   10ae0:	2d800013 	move	a1,s2
   10ae4:	0005536f 	jal	12030 <__swsetup_r>

0000000000010ae8 <$LM140>:
   10ae8:	e83ffc13 	li	s9,-1

0000000000010aec <$LM141>:
   10aec:	008158e3 	bnez	v0,10b98 <$L6>

0000000000010af0 <$LM142>:
   10af0:	5d804083 	lh	a7,16(s2)

0000000000010af4 <$LM143>:
   10af4:	18002813 	li	v1,10

0000000000010af8 <$LM144>:
   10af8:	12c0409b 	sllw	v0,a7,0x10
   10afc:	1080429b 	srlw	v0,v0,0x10

0000000000010b00 <$LM145>:
   10b00:	10806b93 	and	v0,v0,26
   10b04:	c88798e3 	bne	v0,v1,104d0 <$L7>

0000000000010b08 <$L373>:
   10b08:	15804883 	lh	v0,18(s2)

0000000000010b0c <$LM147>:
   10b0c:	c8818a63 	bltz	v0,104d0 <$L7>

0000000000010b10 <$LBB13>:
   10b10:	55829103 	lw	a6,164(s2)

0000000000010b14 <$LM149>:
   10b14:	4d80c183 	ld	a5,48(s2)

0000000000010b18 <$LM150>:
   10b18:	45810183 	ld	a4,64(s2)

0000000000010b1c <$LM151>:
   10b1c:	3f966183 	ld	a3,1432(sp)

0000000000010b20 <$LM152>:
   10b20:	18100013 	li	v1,1024

0000000000010b24 <$LM153>:
   10b24:	5afff793 	and	a7,a7,-3

0000000000010b28 <$LM154>:
   10b28:	0f85c8a3 	sh	v0,242(sp)

0000000000010b2c <$LM155>:
   10b2c:	26000013 	move	a0,s4

0000000000010b30 <$LM156>:
   10b30:	17862013 	add	v0,sp,392

0000000000010b34 <$LM157>:
   10b34:	2f838013 	add	a1,sp,224
   10b38:	35400013 	move	a2,s1

0000000000010b3c <$LM158>:
   10b3c:	0f97c0a3 	sh	a7,240(sp)

0000000000010b40 <$LM159>:
   10b40:	1f941123 	sw	a6,388(sp)

0000000000010b44 <$LM160>:
   10b44:	179241a3 	sd	a5,272(sp)

0000000000010b48 <$LM161>:
   10b48:	179081a3 	sd	a4,288(sp)

0000000000010b4c <$LM162>:
   10b4c:	0f8581a3 	sd	v0,224(sp)
   10b50:	0f85e1a3 	sd	v0,248(sp)

0000000000010b54 <$LM163>:
   10b54:	0f87b123 	sw	v1,236(sp)
   10b58:	17860123 	sw	v1,256(sp)

0000000000010b5c <$LM164>:
   10b5c:	17802123 	sw	zero,264(sp)

0000000000010b60 <$LM165>:
   10b60:	fffe296f 	jal	10404 <_vfprintf_r>
   10b64:	e8800013 	move	s9,v0

0000000000010b68 <$LM166>:
   10b68:	00803263 	bltz	v0,10b80 <$L420>
   10b6c:	26000013 	move	a0,s4
   10b70:	2f838013 	add	a1,sp,224
   10b74:	000b206f 	jal	137f4 <_fflush_r>

0000000000010b78 <$LVL116>:
   10b78:	00801063 	beqz	v0,10b80 <$L420>
   10b7c:	00050e67 	j	11fb4 <$L389>

0000000000010b80 <$L420>:
   10b80:	1783c283 	lhu	v0,240(sp)
   10b84:	10810393 	and	v0,v0,64
   10b88:	00802063 	beqz	v0,10b98 <$L6>

0000000000010b8c <$LM168>:
   10b8c:	15804283 	lhu	v0,16(s2)
   10b90:	10810313 	or	v0,v0,64
   10b94:	058440a3 	sh	v0,16(s2)

0000000000010b98 <$L6>:
   10b98:	0f984183 	ld	ra,1552(sp)
   10b9c:	17400013 	move	v0,s9
   10ba0:	df994183 	ld	s7,1616(sp)
   10ba4:	ef996183 	ld	s9,1624(sp)
   10ba8:	d7992183 	ld	s6,1608(sp)
   10bac:	cf990183 	ld	s5,1600(sp)
   10bb0:	c798e183 	ld	s4,1592(sp)

0000000000010bb4 <$LVL119>:
   10bb4:	bf98c183 	ld	s3,1584(sp)
   10bb8:	b798a183 	ld	s2,1576(sp)

0000000000010bbc <$LVL120>:
   10bbc:	af988183 	ld	s1,1568(sp)
   10bc0:	a7986183 	ld	s0,1560(sp)
   10bc4:	af99a187 	fld	fs1,1640(sp)
   10bc8:	a7998187 	fld	fs0,1632(sp)
   10bcc:	f799c013 	add	sp,sp,1648
   10bd0:	004000eb 	ret

0000000000010bd4 <$L374>:
   10bd4:	26000013 	move	a0,s4
   10bd8:	2d800013 	move	a1,s2
   10bdc:	3780a013 	add	a2,sp,40
   10be0:	00160e6f 	jal	16418 <__sprint_r>
   10be4:	008040e3 	bnez	v0,10c04 <$L350>

0000000000010be8 <$LM171>:
   10be8:	a5c00013 	move	s0,s3

0000000000010bec <$LVL122>:
   10bec:	fffe5c67 	j	1055c <$L15>

0000000000010bf0 <$L385>:
   10bf0:	26000013 	move	a0,s4
   10bf4:	2d800013 	move	a1,s2
   10bf8:	3780a013 	add	a2,sp,40
   10bfc:	0016076f 	jal	16418 <__sprint_r>

0000000000010c00 <$LVL124>:
   10c00:	f0807863 	beqz	v0,10a3c <$L241>

0000000000010c04 <$L350>:
   10c04:	ef968183 	ld	s9,1440(sp)

0000000000010c08 <$L16>:
   10c08:	15804283 	lhu	v0,16(s2)
   10c0c:	10810393 	and	v0,v0,64
   10c10:	f8811063 	beqz	v0,10b98 <$L6>
   10c14:	e83ffc13 	li	s9,-1

0000000000010c18 <$LVL127>:
   10c18:	ffffe067 	j	10b98 <$L6>

0000000000010c1c <$L372>:
   10c1c:	26000013 	move	a0,s4
   10c20:	000be76f 	jal	13bbc <__sinit>
   10c24:	fffe1267 	j	1046c <$L2>

0000000000010c28 <$L376>:
   10c28:	1f966183 	ld	v1,1432(sp)
   10c2c:	10c00183 	ld	v0,0(v1)
   10c30:	18c02013 	add	v1,v1,8
   10c34:	5f8661a3 	sd	v1,1432(sp)
   10c38:	fffe7b67 	j	10624 <$L58>

0000000000010c3c <$L388>:
   10c3c:	27966183 	ld	a0,1432(sp)
   10c40:	1f966183 	ld	v1,1432(sp)
   10c44:	21002013 	add	a0,a0,8
   10c48:	10c00183 	ld	v0,0(v1)
   10c4c:	5f8861a3 	sd	a0,1432(sp)

0000000000010c50 <$LM177>:
   10c50:	18000413 	li	v1,1
   10c54:	ffff9767 	j	10ab0 <$L121>

0000000000010c58 <$L387>:
   10c58:	27966183 	ld	a0,1432(sp)
   10c5c:	1f966183 	ld	v1,1432(sp)
   10c60:	21002013 	add	a0,a0,8
   10c64:	10c00183 	ld	v0,0(v1)
   10c68:	5f8861a3 	sd	a0,1432(sp)

0000000000010c6c <$LM179>:
   10c6c:	18000013 	li	v1,0
   10c70:	ffff9067 	j	10ab0 <$L121>

0000000000010c74 <$L43>:
   10c74:	1f966183 	ld	v1,1432(sp)
   10c78:	27966183 	ld	a0,1432(sp)

0000000000010c7c <$LM181>:
   10c7c:	07800023 	sb	zero,0(sp)

0000000000010c80 <$LM182>:
   10c80:	18c00183 	ld	v1,0(v1)
   10c84:	5f8701a3 	sd	v1,1472(sp)

0000000000010c88 <$LM183>:
   10c88:	3f970183 	ld	a3,1472(sp)

0000000000010c8c <$LM184>:
   10c8c:	19002013 	add	v1,a0,8

0000000000010c90 <$LM185>:
   10c90:	79c04863 	beqz	a3,11bb4 <$L390>

0000000000010c94 <$LBB16>:
   10c94:	27970183 	ld	a0,1472(sp)

0000000000010c98 <$LBE16>:
   10c98:	76c1d263 	bltz	s7,11b80 <$L126>

0000000000010c9c <$LBB17>:
   10c9c:	28000013 	li	a1,0
   10ca0:	36c00013 	move	a2,s7
   10ca4:	678601a3 	sd	v1,1536(sp)
   10ca8:	0010306f 	jal	14d68 <memchr>

0000000000010cac <$LM189>:
   10cac:	1f980183 	ld	v1,1536(sp)
   10cb0:	00803863 	beqz	v0,10ccc <$L356>

0000000000010cb4 <$LM190>:
   10cb4:	3f970183 	ld	a3,1472(sp)
   10cb8:	108f0033 	sub	v0,v0,a3

0000000000010cbc <$LVL135>:
   10cbc:	1080009b 	sllw	v0,v0,0x0
   10cc0:	38800013 	move	a3,v0
   10cc4:	5f8ea1a3 	sd	a3,1448(sp)

0000000000010cc8 <$LM191>:
   10cc8:	6ec48ae3 	ble	v0,s7,11a0c <$L129>

0000000000010ccc <$L356>:
   10ccc:	26fffe13 	not	a0,s7
   10cd0:	21017e9b 	sraw	a0,a0,0x1f
   10cd4:	16c803b3 	and	v0,s7,a0
   10cd8:	5f8441a3 	sd	v0,1424(sp)
   10cdc:	2f800003 	lb	a1,0(sp)
   10ce0:	5fb6a1a3 	sd	s7,1448(sp)

0000000000010ce4 <$LM192>:
   10ce4:	5f8661a3 	sd	v1,1432(sp)

0000000000010ce8 <$LM193>:
   10ce8:	5f8121a3 	sd	zero,1480(sp)
   10cec:	fffe6667 	j	10684 <$L68>

0000000000010cf0 <$L41>:
   10cf0:	1f966183 	ld	v1,1432(sp)

0000000000010cf4 <$LM195>:
   10cf4:	ce400b13 	or	s5,s5,2

0000000000010cf8 <$LM196>:
   10cf8:	d001e013 	li	s6,120

0000000000010cfc <$LM197>:
   10cfc:	10c00183 	ld	v0,0(v1)

0000000000010d00 <$LM198>:
   10d00:	1800c013 	li	v1,48
   10d04:	07862023 	sb	v1,8(sp)

0000000000010d08 <$LM199>:
   10d08:	1801e013 	li	v1,120
   10d0c:	07862423 	sb	v1,9(sp)

0000000000010d10 <$LM200>:
   10d10:	1f966183 	ld	v1,1432(sp)
   10d14:	18c02013 	add	v1,v1,8
   10d18:	5f8661a3 	sd	v1,1432(sp)

0000000000010d1c <$LM201>:
   10d1c:	18000d37 	lui	v1,0x1a
   10d20:	18ea0013 	add	v1,v1,-1408
   10d24:	5f87a1a3 	sd	v1,1512(sp)

0000000000010d28 <$LM202>:
   10d28:	18000813 	li	v1,2

0000000000010d2c <$LM203>:
   10d2c:	ffff6167 	j	10ab0 <$L121>

0000000000010d30 <$L45>:
   10d30:	10000d37 	lui	v0,0x1a
   10d34:	10aa0013 	add	v0,v0,-1408
   10d38:	5f85a1a3 	sd	v0,1512(sp)

0000000000010d3c <$LM205>:
   10d3c:	16404393 	and	v0,s5,16

0000000000010d40 <$LM206>:
   10d40:	078a0023 	sb	a1,0(sp)

0000000000010d44 <$LM207>:
   10d44:	08806863 	beqz	v0,10e78 <$L135>

0000000000010d48 <$L392>:
   10d48:	1f966183 	ld	v1,1432(sp)
   10d4c:	10c00183 	ld	v0,0(v1)
   10d50:	18c02013 	add	v1,v1,8
   10d54:	5f8661a3 	sd	v1,1432(sp)

0000000000010d58 <$L136>:
   10d58:	26400793 	and	a0,s5,1

0000000000010d5c <$LM210>:
   10d5c:	18000813 	li	v1,2

0000000000010d60 <$LM211>:
   10d60:	e900a063 	beqz	a0,10ab0 <$L121>

0000000000010d64 <$LM212>:
   10d64:	e8809863 	beqz	v0,10ab0 <$L121>

0000000000010d68 <$LM213>:
   10d68:	2000c013 	li	a0,48

0000000000010d6c <$LM214>:
   10d6c:	ce400b13 	or	s5,s5,2

0000000000010d70 <$LM215>:
   10d70:	07882023 	sb	a0,8(sp)

0000000000010d74 <$LM216>:
   10d74:	07b42423 	sb	s6,9(sp)
   10d78:	ffff4e67 	j	10ab0 <$L121>

0000000000010d7c <$L39>:
   10d7c:	16404393 	and	v0,s5,16

0000000000010d80 <$LM218>:
   10d80:	078a0023 	sb	a1,0(sp)

0000000000010d84 <$LM219>:
   10d84:	50813063 	beqz	v0,1181c <$L117>

0000000000010d88 <$LM220>:
   10d88:	1f966183 	ld	v1,1432(sp)
   10d8c:	10c00183 	ld	v0,0(v1)
   10d90:	18c02013 	add	v1,v1,8
   10d94:	5f8661a3 	sd	v1,1432(sp)
   10d98:	1f968183 	ld	v1,1440(sp)
   10d9c:	008601a3 	sd	v1,0(v0)
   10da0:	fffdd767 	j	104fc <$L301>

0000000000010da4 <$L27>:
   10da4:	ce420313 	or	s5,s5,128

0000000000010da8 <$LM222>:
   10da8:	fffdfb67 	j	10594 <$L299>

0000000000010dac <$L23>:
   10dac:	ce400713 	or	s5,s5,1

0000000000010db0 <$LM224>:
   10db0:	fffdf967 	j	10594 <$L299>

0000000000010db4 <$L250>:
   10db4:	18000013 	li	v1,0

0000000000010db8 <$L28>:
   10db8:	15400003 	lb	v0,0(s1)

0000000000010dbc <$LM227>:
   10dbc:	e8c0049b 	sllw	s9,v1,0x1
   10dc0:	18c00c9b 	sllw	v1,v1,0x3

0000000000010dc4 <$LVL154>:
   10dc4:	d6bf401b 	addw	s6,s6,-48

0000000000010dc8 <$LVL155>:
   10dc8:	1f46003b 	addw	v1,s9,v1

0000000000010dcc <$LM228>:
   10dcc:	38bf401b 	addw	a3,v0,-48

0000000000010dd0 <$LM229>:
   10dd0:	ee86003b 	addw	s9,s6,v1

0000000000010dd4 <$LM230>:
   10dd4:	39c02993 	sltu	a3,a3,10

0000000000010dd8 <$LM231>:
   10dd8:	1f400013 	move	v1,s9

0000000000010ddc <$LM232>:
   10ddc:	d0800013 	move	s6,v0
   10de0:	ad400413 	add	s1,s1,1

0000000000010de4 <$LM233>:
   10de4:	f9c1a8e3 	bnez	a3,10db8 <$L28>
   10de8:	fffded67 	j	1059c <$L300>

0000000000010dec <$L22>:
   10dec:	b94150e3 	bnez	a1,10594 <$L299>

0000000000010df0 <$LM235>:
   10df0:	28008013 	li	a1,32
   10df4:	fffde867 	j	10594 <$L299>

0000000000010df8 <$L26>:
   10df8:	15400003 	lb	v0,0(s1)

0000000000010dfc <$LVL159>:
   10dfc:	ad400413 	add	s1,s1,1

0000000000010e00 <$LVL160>:
   10e00:	d0800013 	move	s6,v0
   10e04:	008c10e3 	bne	v0,a2,10e0c <$L421>
   10e08:	00046367 	j	11f94 <$L51>

0000000000010e0c <$L421>:
   10e0c:	10bf401b 	addw	v0,v0,-48

0000000000010e10 <$LVL162>:
   10e10:	40802993 	sltu	a4,v0,10
   10e14:	38800013 	move	a3,v0
   10e18:	18000013 	li	v1,0
   10e1c:	d8000013 	li	s7,0

0000000000010e20 <$LVL163>:
   10e20:	ba00f863 	beqz	a4,1059c <$L300>

0000000000010e24 <$L283>:
   10e24:	d5400003 	lb	s6,0(s1)

0000000000010e28 <$LM239>:
   10e28:	40c0049b 	sllw	a4,v1,0x1
   10e2c:	18c00c9b 	sllw	v1,v1,0x3

0000000000010e30 <$LM240>:
   10e30:	16bf401b 	addw	v0,s6,-48

0000000000010e34 <$LM241>:
   10e34:	1a06003b 	addw	v1,a4,v1

0000000000010e38 <$LM242>:
   10e38:	40802993 	sltu	a4,v0,10

0000000000010e3c <$LM243>:
   10e3c:	18ce003b 	addw	v1,v1,a3

0000000000010e40 <$LM244>:
   10e40:	ad400413 	add	s1,s1,1

0000000000010e44 <$LM245>:
   10e44:	38800013 	move	a3,v0
   10e48:	fa01b8e3 	bnez	a4,10e24 <$L283>
   10e4c:	60c05a63 	bltz	v1,11a78 <$L391>

0000000000010e50 <$LVL167>:
   10e50:	d8c00013 	move	s7,v1

0000000000010e54 <$LM246>:
   10e54:	fffdd267 	j	1059c <$L300>

0000000000010e58 <$L37>:
   10e58:	ce410313 	or	s5,s5,64

0000000000010e5c <$LM248>:
   10e5c:	fffdce67 	j	10594 <$L299>

0000000000010e60 <$L34>:
   10e60:	10000d37 	lui	v0,0x1a
   10e64:	10a9a013 	add	v0,v0,-1432
   10e68:	5f85a1a3 	sd	v0,1512(sp)

0000000000010e6c <$LM250>:
   10e6c:	16404393 	and	v0,s5,16

0000000000010e70 <$LM251>:
   10e70:	078a0023 	sb	a1,0(sp)

0000000000010e74 <$LM252>:
   10e74:	f081a8e3 	bnez	v0,10d48 <$L392>

0000000000010e78 <$L135>:
   10e78:	16410393 	and	v0,s5,64
   10e7c:	1f966183 	ld	v1,1432(sp)
   10e80:	48811863 	beqz	v0,1180c <$L137>

0000000000010e84 <$LM254>:
   10e84:	10c00283 	lhu	v0,0(v1)
   10e88:	18c02013 	add	v1,v1,8
   10e8c:	5f8661a3 	sd	v1,1432(sp)
   10e90:	ffffb267 	j	10d58 <$L136>

0000000000010e94 <$L35>:
   10e94:	1f966183 	ld	v1,1432(sp)

0000000000010e98 <$LM256>:
   10e98:	07800023 	sb	zero,0(sp)

0000000000010e9c <$LM257>:
   10e9c:	10c00103 	lw	v0,0(v1)
   10ea0:	18c02013 	add	v1,v1,8
   10ea4:	5f8661a3 	sd	v1,1432(sp)
   10ea8:	0784e023 	sb	v0,56(sp)

0000000000010eac <$LVL174>:
   10eac:	fffdc367 	j	105b8 <$L363>

0000000000010eb0 <$L249>:
   10eb0:	2800ac13 	li	a1,43
   10eb4:	fffdb867 	j	10594 <$L299>

0000000000010eb8 <$L31>:
   10eb8:	ce402313 	or	s5,s5,8

0000000000010ebc <$LM260>:
   10ebc:	fffdb667 	j	10594 <$L299>

0000000000010ec0 <$L30>:
   10ec0:	1f966183 	ld	v1,1432(sp)

0000000000010ec4 <$LM262>:
   10ec4:	078a0023 	sb	a1,0(sp)

0000000000010ec8 <$LM263>:
   10ec8:	a0c00187 	fld	fs0,0(v1)

0000000000010ecc <$LVL177>:
   10ecc:	18c02013 	add	v1,v1,8
   10ed0:	5f8661a3 	sd	v1,1432(sp)

0000000000010ed4 <$LM264>:
   10ed4:	652850d3 	fsgnj.d	ft2,fs0,fs0
   10ed8:	0014996f 	jal	1613c <__fpclassifyd>

0000000000010edc <$LVL178>:
   10edc:	18000413 	li	v1,1
   10ee0:	388748e3 	bne	v0,v1,11684 <$L64>

0000000000010ee4 <$LM265>:
   10ee4:	1001e0d3 	mxtf.d	fv0,zero
   10ee8:	150560d3 	flt.d	v0,fs0,fv0
   10eec:	5880f8e3 	bnez	v0,11a68 <$L65>
   10ef0:	2f800003 	lb	a1,0(sp)

0000000000010ef4 <$L66>:
   10ef4:	16812113 	slt	v0,s6,72
   10ef8:	5881c863 	beqz	v0,11adc <$L254>

0000000000010efc <$LM267>:
   10efc:	10000d37 	lui	v0,0x1a
   10f00:	10a92013 	add	v0,v0,-1464
   10f04:	5f8501a3 	sd	v0,1472(sp)

0000000000010f08 <$LM268>:
   10f08:	ce7dff93 	and	s5,s5,-129

0000000000010f0c <$LVL180>:
   10f0c:	0002cf67 	j	11a48 <$L357>

0000000000010f10 <$L17>:
   10f10:	1780d103 	lw	v0,52(sp)
   10f14:	ef968183 	ld	s9,1440(sp)
   10f18:	e081e063 	beqz	v0,10c08 <$L16>

0000000000010f1c <$LM270>:
   10f1c:	26000013 	move	a0,s4
   10f20:	2d800013 	move	a1,s2
   10f24:	3780a013 	add	a2,sp,40
   10f28:	00153c6f 	jal	16418 <__sprint_r>
   10f2c:	ffff3767 	j	10c08 <$L16>

0000000000010f30 <$L139>:
   10f30:	20000413 	li	a0,1
   10f34:	20c9d863 	beq	v1,a0,11420 <$L142>
   10f38:	20000813 	li	a0,2
   10f3c:	20c93863 	beq	v1,a0,113d8 <$L393>

0000000000010f40 <$LM272>:
   10f40:	1dc00013 	move	v1,s3

0000000000010f44 <$LVL183>:
   10f44:	00000267 	j	10f4c <$L141>

0000000000010f48 <$L270>:
   10f48:	19800013 	move	v1,a2

0000000000010f4c <$L141>:
   10f4c:	20801f93 	and	a0,v0,7
   10f50:	2100c013 	add	a0,a0,48

0000000000010f54 <$LM275>:
   10f54:	10800e93 	srl	v0,v0,0x3

0000000000010f58 <$LM276>:
   10f58:	30fffc13 	add	a2,v1,-1

0000000000010f5c <$LVL187>:
   10f5c:	f8c9fc23 	sb	a0,-1(v1)

0000000000010f60 <$LM277>:
   10f60:	f881d0e3 	bnez	v0,10f48 <$L270>

0000000000010f64 <$LM278>:
   10f64:	16400793 	and	v0,s5,1

0000000000010f68 <$LVL188>:
   10f68:	5f8d01a3 	sd	a2,1472(sp)
   10f6c:	3080f0e3 	bnez	v0,115e4 <$L146>
   10f70:	15cd0033 	sub	v0,s3,a2
   10f74:	1080009b 	sllw	v0,v0,0x0
   10f78:	5f84a1a3 	sd	v0,1448(sp)
   10f7c:	fffdbc67 	j	1066c <$L147>

0000000000010f80 <$L174>:
   10f80:	d6819913 	slt	s6,s6,102
   10f84:	168180e3 	bnez	s6,11244 <$L177>

0000000000010f88 <$LM280>:
   10f88:	1001e0d3 	mxtf.d	fv0,zero
   10f8c:	150550d3 	feq.d	v0,fs0,fv0
   10f90:	28803063 	beqz	v0,114a8 <$L178>

0000000000010f94 <$LM281>:
   10f94:	1780c103 	lw	v0,48(sp)
   10f98:	2780d103 	lw	a0,52(sp)
   10f9c:	28000d37 	lui	a1,0x1a
   10fa0:	1080041b 	addw	v0,v0,1
   10fa4:	296a8013 	add	a1,a1,-1376
   10fa8:	2100041b 	addw	a0,a0,1
   10fac:	18802113 	slt	v1,v0,8
   10fb0:	050a01a3 	sd	a1,0(s0)
   10fb4:	28000413 	li	a1,1
   10fb8:	0784c123 	sw	v0,48(sp)
   10fbc:	050a21a3 	sd	a1,8(s0)
   10fc0:	0788d123 	sw	a0,52(sp)

0000000000010fc4 <$LVL190>:
   10fc4:	15004013 	add	v0,s0,16
   10fc8:	48c07063 	beqz	v1,11900 <$L394>

0000000000010fcc <$L180>:
   10fcc:	1f804103 	lw	v1,16(sp)
   10fd0:	3f976183 	ld	a3,1496(sp)
   10fd4:	00ce1a63 	blt	v1,a3,10fe0 <$L181>

0000000000010fd8 <$LM283>:
   10fd8:	1e400793 	and	v1,s5,1
   10fdc:	c8c0c863 	beqz	v1,10940 <$L176>

0000000000010fe0 <$L181>:
   10fe0:	1f978183 	ld	v1,1504(sp)
   10fe4:	2f80d103 	lw	a1,52(sp)
   10fe8:	37974183 	ld	a2,1488(sp)
   10fec:	20c0009b 	sllw	a0,v1,0x0
   10ff0:	1f80c103 	lw	v1,48(sp)
   10ff4:	3f978183 	ld	a3,1504(sp)
   10ff8:	2948003b 	addw	a1,a1,a0
   10ffc:	18c0041b 	addw	v1,v1,1
   11000:	20c02113 	slt	a0,v1,8
   11004:	008c01a3 	sd	a2,0(v0)
   11008:	008e21a3 	sd	a3,8(v0)
   1100c:	078ad123 	sw	a1,52(sp)

0000000000011010 <$LVL192>:
   11010:	0786c123 	sw	v1,48(sp)
   11014:	10804013 	add	v0,v0,16

0000000000011018 <$LVL193>:
   11018:	51015063 	beqz	a0,11ac0 <$L395>

000000000001101c <$L183>:
   1101c:	3f976183 	ld	a3,1496(sp)
   11020:	19fffc1b 	addw	v1,a3,-1

0000000000011024 <$LVL195>:
   11024:	d0c00013 	move	s6,v1
   11028:	c80632e3 	blez	v1,10940 <$L176>
   1102c:	d8000cb7 	lui	s7,0x19

0000000000011030 <$LM286>:
   11030:	18c04513 	slt	v1,v1,17

0000000000011034 <$LVL196>:
   11034:	ded50013 	add	s7,s7,1344
   11038:	a0004013 	li	s0,16
   1103c:	00c02863 	beqz	v1,11050 <$L187>
   11040:	0001e167 	j	117c4 <$L184>

0000000000011044 <$L186>:
   11044:	d6bfc01b 	addw	s6,s6,-16
   11048:	1e804513 	slt	v1,s6,17

000000000001104c <$LVL198>:
   1104c:	38c0f0e3 	bnez	v1,117c4 <$L184>

0000000000011050 <$L187>:
   11050:	1f80c103 	lw	v1,48(sp)
   11054:	2f80d103 	lw	a1,52(sp)
   11058:	00b601a3 	sd	s7,0(v0)
   1105c:	18c0041b 	addw	v1,v1,1
   11060:	2940401b 	addw	a1,a1,16
   11064:	20c02113 	slt	a0,v1,8
   11068:	00a821a3 	sd	s0,8(v0)
   1106c:	078ad123 	sw	a1,52(sp)

0000000000011070 <$LVL200>:
   11070:	0786c123 	sw	v1,48(sp)
   11074:	10804013 	add	v0,v0,16

0000000000011078 <$LVL201>:
   11078:	f90198e3 	bnez	a0,11044 <$L186>

000000000001107c <$LM289>:
   1107c:	26000013 	move	a0,s4
   11080:	2d800013 	move	a1,s2
   11084:	3780a013 	add	a2,sp,40
   11088:	0014e46f 	jal	16418 <__sprint_r>

000000000001108c <$LVL202>:
   1108c:	d880f0e3 	bnez	v0,10c04 <$L350>

0000000000011090 <$LM290>:
   11090:	15c00013 	move	v0,s3
   11094:	ffffec67 	j	11044 <$L186>

0000000000011098 <$L380>:
   11098:	1f964183 	ld	v1,1424(sp)
   1109c:	1747003b 	subw	v0,s9,v1

00000000000110a0 <$LVL204>:
   110a0:	18800013 	move	v1,v0
   110a4:	b804eae3 	blez	v0,10818 <$L162>
   110a8:	d8000cb7 	lui	s7,0x19

00000000000110ac <$LM292>:
   110ac:	10804513 	slt	v0,v0,17

00000000000110b0 <$LVL205>:
   110b0:	ded50013 	add	s7,s7,1344
   110b4:	008100e3 	bnez	v0,11134 <$L163>

00000000000110b8 <$LM293>:
   110b8:	15000013 	move	v0,s0
   110bc:	38004013 	li	a3,16
   110c0:	a0c00013 	move	s0,v1

00000000000110c4 <$LVL206>:
   110c4:	00000467 	j	110d4 <$L166>

00000000000110c8 <$L165>:
   110c8:	a53fc01b 	addw	s0,s0,-16
   110cc:	1d004513 	slt	v1,s0,17

00000000000110d0 <$LVL208>:
   110d0:	00c0b8e3 	bnez	v1,1112c <$L396>

00000000000110d4 <$L166>:
   110d4:	1f80c103 	lw	v1,48(sp)
   110d8:	2f80d103 	lw	a1,52(sp)
   110dc:	00b601a3 	sd	s7,0(v0)
   110e0:	18c0041b 	addw	v1,v1,1
   110e4:	2940401b 	addw	a1,a1,16
   110e8:	20c02113 	slt	a0,v1,8
   110ec:	008e21a3 	sd	a3,8(v0)
   110f0:	078ad123 	sw	a1,52(sp)

00000000000110f4 <$LVL210>:
   110f4:	0786c123 	sw	v1,48(sp)
   110f8:	10804013 	add	v0,v0,16

00000000000110fc <$LVL211>:
   110fc:	f90198e3 	bnez	a0,110c8 <$L165>

0000000000011100 <$LM296>:
   11100:	26000013 	move	a0,s4
   11104:	2d800013 	move	a1,s2
   11108:	3780a013 	add	a2,sp,40
   1110c:	5f8fe1a3 	sd	a3,1528(sp)
   11110:	0014c26f 	jal	16418 <__sprint_r>

0000000000011114 <$LVL212>:
   11114:	3f97e183 	ld	a3,1528(sp)
   11118:	d081d8e3 	bnez	v0,10c04 <$L350>

000000000001111c <$LM297>:
   1111c:	a53fc01b 	addw	s0,s0,-16
   11120:	1d004513 	slt	v1,s0,17
   11124:	15c00013 	move	v0,s3

0000000000011128 <$LVL213>:
   11128:	f8c15863 	beqz	v1,110d4 <$L166>

000000000001112c <$L396>:
   1112c:	1d000013 	move	v1,s0
   11130:	a0800013 	move	s0,v0

0000000000011134 <$L163>:
   11134:	1780c103 	lw	v0,48(sp)
   11138:	2f80d103 	lw	a1,52(sp)
   1113c:	053601a3 	sd	s7,0(s0)
   11140:	1080041b 	addw	v0,v0,1
   11144:	2946003b 	addw	a1,a1,v1
   11148:	20802113 	slt	a0,v0,8
   1114c:	050621a3 	sd	v1,8(s0)
   11150:	078ad123 	sw	a1,52(sp)

0000000000011154 <$LVL216>:
   11154:	0784c123 	sw	v0,48(sp)
   11158:	a5004013 	add	s0,s0,16

000000000001115c <$LVL217>:
   1115c:	b10178e3 	bnez	a0,10818 <$L162>

0000000000011160 <$LM299>:
   11160:	26000013 	move	a0,s4
   11164:	2d800013 	move	a1,s2
   11168:	3780a013 	add	a2,sp,40
   1116c:	0014ab6f 	jal	16418 <__sprint_r>
   11170:	d08128e3 	bnez	v0,10c04 <$L350>

0000000000011174 <$LM300>:
   11174:	a5c00013 	move	s0,s3

0000000000011178 <$LVL218>:
   11178:	fffda867 	j	10818 <$L162>

000000000001117c <$L202>:
   1117c:	1780c103 	lw	v0,48(sp)
   11180:	2780d103 	lw	a0,52(sp)
   11184:	3f970183 	ld	a3,1472(sp)
   11188:	1080041b 	addw	v0,v0,1
   1118c:	2106003b 	addw	a0,a0,v1
   11190:	30802113 	slt	a2,v0,8
   11194:	29000013 	move	a1,a0
   11198:	0788d123 	sw	a0,52(sp)

000000000001119c <$LVL220>:
   1119c:	0784c123 	sw	v0,48(sp)
   111a0:	20800013 	move	a0,v0
   111a4:	050e01a3 	sd	a3,0(s0)
   111a8:	d0c00013 	move	s6,v1
   111ac:	050621a3 	sd	v1,8(s0)
   111b0:	15004013 	add	v0,s0,16
   111b4:	51810063 	beqz	a2,11c34 <$L397>

00000000000111b8 <$L213>:
   111b8:	3f978183 	ld	a3,1504(sp)
   111bc:	2100041b 	addw	a0,a0,1
   111c0:	0788c123 	sw	a0,48(sp)
   111c4:	31c0009b 	sllw	a2,a3,0x0
   111c8:	3f974183 	ld	a3,1488(sp)
   111cc:	298a003b 	addw	a1,a2,a1
   111d0:	31002113 	slt	a2,a0,8
   111d4:	008e01a3 	sd	a3,0(v0)
   111d8:	3f978183 	ld	a3,1504(sp)
   111dc:	078ad123 	sw	a1,52(sp)

00000000000111e0 <$LVL222>:
   111e0:	008e21a3 	sd	a3,8(v0)
   111e4:	10804013 	add	v0,v0,16

00000000000111e8 <$LVL223>:
   111e8:	51805063 	beqz	a2,11c10 <$L398>

00000000000111ec <$L215>:
   111ec:	3f976183 	ld	a3,1496(sp)
   111f0:	2780c103 	lw	a0,48(sp)
   111f4:	2f80d103 	lw	a1,52(sp)
   111f8:	19c7003b 	subw	v1,a3,v1

00000000000111fc <$LM304>:
   111fc:	3f970183 	ld	a3,1472(sp)

0000000000011200 <$LM305>:
   11200:	2100041b 	addw	a0,a0,1
   11204:	30c00013 	move	a2,v1

0000000000011208 <$LM306>:
   11208:	d1f40033 	add	s6,a3,s6

000000000001120c <$LM307>:
   1120c:	1946003b 	addw	v1,a1,v1
   11210:	29002113 	slt	a1,a0,8
   11214:	00b401a3 	sd	s6,0(v0)
   11218:	008c21a3 	sd	a2,8(v0)
   1121c:	0786d123 	sw	v1,52(sp)

0000000000011220 <$LVL225>:
   11220:	0788c123 	sw	a0,48(sp)
   11224:	094038e3 	bnez	a1,11340 <$L361>

0000000000011228 <$L232>:
   11228:	26000013 	move	a0,s4
   1122c:	2d800013 	move	a1,s2
   11230:	3780a013 	add	a2,sp,40
   11234:	0014796f 	jal	16418 <__sprint_r>
   11238:	c88198e3 	bnez	v0,10c04 <$L350>

000000000001123c <$LM309>:
   1123c:	15c00013 	move	v0,s3
   11240:	fffdc067 	j	10940 <$L176>

0000000000011244 <$L177>:
   11244:	1f976183 	ld	v1,1496(sp)
   11248:	10c00913 	slt	v0,v1,2
   1124c:	0081f8e3 	bnez	v0,11348 <$L399>

0000000000011250 <$L217>:
   11250:	1780c103 	lw	v0,48(sp)
   11254:	2780d103 	lw	a0,52(sp)
   11258:	3f970183 	ld	a3,1472(sp)
   1125c:	1080041b 	addw	v0,v0,1
   11260:	2100041b 	addw	a0,a0,1
   11264:	18802113 	slt	v1,v0,8
   11268:	28000413 	li	a1,1
   1126c:	0784c123 	sw	v0,48(sp)
   11270:	050e01a3 	sd	a3,0(s0)
   11274:	050a21a3 	sd	a1,8(s0)
   11278:	0788d123 	sw	a0,52(sp)

000000000001127c <$LVL228>:
   1127c:	15004013 	add	v0,s0,16
   11280:	18c11063 	beqz	v1,11608 <$L400>

0000000000011284 <$L220>:
   11284:	1f978183 	ld	v1,1504(sp)
   11288:	2f80d103 	lw	a1,52(sp)
   1128c:	37974183 	ld	a2,1488(sp)
   11290:	20c0009b 	sllw	a0,v1,0x0
   11294:	1f80c103 	lw	v1,48(sp)
   11298:	3f978183 	ld	a3,1504(sp)
   1129c:	2948003b 	addw	a1,a1,a0
   112a0:	18c0041b 	addw	v1,v1,1
   112a4:	20c02113 	slt	a0,v1,8
   112a8:	008c01a3 	sd	a2,0(v0)
   112ac:	008e21a3 	sd	a3,8(v0)
   112b0:	078ad123 	sw	a1,52(sp)

00000000000112b4 <$LVL230>:
   112b4:	0786c123 	sw	v1,48(sp)
   112b8:	10804013 	add	v0,v0,16

00000000000112bc <$LVL231>:
   112bc:	1900d063 	beqz	a0,11624 <$L401>

00000000000112c0 <$L222>:
   112c0:	1001e0d3 	mxtf.d	fv0,zero
   112c4:	1d0550d3 	feq.d	v1,fs0,fv0
   112c8:	10c140e3 	bnez	v1,11568 <$L223>

00000000000112cc <$LM314>:
   112cc:	1f976183 	ld	v1,1496(sp)

00000000000112d0 <$LM315>:
   112d0:	2f970183 	ld	a1,1472(sp)

00000000000112d4 <$LM316>:
   112d4:	20fffc1b 	addw	a0,v1,-1
   112d8:	1f80c103 	lw	v1,48(sp)

00000000000112dc <$LM317>:
   112dc:	39400413 	add	a3,a1,1

00000000000112e0 <$LM318>:
   112e0:	2f80d103 	lw	a1,52(sp)
   112e4:	18c0041b 	addw	v1,v1,1
   112e8:	31000013 	move	a2,a0
   112ec:	2148003b 	addw	a0,a1,a0
   112f0:	28c02113 	slt	a1,v1,8
   112f4:	008e01a3 	sd	a3,0(v0)
   112f8:	008c21a3 	sd	a2,8(v0)
   112fc:	0788d123 	sw	a0,52(sp)

0000000000011300 <$LVL233>:
   11300:	0786c123 	sw	v1,48(sp)
   11304:	01410063 	beqz	a1,11384 <$L231>

0000000000011308 <$L359>:
   11308:	10804013 	add	v0,v0,16

000000000001130c <$L225>:
   1130c:	1f80c103 	lw	v1,48(sp)
   11310:	2f80d103 	lw	a1,52(sp)
   11314:	2797c183 	ld	a0,1520(sp)
   11318:	37806013 	add	a2,sp,24
   1131c:	008c01a3 	sd	a2,0(v0)
   11320:	3797c183 	ld	a2,1520(sp)
   11324:	18c0041b 	addw	v1,v1,1
   11328:	2948003b 	addw	a1,a1,a0
   1132c:	20c02113 	slt	a0,v1,8
   11330:	008c21a3 	sd	a2,8(v0)
   11334:	078ad123 	sw	a1,52(sp)

0000000000011338 <$LVL236>:
   11338:	0786c123 	sw	v1,48(sp)
   1133c:	f101d863 	beqz	a0,11228 <$L232>

0000000000011340 <$L361>:
   11340:	10804013 	add	v0,v0,16
   11344:	fffd7f67 	j	10940 <$L176>

0000000000011348 <$L399>:
   11348:	16400793 	and	v0,s5,1
   1134c:	f88008e3 	bnez	v0,11250 <$L217>

0000000000011350 <$LM322>:
   11350:	1780c103 	lw	v0,48(sp)
   11354:	2780d103 	lw	a0,52(sp)
   11358:	3f970183 	ld	a3,1472(sp)
   1135c:	1080041b 	addw	v0,v0,1
   11360:	2100041b 	addw	a0,a0,1
   11364:	18802113 	slt	v1,v0,8
   11368:	28000413 	li	a1,1
   1136c:	0784c123 	sw	v0,48(sp)
   11370:	050e01a3 	sd	a3,0(s0)
   11374:	050a21a3 	sd	a1,8(s0)
   11378:	0788d123 	sw	a0,52(sp)

000000000001137c <$LVL239>:
   1137c:	15004013 	add	v0,s0,16
   11380:	f8c118e3 	bnez	v1,1130c <$L225>

0000000000011384 <$L231>:
   11384:	26000013 	move	a0,s4
   11388:	2d800013 	move	a1,s2
   1138c:	3780a013 	add	a2,sp,40
   11390:	0014226f 	jal	16418 <__sprint_r>
   11394:	c080e0e3 	bnez	v0,10c04 <$L350>

0000000000011398 <$LM324>:
   11398:	15c00013 	move	v0,s3
   1139c:	ffffdc67 	j	1130c <$L225>

00000000000113a0 <$L378>:
   113a0:	26000013 	move	a0,s4
   113a4:	2d800013 	move	a1,s2
   113a8:	3780a013 	add	a2,sp,40
   113ac:	00141b6f 	jal	16418 <__sprint_r>
   113b0:	c080a8e3 	bnez	v0,10c04 <$L350>

00000000000113b4 <$LM326>:
   113b4:	a5c00013 	move	s0,s3

00000000000113b8 <$LVL242>:
   113b8:	fffd0667 	j	107d0 <$L158>

00000000000113bc <$L379>:
   113bc:	26000013 	move	a0,s4
   113c0:	2d800013 	move	a1,s2
   113c4:	3780a013 	add	a2,sp,40
   113c8:	0014146f 	jal	16418 <__sprint_r>
   113cc:	c08070e3 	bnez	v0,10c04 <$L350>

00000000000113d0 <$LM328>:
   113d0:	a5c00013 	move	s0,s3

00000000000113d4 <$LVL244>:
   113d4:	fffd0e67 	j	1080c <$L160>

00000000000113d8 <$L393>:
   113d8:	3797a183 	ld	a2,1512(sp)
   113dc:	5faf01a3 	sd	s3,1472(sp)
   113e0:	1dc00013 	move	v1,s3

00000000000113e4 <$L143>:
   113e4:	20803f93 	and	a0,v0,15
   113e8:	21880033 	add	a0,a2,a0
   113ec:	21000203 	lbu	a0,0(a0)
   113f0:	18fffc13 	add	v1,v1,-1

00000000000113f4 <$LM331>:
   113f4:	10801293 	srl	v0,v0,0x4

00000000000113f8 <$LM332>:
   113f8:	00c80023 	sb	a0,0(v1)

00000000000113fc <$LM333>:
   113fc:	f881d0e3 	bnez	v0,113e4 <$L143>

0000000000011400 <$LM334>:
   11400:	15c70033 	sub	v0,s3,v1

0000000000011404 <$LVL249>:
   11404:	1080009b 	sllw	v0,v0,0x0
   11408:	5f8701a3 	sd	v1,1472(sp)
   1140c:	5f84a1a3 	sd	v0,1448(sp)
   11410:	fffc9767 	j	1066c <$L147>

0000000000011414 <$L272>:
   11414:	5f80a1a3 	sd	zero,1448(sp)

0000000000011418 <$LM336>:
   11418:	5faf01a3 	sd	s3,1472(sp)
   1141c:	fffc9467 	j	1066c <$L147>

0000000000011420 <$L142>:
   11420:	18802993 	sltu	v1,v0,10

0000000000011424 <$LM338>:
   11424:	25c00013 	move	a0,s3

0000000000011428 <$LM339>:
   11428:	38c1a0e3 	bnez	v1,11bf8 <$L402>

000000000001142c <$L282>:
   1142c:	37e666b7 	lui	a2,0xfcccd
   11430:	31b33413 	add	a2,a2,-819
   11434:	31803093 	sll	a2,a2,0xc
   11438:	31b33413 	add	a2,a2,-819
   1143c:	31803093 	sll	a2,a2,0xc
   11440:	31b33413 	add	a2,a2,-819
   11444:	31803093 	sll	a2,a2,0xc
   11448:	31b33413 	add	a2,a2,-819
   1144c:	188c05b3 	mulhu	v1,v0,a2
   11450:	213ffc13 	add	a0,a0,-1

0000000000011454 <$LVL254>:
   11454:	18c00e93 	srl	v1,v1,0x3
   11458:	38c00493 	sll	a3,v1,0x1
   1145c:	30c00c93 	sll	a2,v1,0x3
   11460:	31cc0033 	add	a2,a3,a2
   11464:	308d0033 	sub	a2,v0,a2
   11468:	3180009b 	sllw	a2,a2,0x0

000000000001146c <$LM341>:
   1146c:	10c00013 	move	v0,v1

0000000000011470 <$LM342>:
   11470:	3180c01b 	addw	a2,a2,48

0000000000011474 <$LM343>:
   11474:	18c02993 	sltu	v1,v1,10

0000000000011478 <$LM344>:
   11478:	010c0023 	sb	a2,0(a0)

000000000001147c <$LM345>:
   1147c:	f8c16063 	beqz	v1,1142c <$L282>
   11480:	393ffc13 	add	a3,a0,-1
   11484:	5f8f01a3 	sd	a3,1472(sp)

0000000000011488 <$L145>:
   11488:	3f970183 	ld	a3,1472(sp)
   1148c:	1880009b 	sllw	v1,v0,0x0
   11490:	18c0c01b 	addw	v1,v1,48
   11494:	15cf0033 	sub	v0,s3,a3

0000000000011498 <$LVL258>:
   11498:	1080009b 	sllw	v0,v0,0x0
   1149c:	f907fc23 	sb	v1,-1(a0)
   114a0:	5f84a1a3 	sd	v0,1448(sp)

00000000000114a4 <$LM347>:
   114a4:	fffc7267 	j	1066c <$L147>

00000000000114a8 <$L178>:
   114a8:	1f804103 	lw	v1,16(sp)
   114ac:	2006e2e3 	blez	v1,1191c <$L403>

00000000000114b0 <$LM349>:
   114b0:	3f976183 	ld	a3,1496(sp)
   114b4:	e0cf9263 	blt	v1,a3,1117c <$L202>

00000000000114b8 <$LM350>:
   114b8:	3f970183 	ld	a3,1472(sp)
   114bc:	1780c103 	lw	v0,48(sp)
   114c0:	2f80d103 	lw	a1,52(sp)
   114c4:	050e01a3 	sd	a3,0(s0)
   114c8:	3f976183 	ld	a3,1496(sp)
   114cc:	1080041b 	addw	v0,v0,1
   114d0:	20802113 	slt	a0,v0,8
   114d4:	294e003b 	addw	a1,a1,a3
   114d8:	0784c123 	sw	v0,48(sp)
   114dc:	050e21a3 	sd	a3,8(s0)
   114e0:	078ad123 	sw	a1,52(sp)

00000000000114e4 <$LVL260>:
   114e4:	15004013 	add	v0,s0,16
   114e8:	4101e063 	beqz	a0,11dd8 <$L404>

00000000000114ec <$L204>:
   114ec:	3f976183 	ld	a3,1496(sp)
   114f0:	18cf003b 	subw	v1,v1,a3

00000000000114f4 <$LVL262>:
   114f4:	d0c00013 	move	s6,v1
   114f8:	180782e3 	blez	v1,118b8 <$L205>
   114fc:	d8000cb7 	lui	s7,0x19

0000000000011500 <$LM352>:
   11500:	18c04513 	slt	v1,v1,17

0000000000011504 <$LVL263>:
   11504:	ded50013 	add	s7,s7,1344
   11508:	a0004013 	li	s0,16
   1150c:	00c02863 	beqz	v1,11520 <$L209>
   11510:	0000d967 	j	11874 <$L206>

0000000000011514 <$L208>:
   11514:	d6bfc01b 	addw	s6,s6,-16
   11518:	1e804513 	slt	v1,s6,17

000000000001151c <$LVL265>:
   1151c:	18c0b0e3 	bnez	v1,11874 <$L206>

0000000000011520 <$L209>:
   11520:	1f80c103 	lw	v1,48(sp)
   11524:	2f80d103 	lw	a1,52(sp)
   11528:	00b601a3 	sd	s7,0(v0)
   1152c:	18c0041b 	addw	v1,v1,1
   11530:	2940401b 	addw	a1,a1,16
   11534:	20c02113 	slt	a0,v1,8
   11538:	00a821a3 	sd	s0,8(v0)
   1153c:	078ad123 	sw	a1,52(sp)

0000000000011540 <$LVL267>:
   11540:	0786c123 	sw	v1,48(sp)
   11544:	10804013 	add	v0,v0,16

0000000000011548 <$LVL268>:
   11548:	f90198e3 	bnez	a0,11514 <$L208>

000000000001154c <$LM355>:
   1154c:	26000013 	move	a0,s4
   11550:	2d800013 	move	a1,s2
   11554:	3780a013 	add	a2,sp,40
   11558:	0013b06f 	jal	16418 <__sprint_r>

000000000001155c <$LVL269>:
   1155c:	b08150e3 	bnez	v0,10c04 <$L350>

0000000000011560 <$LM356>:
   11560:	15c00013 	move	v0,s3
   11564:	ffffec67 	j	11514 <$L208>

0000000000011568 <$L223>:
   11568:	3f976183 	ld	a3,1496(sp)
   1156c:	19fffc1b 	addw	v1,a3,-1

0000000000011570 <$LVL271>:
   11570:	d0c00013 	move	s6,v1
   11574:	e80732e3 	blez	v1,1130c <$L225>
   11578:	d8000cb7 	lui	s7,0x19

000000000001157c <$LM358>:
   1157c:	18c04513 	slt	v1,v1,17

0000000000011580 <$LVL272>:
   11580:	ded50013 	add	s7,s7,1344
   11584:	a0004013 	li	s0,16
   11588:	00c02863 	beqz	v1,1159c <$L229>
   1158c:	00002d67 	j	11640 <$L226>

0000000000011590 <$L228>:
   11590:	d6bfc01b 	addw	s6,s6,-16
   11594:	1e804513 	slt	v1,s6,17

0000000000011598 <$LVL274>:
   11598:	00c150e3 	bnez	v1,11640 <$L226>

000000000001159c <$L229>:
   1159c:	1f80c103 	lw	v1,48(sp)
   115a0:	2f80d103 	lw	a1,52(sp)
   115a4:	00b601a3 	sd	s7,0(v0)
   115a8:	18c0041b 	addw	v1,v1,1
   115ac:	2940401b 	addw	a1,a1,16
   115b0:	20c02113 	slt	a0,v1,8
   115b4:	00a821a3 	sd	s0,8(v0)
   115b8:	078ad123 	sw	a1,52(sp)

00000000000115bc <$LVL276>:
   115bc:	0786c123 	sw	v1,48(sp)
   115c0:	10804013 	add	v0,v0,16

00000000000115c4 <$LVL277>:
   115c4:	f90198e3 	bnez	a0,11590 <$L228>

00000000000115c8 <$LM361>:
   115c8:	26000013 	move	a0,s4
   115cc:	2d800013 	move	a1,s2
   115d0:	3780a013 	add	a2,sp,40
   115d4:	0013916f 	jal	16418 <__sprint_r>

00000000000115d8 <$LVL278>:
   115d8:	b08058e3 	bnez	v0,10c04 <$L350>

00000000000115dc <$LM362>:
   115dc:	15c00013 	move	v0,s3
   115e0:	ffffec67 	j	11590 <$L228>

00000000000115e4 <$L146>:
   115e4:	1000c013 	li	v0,48
   115e8:	29041063 	beq	a0,v0,11af0 <$L405>

00000000000115ec <$LM364>:
   115ec:	38fff813 	add	a3,v1,-2
   115f0:	25cf0033 	sub	a0,s3,a3
   115f4:	2100009b 	sllw	a0,a0,0x0
   115f8:	5f8f01a3 	sd	a3,1472(sp)

00000000000115fc <$LVL280>:
   115fc:	f8c5f823 	sb	v0,-2(v1)
   11600:	5f88a1a3 	sd	a0,1448(sp)
   11604:	fffc1a67 	j	1066c <$L147>

0000000000011608 <$L400>:
   11608:	26000013 	move	a0,s4
   1160c:	2d800013 	move	a1,s2
   11610:	3780a013 	add	a2,sp,40
   11614:	0013816f 	jal	16418 <__sprint_r>

0000000000011618 <$LVL282>:
   11618:	a881d8e3 	bnez	v0,10c04 <$L350>

000000000001161c <$LM366>:
   1161c:	15c00013 	move	v0,s3
   11620:	ffff1967 	j	11284 <$L220>

0000000000011624 <$L401>:
   11624:	26000013 	move	a0,s4
   11628:	2d800013 	move	a1,s2
   1162c:	3780a013 	add	a2,sp,40
   11630:	00137a6f 	jal	16418 <__sprint_r>

0000000000011634 <$LVL284>:
   11634:	a881a0e3 	bnez	v0,10c04 <$L350>

0000000000011638 <$LM368>:
   11638:	15c00013 	move	v0,s3
   1163c:	ffff2167 	j	112c0 <$L222>

0000000000011640 <$L226>:
   11640:	1f80c103 	lw	v1,48(sp)
   11644:	2f80d103 	lw	a1,52(sp)
   11648:	00b601a3 	sd	s7,0(v0)
   1164c:	18c0041b 	addw	v1,v1,1
   11650:	2974003b 	addw	a1,a1,s6
   11654:	20c02113 	slt	a0,v1,8
   11658:	00b421a3 	sd	s6,8(v0)
   1165c:	078ad123 	sw	a1,52(sp)

0000000000011660 <$LVL286>:
   11660:	0786c123 	sw	v1,48(sp)
   11664:	e10148e3 	bnez	a0,11308 <$L359>
   11668:	ffff4767 	j	11384 <$L231>

000000000001166c <$L60>:
   1166c:	1800b413 	li	v1,45
   11670:	07860023 	sb	v1,0(sp)

0000000000011674 <$LM371>:
   11674:	10050033 	neg	v0,v0

0000000000011678 <$LM372>:
   11678:	2800b413 	li	a1,45

000000000001167c <$LM373>:
   1167c:	18000413 	li	v1,1
   11680:	fffbed67 	j	10634 <$L61>

0000000000011684 <$L64>:
   11684:	652850d3 	fsgnj.d	ft2,fs0,fs0
   11688:	0012ad6f 	jal	1613c <__fpclassifyd>
   1168c:	18814063 	beqz	v0,11a2c <$L406>

0000000000011690 <$LM375>:
   11690:	103ffc13 	li	v0,-1
   11694:	40b65863 	beq	v0,s7,11ec0 <$L256>

0000000000011698 <$LM376>:
   11698:	10019c13 	li	v0,103
   1169c:	40b43063 	beq	v0,s6,11eb4 <$L72>

00000000000116a0 <$LM377>:
   116a0:	10011c13 	li	v0,71
   116a4:	40b42063 	beq	v0,s6,11eb4 <$L72>

00000000000116a8 <$L71>:
   116a8:	1501c0d3 	mftx.d	v0,fs0

00000000000116ac <$LBE18>:
   116ac:	1e440313 	or	v1,s5,256

00000000000116b0 <$LBB20>:
   116b0:	10818293 	sra	v0,v0,0x20

00000000000116b4 <$LBE20>:
   116b4:	c8c00013 	move	s5,v1

00000000000116b8 <$LBB21>:
   116b8:	40802263 	bltz	v0,11ec8 <$L407>
   116bc:	ad2850d3 	fsgnj.d	fs1,fs0,fs0

00000000000116c0 <$LM383>:
   116c0:	5f80c1a3 	sd	zero,1456(sp)

00000000000116c4 <$L73>:
   116c4:	10019813 	li	v0,102
   116c8:	38b4a863 	beq	v0,s6,11e1c <$L74>
   116cc:	10011813 	li	v0,70
   116d0:	40b46063 	beq	v0,s6,11f00 <$L75>

00000000000116d4 <$LM385>:
   116d4:	10019413 	li	v0,101
   116d8:	40b40063 	beq	v0,s6,11ed8 <$L76>
   116dc:	10011413 	li	v0,69
   116e0:	2ec00013 	move	a1,s7
   116e4:	38b5e863 	beq	v0,s6,11ed8 <$L76>

00000000000116e8 <$L77>:
   116e8:	6d6a50d3 	fsgnj.d	ft3,fs1,fs1
   116ec:	39400013 	move	a3,a1
   116f0:	26000013 	move	a0,s4
   116f4:	30000813 	li	a2,2
   116f8:	47804013 	add	a4,sp,16
   116fc:	4f803013 	add	a5,sp,12
   11700:	57808013 	add	a6,sp,32
   11704:	678601a3 	sd	v1,1536(sp)
   11708:	5f8be1a3 	sd	a1,1528(sp)
   1170c:	0003d26f 	jal	12654 <_dtoa_r>

0000000000011710 <$LVL296>:
   11710:	5f8501a3 	sd	v0,1472(sp)

0000000000011714 <$LM387>:
   11714:	10019c13 	li	v0,103

0000000000011718 <$LVL298>:
   11718:	1f980183 	ld	v1,1536(sp)
   1171c:	2f97e183 	ld	a1,1528(sp)
   11720:	00b41863 	beq	v0,s6,1172c <$L78>
   11724:	10011c13 	li	v0,71
   11728:	00b418e3 	bne	v0,s6,11734 <$L79>

000000000001172c <$L78>:
   1172c:	10c00793 	and	v0,v1,1
   11730:	38819063 	beqz	v0,11ef8 <$L408>

0000000000011734 <$L79>:
   11734:	3f970183 	ld	a3,1472(sp)
   11738:	21ca0033 	add	a0,a3,a1

000000000001173c <$L244>:
   1173c:	10011813 	li	v0,70
   11740:	38b42063 	beq	v0,s6,11e50 <$L243>

0000000000011744 <$L81>:
   11744:	1001e0d3 	mxtf.d	fv0,zero
   11748:	154550d3 	feq.d	v0,fs1,fv0
   1174c:	30816063 	beqz	v0,11dfc <$L85>

0000000000011750 <$LM391>:
   11750:	078881a3 	sd	a0,32(sp)

0000000000011754 <$L80>:
   11754:	3f970183 	ld	a3,1472(sp)

0000000000011758 <$LBE21>:
   11758:	10019c13 	li	v0,103

000000000001175c <$LBB22>:
   1175c:	210f0033 	sub	a0,a0,a3
   11760:	2900009b 	sllw	a1,a0,0x0
   11764:	39400013 	move	a3,a1
   11768:	5f8f61a3 	sd	a3,1496(sp)

000000000001176c <$LBE22>:
   1176c:	28b41063 	beq	v0,s6,11c74 <$L87>

0000000000011770 <$LM396>:
   11770:	10011c13 	li	v0,71
   11774:	28b40063 	beq	v0,s6,11c74 <$L87>

0000000000011778 <$LM397>:
   11778:	3f804103 	lw	a3,16(sp)
   1177c:	10019813 	li	v0,102
   11780:	5f8ea1a3 	sd	a3,1448(sp)
   11784:	28b410e3 	bne	v0,s6,11c8c <$L91>

0000000000011788 <$LM398>:
   11788:	400e8ae3 	blez	a3,11fcc <$L103>

000000000001178c <$LM399>:
   1178c:	46c060e3 	bnez	s7,11fbc <$L104>

0000000000011790 <$LM400>:
   11790:	18c00793 	and	v1,v1,1
   11794:	40c050e3 	bnez	v1,11fbc <$L104>

0000000000011798 <$LM401>:
   11798:	11c00013 	move	v0,a3

000000000001179c <$L354>:
   1179c:	18bffe13 	not	v1,v0
   117a0:	18c17e9b 	sraw	v1,v1,0x1f
   117a4:	108603b3 	and	v0,v0,v1
   117a8:	5f8441a3 	sd	v0,1424(sp)

00000000000117ac <$L101>:
   117ac:	1f96c183 	ld	v1,1456(sp)
   117b0:	20c0a863 	beqz	v1,11c04 <$L115>

00000000000117b4 <$LM403>:
   117b4:	1000b413 	li	v0,45
   117b8:	07840023 	sb	v0,0(sp)

00000000000117bc <$LM404>:
   117bc:	5f8121a3 	sd	zero,1480(sp)
   117c0:	fffbb267 	j	10688 <$L116>

00000000000117c4 <$L184>:
   117c4:	1f80c103 	lw	v1,48(sp)
   117c8:	2f80d103 	lw	a1,52(sp)
   117cc:	00b601a3 	sd	s7,0(v0)
   117d0:	18c0041b 	addw	v1,v1,1
   117d4:	2974003b 	addw	a1,a1,s6
   117d8:	20c02113 	slt	a0,v1,8
   117dc:	00b421a3 	sd	s6,8(v0)
   117e0:	078ad123 	sw	a1,52(sp)

00000000000117e4 <$LVL307>:
   117e4:	0786c123 	sw	v1,48(sp)
   117e8:	d1008063 	beqz	a0,11228 <$L232>

00000000000117ec <$LM406>:
   117ec:	10804013 	add	v0,v0,16

00000000000117f0 <$LVL308>:
   117f0:	fffc5467 	j	10940 <$L176>

00000000000117f4 <$L134>:
   117f4:	27966183 	ld	a0,1432(sp)
   117f8:	10c00303 	lwu	v0,0(v1)

00000000000117fc <$LM408>:
   117fc:	18000413 	li	v1,1

0000000000011800 <$LM409>:
   11800:	21002013 	add	a0,a0,8
   11804:	5f8861a3 	sd	a0,1432(sp)
   11808:	fffcaa67 	j	10ab0 <$L121>

000000000001180c <$L137>:
   1180c:	10c00303 	lwu	v0,0(v1)
   11810:	18c02013 	add	v1,v1,8
   11814:	5f8661a3 	sd	v1,1432(sp)
   11818:	fffd5067 	j	10d58 <$L136>

000000000001181c <$L117>:
   1181c:	1f966183 	ld	v1,1432(sp)

0000000000011820 <$LM412>:
   11820:	ce410393 	and	s5,s5,64

0000000000011824 <$LM413>:
   11824:	10c00183 	ld	v0,0(v1)
   11828:	18c02013 	add	v1,v1,8
   1182c:	5f8661a3 	sd	v1,1432(sp)
   11830:	1f968183 	ld	v1,1440(sp)

0000000000011834 <$LM414>:
   11834:	16405863 	beqz	s5,11a60 <$L119>

0000000000011838 <$LM415>:
   11838:	008600a3 	sh	v1,0(v0)
   1183c:	fffb3067 	j	104fc <$L301>

0000000000011840 <$L59>:
   11840:	10c00103 	lw	v0,0(v1)
   11844:	18c02013 	add	v1,v1,8
   11848:	5f8661a3 	sd	v1,1432(sp)
   1184c:	fffb7667 	j	10624 <$L58>

0000000000011850 <$L122>:
   11850:	27966183 	ld	a0,1432(sp)
   11854:	10c00303 	lwu	v0,0(v1)

0000000000011858 <$LM418>:
   11858:	18000013 	li	v1,0

000000000001185c <$LM419>:
   1185c:	21002013 	add	a0,a0,8
   11860:	5f8861a3 	sd	a0,1432(sp)
   11864:	fffc9367 	j	10ab0 <$L121>

0000000000011868 <$L381>:
   11868:	d8000cb7 	lui	s7,0x19
   1186c:	ded50013 	add	s7,s7,1344
   11870:	fffc1367 	j	108bc <$L169>

0000000000011874 <$L206>:
   11874:	1f80c103 	lw	v1,48(sp)
   11878:	2f80d103 	lw	a1,52(sp)
   1187c:	00b601a3 	sd	s7,0(v0)
   11880:	18c0041b 	addw	v1,v1,1
   11884:	2974003b 	addw	a1,a1,s6
   11888:	20c02113 	slt	a0,v1,8
   1188c:	00b421a3 	sd	s6,8(v0)
   11890:	078ad123 	sw	a1,52(sp)

0000000000011894 <$LVL318>:
   11894:	0786c123 	sw	v1,48(sp)
   11898:	10804013 	add	v0,v0,16

000000000001189c <$LVL319>:
   1189c:	010038e3 	bnez	a0,118b8 <$L205>

00000000000118a0 <$LM421>:
   118a0:	26000013 	move	a0,s4
   118a4:	2d800013 	move	a1,s2
   118a8:	3780a013 	add	a2,sp,40
   118ac:	0012db6f 	jal	16418 <__sprint_r>

00000000000118b0 <$LVL320>:
   118b0:	9880a8e3 	bnez	v0,10c04 <$L350>

00000000000118b4 <$LM422>:
   118b4:	15c00013 	move	v0,s3

00000000000118b8 <$L205>:
   118b8:	1e400793 	and	v1,s5,1
   118bc:	80c10863 	beqz	v1,10940 <$L176>

00000000000118c0 <$LM424>:
   118c0:	1f978183 	ld	v1,1504(sp)
   118c4:	2f80d103 	lw	a1,52(sp)
   118c8:	37974183 	ld	a2,1488(sp)
   118cc:	20c0009b 	sllw	a0,v1,0x0
   118d0:	1f80c103 	lw	v1,48(sp)
   118d4:	3f978183 	ld	a3,1504(sp)
   118d8:	2948003b 	addw	a1,a1,a0
   118dc:	18c0041b 	addw	v1,v1,1
   118e0:	20c02113 	slt	a0,v1,8
   118e4:	008e21a3 	sd	a3,8(v0)
   118e8:	008c01a3 	sd	a2,0(v0)
   118ec:	078ad123 	sw	a1,52(sp)

00000000000118f0 <$LVL322>:
   118f0:	0786c123 	sw	v1,48(sp)
   118f4:	c9006863 	beqz	a0,11228 <$L232>

00000000000118f8 <$LM425>:
   118f8:	10804013 	add	v0,v0,16

00000000000118fc <$LVL323>:
   118fc:	fffc1167 	j	10940 <$L176>

0000000000011900 <$L394>:
   11900:	26000013 	move	a0,s4
   11904:	2d800013 	move	a1,s2
   11908:	3780a013 	add	a2,sp,40
   1190c:	0012c36f 	jal	16418 <__sprint_r>

0000000000011910 <$LVL324>:
   11910:	9081e8e3 	bnez	v0,10c04 <$L350>

0000000000011914 <$LM427>:
   11914:	15c00013 	move	v0,s3
   11918:	fffdad67 	j	10fcc <$L180>

000000000001191c <$L403>:
   1191c:	1780c103 	lw	v0,48(sp)
   11920:	2f80d103 	lw	a1,52(sp)
   11924:	30000d37 	lui	a2,0x1a
   11928:	1080041b 	addw	v0,v0,1
   1192c:	31aa8013 	add	a2,a2,-1376
   11930:	2940041b 	addw	a1,a1,1
   11934:	20802113 	slt	a0,v0,8
   11938:	050c01a3 	sd	a2,0(s0)
   1193c:	30000413 	li	a2,1
   11940:	0784c123 	sw	v0,48(sp)
   11944:	050c21a3 	sd	a2,8(s0)
   11948:	078ad123 	sw	a1,52(sp)

000000000001194c <$LVL326>:
   1194c:	15004013 	add	v0,s0,16
   11950:	09009863 	beqz	a0,11a9c <$L409>

0000000000011954 <$LM429>:
   11954:	08c06063 	beqz	v1,11a84 <$L410>

0000000000011958 <$L192>:
   11958:	27978183 	ld	a0,1504(sp)
   1195c:	3f974183 	ld	a3,1488(sp)
   11960:	3780d103 	lw	a2,52(sp)
   11964:	2900009b 	sllw	a1,a0,0x0
   11968:	2780c103 	lw	a0,48(sp)
   1196c:	008e01a3 	sd	a3,0(v0)
   11970:	3f978183 	ld	a3,1504(sp)
   11974:	2100041b 	addw	a0,a0,1
   11978:	318a003b 	addw	a2,a2,a1
   1197c:	29002113 	slt	a1,a0,8
   11980:	008e21a3 	sd	a3,8(v0)
   11984:	078cd123 	sw	a2,52(sp)

0000000000011988 <$LVL328>:
   11988:	0788c123 	sw	a0,48(sp)
   1198c:	10804013 	add	v0,v0,16

0000000000011990 <$LVL329>:
   11990:	29400063 	beqz	a1,11e90 <$L411>

0000000000011994 <$L194>:
   11994:	1807003b 	neg	v1,v1

0000000000011998 <$LVL331>:
   11998:	a0c00013 	move	s0,v1
   1199c:	08075ae3 	blez	v1,11b48 <$L195>
   119a0:	d8000cb7 	lui	s7,0x19

00000000000119a4 <$LM432>:
   119a4:	18c04513 	slt	v1,v1,17

00000000000119a8 <$LVL332>:
   119a8:	ded50013 	add	s7,s7,1344
   119ac:	d0004013 	li	s6,16
   119b0:	00c02863 	beqz	v1,119c4 <$L199>
   119b4:	00005467 	j	11b04 <$L196>

00000000000119b8 <$L198>:
   119b8:	a53fc01b 	addw	s0,s0,-16
   119bc:	1d004513 	slt	v1,s0,17

00000000000119c0 <$LVL334>:
   119c0:	08c088e3 	bnez	v1,11b04 <$L196>

00000000000119c4 <$L199>:
   119c4:	1f80c103 	lw	v1,48(sp)
   119c8:	2f80d103 	lw	a1,52(sp)
   119cc:	00b601a3 	sd	s7,0(v0)
   119d0:	18c0041b 	addw	v1,v1,1
   119d4:	2940401b 	addw	a1,a1,16
   119d8:	20c02113 	slt	a0,v1,8
   119dc:	00b421a3 	sd	s6,8(v0)
   119e0:	078ad123 	sw	a1,52(sp)

00000000000119e4 <$LVL336>:
   119e4:	0786c123 	sw	v1,48(sp)
   119e8:	10804013 	add	v0,v0,16

00000000000119ec <$LVL337>:
   119ec:	f90198e3 	bnez	a0,119b8 <$L198>

00000000000119f0 <$LM435>:
   119f0:	26000013 	move	a0,s4
   119f4:	2d800013 	move	a1,s2
   119f8:	3780a013 	add	a2,sp,40
   119fc:	0012876f 	jal	16418 <__sprint_r>

0000000000011a00 <$LVL338>:
   11a00:	908008e3 	bnez	v0,10c04 <$L350>

0000000000011a04 <$LM436>:
   11a04:	15c00013 	move	v0,s3
   11a08:	ffffec67 	j	119b8 <$L198>

0000000000011a0c <$L129>:
   11a0c:	20bffe13 	not	a0,v0
   11a10:	21017e9b 	sraw	a0,a0,0x1f
   11a14:	108803b3 	and	v0,v0,a0

0000000000011a18 <$LVL340>:
   11a18:	5f8441a3 	sd	v0,1424(sp)
   11a1c:	2f800003 	lb	a1,0(sp)

0000000000011a20 <$LM438>:
   11a20:	5f8661a3 	sd	v1,1432(sp)

0000000000011a24 <$LM439>:
   11a24:	5f8121a3 	sd	zero,1480(sp)
   11a28:	fffb1767 	j	10684 <$L68>

0000000000011a2c <$L406>:
   11a2c:	16812113 	slt	v0,s6,72
   11a30:	10806863 	beqz	v0,11c64 <$L255>

0000000000011a34 <$LM441>:
   11a34:	10000d37 	lui	v0,0x1a
   11a38:	10a96013 	add	v0,v0,-1448
   11a3c:	5f8501a3 	sd	v0,1472(sp)

0000000000011a40 <$L70>:
   11a40:	2f800003 	lb	a1,0(sp)
   11a44:	ce7dff93 	and	s5,s5,-129

0000000000011a48 <$L357>:
   11a48:	38000c13 	li	a3,3

0000000000011a4c <$LM444>:
   11a4c:	18000c13 	li	v1,3

0000000000011a50 <$LM445>:
   11a50:	5f8e41a3 	sd	a3,1424(sp)

0000000000011a54 <$LM446>:
   11a54:	5f86a1a3 	sd	v1,1448(sp)

0000000000011a58 <$LM447>:
   11a58:	5f8121a3 	sd	zero,1480(sp)

0000000000011a5c <$LM448>:
   11a5c:	fffb0a67 	j	10684 <$L68>

0000000000011a60 <$L119>:
   11a60:	00860123 	sw	v1,0(v0)
   11a64:	fffaa667 	j	104fc <$L301>

0000000000011a68 <$L65>:
   11a68:	1000b413 	li	v0,45
   11a6c:	07840023 	sb	v0,0(sp)
   11a70:	2800b413 	li	a1,45
   11a74:	fffd2067 	j	10ef4 <$L66>

0000000000011a78 <$L391>:
   11a78:	183ffc13 	li	v1,-1
   11a7c:	d8c00013 	move	s7,v1

0000000000011a80 <$LVL347>:
   11a80:	fffac767 	j	1059c <$L300>

0000000000011a84 <$L410>:
   11a84:	3f976183 	ld	a3,1496(sp)
   11a88:	f1c1a0e3 	bnez	a3,11958 <$L192>
   11a8c:	26400793 	and	a0,s5,1
   11a90:	010010e3 	bnez	a0,11a98 <$L422>
   11a94:	fffbab67 	j	10940 <$L176>

0000000000011a98 <$L422>:
   11a98:	ffffb067 	j	11958 <$L192>

0000000000011a9c <$L409>:
   11a9c:	26000013 	move	a0,s4
   11aa0:	2d800013 	move	a1,s2
   11aa4:	3780a013 	add	a2,sp,40
   11aa8:	00125c6f 	jal	16418 <__sprint_r>
   11aac:	8880b0e3 	bnez	v0,10c04 <$L350>

0000000000011ab0 <$LM454>:
   11ab0:	1f804103 	lw	v1,16(sp)
   11ab4:	15c00013 	move	v0,s3

0000000000011ab8 <$LM455>:
   11ab8:	f0c140e3 	bnez	v1,11958 <$L192>
   11abc:	fffff267 	j	11a84 <$L410>

0000000000011ac0 <$L395>:
   11ac0:	26000013 	move	a0,s4
   11ac4:	2d800013 	move	a1,s2
   11ac8:	3780a013 	add	a2,sp,40
   11acc:	0012536f 	jal	16418 <__sprint_r>

0000000000011ad0 <$LVL352>:
   11ad0:	888068e3 	bnez	v0,10c04 <$L350>

0000000000011ad4 <$LM457>:
   11ad4:	15c00013 	move	v0,s3
   11ad8:	fffd5167 	j	1101c <$L183>

0000000000011adc <$L254>:
   11adc:	10000d37 	lui	v0,0x1a
   11ae0:	10a94013 	add	v0,v0,-1456
   11ae4:	5f8501a3 	sd	v0,1472(sp)

0000000000011ae8 <$LM459>:
   11ae8:	ce7dff93 	and	s5,s5,-129

0000000000011aec <$LVL355>:
   11aec:	ffffd767 	j	11a48 <$L357>

0000000000011af0 <$L405>:
   11af0:	1f970183 	ld	v1,1472(sp)
   11af4:	15c70033 	sub	v0,s3,v1
   11af8:	1080009b 	sllw	v0,v0,0x0
   11afc:	5f84a1a3 	sd	v0,1448(sp)
   11b00:	fffadb67 	j	1066c <$L147>

0000000000011b04 <$L196>:
   11b04:	1f80c103 	lw	v1,48(sp)
   11b08:	2f80d103 	lw	a1,52(sp)
   11b0c:	00b601a3 	sd	s7,0(v0)
   11b10:	18c0041b 	addw	v1,v1,1
   11b14:	2968003b 	addw	a1,a1,s0
   11b18:	20c02113 	slt	a0,v1,8
   11b1c:	00a821a3 	sd	s0,8(v0)
   11b20:	078ad123 	sw	a1,52(sp)

0000000000011b24 <$LVL358>:
   11b24:	0786c123 	sw	v1,48(sp)
   11b28:	10804013 	add	v0,v0,16

0000000000011b2c <$LVL359>:
   11b2c:	010038e3 	bnez	a0,11b48 <$L195>

0000000000011b30 <$LM462>:
   11b30:	26000013 	move	a0,s4
   11b34:	2d800013 	move	a1,s2
   11b38:	3780a013 	add	a2,sp,40
   11b3c:	0012376f 	jal	16418 <__sprint_r>

0000000000011b40 <$LVL360>:
   11b40:	808188e3 	bnez	v0,10c04 <$L350>

0000000000011b44 <$LM463>:
   11b44:	15c00013 	move	v0,s3

0000000000011b48 <$L195>:
   11b48:	1f970183 	ld	v1,1472(sp)
   11b4c:	2f80d103 	lw	a1,52(sp)
   11b50:	3f976183 	ld	a3,1496(sp)
   11b54:	008601a3 	sd	v1,0(v0)
   11b58:	1f80c103 	lw	v1,48(sp)
   11b5c:	294e003b 	addw	a1,a1,a3
   11b60:	008e21a3 	sd	a3,8(v0)
   11b64:	18c0041b 	addw	v1,v1,1
   11b68:	20c02113 	slt	a0,v1,8
   11b6c:	078ad123 	sw	a1,52(sp)

0000000000011b70 <$LVL362>:
   11b70:	0786c123 	sw	v1,48(sp)
   11b74:	b1016863 	beqz	a0,11228 <$L232>

0000000000011b78 <$LM465>:
   11b78:	10804013 	add	v0,v0,16

0000000000011b7c <$LVL363>:
   11b7c:	fffb7167 	j	10940 <$L176>

0000000000011b80 <$L126>:
   11b80:	678601a3 	sd	v1,1536(sp)
   11b84:	0012036f 	jal	16390 <strlen>

0000000000011b88 <$LVL365>:
   11b88:	1080009b 	sllw	v0,v0,0x0
   11b8c:	20bffe13 	not	a0,v0

0000000000011b90 <$LM467>:
   11b90:	1f980183 	ld	v1,1536(sp)

0000000000011b94 <$LM468>:
   11b94:	21017e9b 	sraw	a0,a0,0x1f
   11b98:	208803b3 	and	a0,v0,a0
   11b9c:	5f84a1a3 	sd	v0,1448(sp)

0000000000011ba0 <$LVL366>:
   11ba0:	5f8841a3 	sd	a0,1424(sp)
   11ba4:	2f800003 	lb	a1,0(sp)

0000000000011ba8 <$LM469>:
   11ba8:	5f8661a3 	sd	v1,1432(sp)

0000000000011bac <$LM470>:
   11bac:	5f8121a3 	sd	zero,1480(sp)
   11bb0:	fffab567 	j	10684 <$L68>

0000000000011bb4 <$L390>:
   11bb4:	16c01d93 	sltu	v0,s7,7
   11bb8:	008010e3 	bnez	v0,11bc0 <$L124>
   11bbc:	d8001813 	li	s7,6

0000000000011bc0 <$L124>:
   11bc0:	16fffe13 	not	v0,s7
   11bc4:	10817e9b 	sraw	v0,v0,0x1f
   11bc8:	16c403b3 	and	v0,s7,v0
   11bcc:	5f8441a3 	sd	v0,1424(sp)

0000000000011bd0 <$LM472>:
   11bd0:	10000d37 	lui	v0,0x1a
   11bd4:	10aa6013 	add	v0,v0,-1384

0000000000011bd8 <$LM473>:
   11bd8:	5fb6a1a3 	sd	s7,1448(sp)

0000000000011bdc <$LM474>:
   11bdc:	5f8661a3 	sd	v1,1432(sp)

0000000000011be0 <$LM475>:
   11be0:	5f8501a3 	sd	v0,1472(sp)

0000000000011be4 <$LM476>:
   11be4:	5f8121a3 	sd	zero,1480(sp)
   11be8:	fffaab67 	j	10694 <$L150>

0000000000011bec <$L383>:
   11bec:	18000cb7 	lui	v1,0x19
   11bf0:	18d4c013 	add	v1,v1,1328
   11bf4:	fffb7967 	j	109d8 <$L236>

0000000000011bf8 <$L402>:
   11bf8:	3f817c13 	add	a3,sp,95
   11bfc:	5f8f01a3 	sd	a3,1472(sp)
   11c00:	fffe2267 	j	11488 <$L145>

0000000000011c04 <$L115>:
   11c04:	2f800003 	lb	a1,0(sp)

0000000000011c08 <$LM479>:
   11c08:	5f8121a3 	sd	zero,1480(sp)
   11c0c:	fffa9e67 	j	10684 <$L68>

0000000000011c10 <$L398>:
   11c10:	26000013 	move	a0,s4
   11c14:	2d800013 	move	a1,s2
   11c18:	3780a013 	add	a2,sp,40
   11c1c:	0011ff6f 	jal	16418 <__sprint_r>

0000000000011c20 <$LVL375>:
   11c20:	00801063 	beqz	v0,11c28 <$L423>
   11c24:	fffbf867 	j	10c04 <$L350>

0000000000011c28 <$L423>:
   11c28:	1f804103 	lw	v1,16(sp)
   11c2c:	15c00013 	move	v0,s3
   11c30:	fffd6f67 	j	111ec <$L215>

0000000000011c34 <$L397>:
   11c34:	26000013 	move	a0,s4
   11c38:	2d800013 	move	a1,s2
   11c3c:	3780a013 	add	a2,sp,40
   11c40:	0011f66f 	jal	16418 <__sprint_r>
   11c44:	00801063 	beqz	v0,11c4c <$L424>
   11c48:	fffbef67 	j	10c04 <$L350>

0000000000011c4c <$L424>:
   11c4c:	1f804103 	lw	v1,16(sp)
   11c50:	2f80d103 	lw	a1,52(sp)
   11c54:	2780c103 	lw	a0,48(sp)
   11c58:	d0c00013 	move	s6,v1
   11c5c:	15c00013 	move	v0,s3
   11c60:	fffd5667 	j	111b8 <$L213>

0000000000011c64 <$L255>:
   11c64:	10000d37 	lui	v0,0x1a
   11c68:	10a98013 	add	v0,v0,-1440
   11c6c:	5f8501a3 	sd	v0,1472(sp)
   11c70:	ffff7467 	j	11a40 <$L70>

0000000000011c74 <$L87>:
   11c74:	3f804103 	lw	a3,16(sp)
   11c78:	11fff513 	slt	v0,a3,-3
   11c7c:	5f8ea1a3 	sd	a3,1448(sp)
   11c80:	008010e3 	bnez	v0,11c88 <$L89>

0000000000011c84 <$LM486>:
   11c84:	0ece42e3 	ble	a3,s7,11da4 <$L90>

0000000000011c88 <$L89>:
   11c88:	d6bff81b 	addw	s6,s6,-2

0000000000011c8c <$L91>:
   11c8c:	3f96a183 	ld	a3,1448(sp)

0000000000011c90 <$LBB31>:
   11c90:	07b46023 	sb	s6,24(sp)

0000000000011c94 <$LBE31>:
   11c94:	21fffc1b 	addw	a0,a3,-1
   11c98:	11000013 	move	v0,a0
   11c9c:	07884123 	sw	a0,16(sp)

0000000000011ca0 <$LBB33>:
   11ca0:	1101ca63 	bltz	a0,11f84 <$L412>

0000000000011ca4 <$LM492>:
   11ca4:	2000ac13 	li	a0,43

0000000000011ca8 <$LVL381>:
   11ca8:	07886423 	sb	a0,25(sp)

0000000000011cac <$L94>:
   11cac:	20802913 	slt	a0,v0,10
   11cb0:	110060e3 	bnez	a0,11ee0 <$L95>

0000000000011cb4 <$LM494>:
   11cb4:	3f839c13 	add	a3,sp,231
   11cb8:	21c00013 	move	a0,a3
   11cbc:	00000267 	j	11cc4 <$L96>

0000000000011cc0 <$L261>:
   11cc0:	22400013 	move	a0,a5

0000000000011cc4 <$L96>:
   11cc4:	48800c93 	sll	a5,v0,0x3
   11cc8:	40800493 	sll	a4,v0,0x1
   11ccc:	42510033 	sub	a4,a5,a4
   11cd0:	4a001093 	sll	a5,a4,0x4
   11cd4:	42120033 	add	a4,a4,a5
   11cd8:	4a002093 	sll	a5,a4,0x8
   11cdc:	42120033 	add	a4,a4,a5
   11ce0:	4a004093 	sll	a5,a4,0x10
   11ce4:	42120033 	add	a4,a4,a5
   11ce8:	30800013 	move	a2,v0
   11cec:	12040033 	add	v0,a4,v0

0000000000011cf0 <$LVL385>:
   11cf0:	40818293 	sra	a4,v0,0x20
   11cf4:	42010a9b 	sraw	a4,a4,0x2
   11cf8:	11817e9b 	sraw	v0,a2,0x1f
   11cfc:	1205003b 	subw	v0,a4,v0
   11d00:	4880049b 	sllw	a5,v0,0x1
   11d04:	40800c9b 	sllw	a4,v0,0x3
   11d08:	4250003b 	addw	a4,a5,a4
   11d0c:	3191003b 	subw	a2,a2,a4
   11d10:	4180c01b 	addw	a4,a2,48

0000000000011d14 <$LM496>:
   11d14:	30802913 	slt	a2,v0,10

0000000000011d18 <$LM497>:
   11d18:	493ffc13 	add	a5,a0,-1

0000000000011d1c <$LVL386>:
   11d1c:	f911fc23 	sb	a4,-1(a0)

0000000000011d20 <$LM498>:
   11d20:	f9814063 	beqz	a2,11cc0 <$L261>

0000000000011d24 <$LM499>:
   11d24:	1080c01b 	addw	v0,v0,48

0000000000011d28 <$LVL388>:
   11d28:	3080e093 	sll	a2,v0,0x38
   11d2c:	3181e293 	sra	a2,a2,0x38
   11d30:	113ff813 	add	v0,a0,-2

0000000000011d34 <$LVL389>:
   11d34:	f90df823 	sb	a2,-2(a0)

0000000000011d38 <$LM500>:
   11d38:	27806813 	add	a0,sp,26

0000000000011d3c <$LVL390>:
   11d3c:	008e1b63 	bltu	v0,a3,11d48 <$L98>
   11d40:	00000667 	j	11d58 <$L97>

0000000000011d44 <$L413>:
   11d44:	30800003 	lb	a2,0(v0)

0000000000011d48 <$L98>:
   11d48:	10800413 	add	v0,v0,1

0000000000011d4c <$LVL391>:
   11d4c:	010c0023 	sb	a2,0(a0)
   11d50:	21000413 	add	a0,a0,1

0000000000011d54 <$LVL392>:
   11d54:	f88fe363 	bltu	v0,a3,11d44 <$L413>

0000000000011d58 <$L97>:
   11d58:	17806013 	add	v0,sp,24

0000000000011d5c <$LM502>:
   11d5c:	21050033 	sub	a0,a0,v0

0000000000011d60 <$LVL395>:
   11d60:	2100009b 	sllw	a0,a0,0x0

0000000000011d64 <$LBE33>:
   11d64:	110a003b 	addw	v0,a0,a1

0000000000011d68 <$LVL396>:
   11d68:	38800013 	move	a3,v0

0000000000011d6c <$LM504>:
   11d6c:	29400913 	slt	a1,a1,2

0000000000011d70 <$LBB34>:
   11d70:	5f89c1a3 	sd	a0,1520(sp)

0000000000011d74 <$LBE34>:
   11d74:	5f8ea1a3 	sd	a3,1448(sp)

0000000000011d78 <$LM507>:
   11d78:	014040e3 	bnez	a1,11d98 <$L414>

0000000000011d7c <$L99>:
   11d7c:	1080041b 	addw	v0,v0,1

0000000000011d80 <$L355>:
   11d80:	18bffe13 	not	v1,v0
   11d84:	18c17e9b 	sraw	v1,v1,0x1f
   11d88:	188603b3 	and	v1,v0,v1
   11d8c:	5f84a1a3 	sd	v0,1448(sp)

0000000000011d90 <$LVL401>:
   11d90:	5f8641a3 	sd	v1,1424(sp)
   11d94:	fffe8667 	j	117ac <$L101>

0000000000011d98 <$L414>:
   11d98:	18c00793 	and	v1,v1,1
   11d9c:	f8c1c0e3 	bnez	v1,11d7c <$L99>
   11da0:	fffe7f67 	j	1179c <$L354>

0000000000011da4 <$L90>:
   11da4:	3f96a183 	ld	a3,1448(sp)
   11da8:	09cb2263 	blt	a3,a1,11f38 <$L109>

0000000000011dac <$LM512>:
   11dac:	18c00793 	and	v1,v1,1
   11db0:	08c17863 	beqz	v1,11f6c <$L415>

0000000000011db4 <$LM513>:
   11db4:	1f96a183 	ld	v1,1448(sp)
   11db8:	d0019c13 	li	s6,103

0000000000011dbc <$LVL405>:
   11dbc:	10c0041b 	addw	v0,v1,1
   11dc0:	18bffe13 	not	v1,v0
   11dc4:	18c17e9b 	sraw	v1,v1,0x1f
   11dc8:	188603b3 	and	v1,v0,v1
   11dcc:	5f84a1a3 	sd	v0,1448(sp)

0000000000011dd0 <$LVL406>:
   11dd0:	5f8641a3 	sd	v1,1424(sp)
   11dd4:	fffe7667 	j	117ac <$L101>

0000000000011dd8 <$L404>:
   11dd8:	26000013 	move	a0,s4
   11ddc:	2d800013 	move	a1,s2
   11de0:	3780a013 	add	a2,sp,40
   11de4:	00118d6f 	jal	16418 <__sprint_r>

0000000000011de8 <$LVL408>:
   11de8:	00801063 	beqz	v0,11df0 <$L425>
   11dec:	fffb8667 	j	10c04 <$L350>

0000000000011df0 <$L425>:
   11df0:	1f804103 	lw	v1,16(sp)
   11df4:	15c00013 	move	v0,s3
   11df8:	fffdbd67 	j	114ec <$L204>

0000000000011dfc <$L85>:
   11dfc:	17808183 	ld	v0,32(sp)
   11e00:	0889ebe3 	bleu	a0,v0,11ff4 <$L260>

0000000000011e04 <$LM517>:
   11e04:	2800c013 	li	a1,48

0000000000011e08 <$L86>:
   11e08:	008a0023 	sb	a1,0(v0)
   11e0c:	10800413 	add	v0,v0,1
   11e10:	078481a3 	sd	v0,32(sp)

0000000000011e14 <$LM518>:
   11e14:	f889e8e3 	bne	v0,a0,11e08 <$L86>
   11e18:	fffe4f67 	j	11754 <$L80>

0000000000011e1c <$L74>:
   11e1c:	6d6a50d3 	fsgnj.d	ft3,fs1,fs1
   11e20:	26000013 	move	a0,s4
   11e24:	30000c13 	li	a2,3
   11e28:	3ec00013 	move	a3,s7
   11e2c:	47804013 	add	a4,sp,16
   11e30:	4f803013 	add	a5,sp,12
   11e34:	57808013 	add	a6,sp,32
   11e38:	678601a3 	sd	v1,1536(sp)
   11e3c:	0002066f 	jal	12654 <_dtoa_r>
   11e40:	1f980183 	ld	v1,1536(sp)
   11e44:	5f8501a3 	sd	v0,1472(sp)

0000000000011e48 <$LM520>:
   11e48:	20b60033 	add	a0,v0,s7

0000000000011e4c <$LVL412>:
   11e4c:	2ec00013 	move	a1,s7

0000000000011e50 <$L243>:
   11e50:	3f970183 	ld	a3,1472(sp)
   11e54:	1000c013 	li	v0,48
   11e58:	31c00003 	lb	a2,0(a3)
   11e5c:	01842063 	beq	a2,v0,11e6c <$L82>

0000000000011e60 <$L353>:
   11e60:	17804103 	lw	v0,16(sp)

0000000000011e64 <$LM522>:
   11e64:	21040033 	add	a0,a0,v0

0000000000011e68 <$LVL414>:
   11e68:	fffe3767 	j	11744 <$L81>

0000000000011e6c <$L82>:
   11e6c:	1001e0d3 	mxtf.d	fv0,zero
   11e70:	154550d3 	feq.d	v0,fs1,fv0
   11e74:	f881d8e3 	bnez	v0,11e60 <$L353>

0000000000011e78 <$LM524>:
   11e78:	10000413 	li	v0,1
   11e7c:	288b003b 	subw	a1,v0,a1
   11e80:	11400013 	move	v0,a1
   11e84:	078a4123 	sw	a1,16(sp)

0000000000011e88 <$LM525>:
   11e88:	21040033 	add	a0,a0,v0

0000000000011e8c <$LVL415>:
   11e8c:	fffe2e67 	j	11744 <$L81>

0000000000011e90 <$L411>:
   11e90:	26000013 	move	a0,s4
   11e94:	2d800013 	move	a1,s2
   11e98:	3780a013 	add	a2,sp,40
   11e9c:	00115f6f 	jal	16418 <__sprint_r>

0000000000011ea0 <$LVL417>:
   11ea0:	00801063 	beqz	v0,11ea8 <$L426>
   11ea4:	fffb5867 	j	10c04 <$L350>

0000000000011ea8 <$L426>:
   11ea8:	1f804103 	lw	v1,16(sp)
   11eac:	15c00013 	move	v0,s3
   11eb0:	fffeb967 	j	11994 <$L194>

0000000000011eb4 <$L72>:
   11eb4:	bec1e8e3 	bnez	s7,116a8 <$L71>

0000000000011eb8 <$LM529>:
   11eb8:	d8000413 	li	s7,1

0000000000011ebc <$LVL419>:
   11ebc:	fffdfb67 	j	116a8 <$L71>

0000000000011ec0 <$L256>:
   11ec0:	d8001813 	li	s7,6

0000000000011ec4 <$LVL421>:
   11ec4:	fffdf967 	j	116a8 <$L71>

0000000000011ec8 <$L407>:
   11ec8:	2800b413 	li	a1,45

0000000000011ecc <$LM532>:
   11ecc:	ad2860d3 	fsgnjn.d	fs1,fs0,fs0

0000000000011ed0 <$LM533>:
   11ed0:	5f8ac1a3 	sd	a1,1456(sp)
   11ed4:	fffdfc67 	j	116c4 <$L73>

0000000000011ed8 <$L76>:
   11ed8:	2ec0041b 	addw	a1,s7,1

0000000000011edc <$LVL425>:
   11edc:	fffe0367 	j	116e8 <$L77>

0000000000011ee0 <$L95>:
   11ee0:	2000c013 	li	a0,48

0000000000011ee4 <$LM536>:
   11ee4:	1080c01b 	addw	v0,v0,48

0000000000011ee8 <$LM537>:
   11ee8:	07886823 	sb	a0,26(sp)

0000000000011eec <$LM538>:
   11eec:	07846c23 	sb	v0,27(sp)

0000000000011ef0 <$LVL429>:
   11ef0:	27807013 	add	a0,sp,28
   11ef4:	ffff9967 	j	11d58 <$L97>

0000000000011ef8 <$L408>:
   11ef8:	27808183 	ld	a0,32(sp)
   11efc:	fffe1667 	j	11754 <$L80>

0000000000011f00 <$L75>:
   11f00:	6d6a50d3 	fsgnj.d	ft3,fs1,fs1
   11f04:	26000013 	move	a0,s4
   11f08:	30000c13 	li	a2,3
   11f0c:	3ec00013 	move	a3,s7
   11f10:	47804013 	add	a4,sp,16
   11f14:	4f803013 	add	a5,sp,12
   11f18:	57808013 	add	a6,sp,32
   11f1c:	678601a3 	sd	v1,1536(sp)
   11f20:	0001cd6f 	jal	12654 <_dtoa_r>
   11f24:	5f8501a3 	sd	v0,1472(sp)

0000000000011f28 <$LM541>:
   11f28:	20b60033 	add	a0,v0,s7

0000000000011f2c <$LVL433>:
   11f2c:	2ec00013 	move	a1,s7
   11f30:	1f980183 	ld	v1,1536(sp)
   11f34:	fffe0267 	j	1173c <$L244>

0000000000011f38 <$L109>:
   11f38:	3f96a183 	ld	a3,1448(sp)
   11f3c:	10000413 	li	v0,1
   11f40:	000e1a63 	bgtz	a3,11f4c <$L113>

0000000000011f44 <$LM543>:
   11f44:	10000813 	li	v0,2
   11f48:	108f003b 	subw	v0,v0,a3

0000000000011f4c <$L113>:
   11f4c:	288a003b 	addw	a1,v0,a1

0000000000011f50 <$LVL435>:
   11f50:	117ffe13 	not	v0,a1
   11f54:	10817e9b 	sraw	v0,v0,0x1f
   11f58:	114403b3 	and	v0,a1,v0
   11f5c:	5f8aa1a3 	sd	a1,1448(sp)

0000000000011f60 <$LVL436>:
   11f60:	5f8441a3 	sd	v0,1424(sp)
   11f64:	d0019c13 	li	s6,103

0000000000011f68 <$LVL437>:
   11f68:	fffe1167 	j	117ac <$L101>

0000000000011f6c <$L415>:
   11f6c:	19fffe13 	not	v1,a3
   11f70:	18c17e9b 	sraw	v1,v1,0x1f
   11f74:	11c603b3 	and	v0,a3,v1
   11f78:	5f8441a3 	sd	v0,1424(sp)
   11f7c:	d0019c13 	li	s6,103

0000000000011f80 <$LVL439>:
   11f80:	fffe0b67 	j	117ac <$L101>

0000000000011f84 <$L412>:
   11f84:	1009003b 	neg	v0,a0

0000000000011f88 <$LM547>:
   11f88:	2000b413 	li	a0,45
   11f8c:	07886423 	sb	a0,25(sp)

0000000000011f90 <$LVL442>:
   11f90:	ffff4767 	j	11cac <$L94>

0000000000011f94 <$L51>:
   11f94:	1f966183 	ld	v1,1432(sp)
   11f98:	d8c00103 	lw	s7,0(v1)

0000000000011f9c <$LVL444>:
   11f9c:	10c02013 	add	v0,v1,8

0000000000011fa0 <$LVL445>:
   11fa0:	5f8461a3 	sd	v0,1432(sp)

0000000000011fa4 <$LM549>:
   11fa4:	06c01263 	bltz	s7,11fac <$L427>
   11fa8:	fff97b67 	j	10594 <$L299>

0000000000011fac <$L427>:
   11fac:	d83ffc13 	li	s7,-1

0000000000011fb0 <$LVL446>:
   11fb0:	fff97967 	j	10594 <$L299>

0000000000011fb4 <$L389>:
   11fb4:	e83ffc13 	li	s9,-1

0000000000011fb8 <$LVL448>:
   11fb8:	fffaf267 	j	10b80 <$L420>

0000000000011fbc <$L104>:
   11fbc:	1f96a183 	ld	v1,1448(sp)
   11fc0:	16c0041b 	addw	v0,s7,1
   11fc4:	1086003b 	addw	v0,v0,v1
   11fc8:	ffff6e67 	j	11d80 <$L355>

0000000000011fcc <$L103>:
   11fcc:	06c018e3 	bnez	s7,11fd8 <$L107>

0000000000011fd0 <$LM554>:
   11fd0:	18c00793 	and	v1,v1,1
   11fd4:	00c05063 	beqz	v1,11ffc <$L263>

0000000000011fd8 <$L107>:
   11fd8:	dec0081b 	addw	s7,s7,2

0000000000011fdc <$LVL451>:
   11fdc:	16fffe13 	not	v0,s7
   11fe0:	10817e9b 	sraw	v0,v0,0x1f
   11fe4:	16c403b3 	and	v0,s7,v0
   11fe8:	5fb6a1a3 	sd	s7,1448(sp)
   11fec:	5f8441a3 	sd	v0,1424(sp)
   11ff0:	fffdef67 	j	117ac <$L101>

0000000000011ff4 <$L260>:
   11ff4:	20800013 	move	a0,v0

0000000000011ff8 <$LVL453>:
   11ff8:	fffdd767 	j	11754 <$L80>

0000000000011ffc <$L263>:
   11ffc:	18000413 	li	v1,1

0000000000012000 <$LM558>:
   12000:	38000413 	li	a3,1

0000000000012004 <$LM559>:
   12004:	5f8641a3 	sd	v1,1424(sp)

0000000000012008 <$LM560>:
   12008:	5f8ea1a3 	sd	a3,1448(sp)
   1200c:	fffde867 	j	117ac <$L101>

0000000000012010 <vfprintf>:
   12010:	10000d37 	lui	v0,0x1a

0000000000012014 <$LM563>:
   12014:	19000013 	move	v1,a0

0000000000012018 <$LM564>:
   12018:	20ad4183 	ld	a0,-1200(v0)

000000000001201c <$LM565>:
   1201c:	11400013 	move	v0,a1
   12020:	39800013 	move	a3,a2

0000000000012024 <$LM566>:
   12024:	28c00013 	move	a1,v1

0000000000012028 <$LVL457>:
   12028:	30800013 	move	a2,v0

000000000001202c <$LVL458>:
   1202c:	fff8f667 	j	10404 <_vfprintf_r>

0000000000012030 <__swsetup_r>:
   12030:	10000d37 	lui	v0,0x1a
   12034:	10ad4183 	ld	v0,-1200(v0)

0000000000012038 <$LM3>:
   12038:	f7bf8013 	add	sp,sp,-32

000000000001203c <$LCFI0>:
   1203c:	07aa61a3 	sd	s1,24(sp)
   12040:	07a841a3 	sd	s0,16(sp)
   12044:	078221a3 	sd	ra,8(sp)

0000000000012048 <$LM4>:
   12048:	a9000013 	move	s1,a0
   1204c:	a1400013 	move	s0,a1

0000000000012050 <$LM5>:
   12050:	00801863 	beqz	v0,1205c <$L2>

0000000000012054 <$LM6>:
   12054:	18814103 	lw	v1,80(v0)
   12058:	00c1c863 	beqz	v1,1213c <$L19>

000000000001205c <$L2>:
   1205c:	25004083 	lh	a0,16(s0)
   12060:	1100c093 	sll	v0,a0,0x30
   12064:	1080c293 	srl	v0,v0,0x30
   12068:	28802393 	and	a1,v0,8
   1206c:	18800013 	move	v1,v0
   12070:	01408063 	beqz	a1,120b0 <$L3>
   12074:	1d006183 	ld	v1,24(s0)

0000000000012078 <$LM8>:
   12078:	00c0c863 	beqz	v1,120dc <$L20>

000000000001207c <$L10>:
   1207c:	20800793 	and	a0,v0,1
   12080:	01010063 	beqz	a0,12100 <$L11>

0000000000012084 <$LM10>:
   12084:	15008103 	lw	v0,32(s0)

0000000000012088 <$LM11>:
   12088:	05003123 	sw	zero,12(s0)

000000000001208c <$LM12>:
   1208c:	1005003b 	neg	v0,v0
   12090:	0504a123 	sw	v0,40(s0)

0000000000012094 <$LM13>:
   12094:	10000013 	li	v0,0
   12098:	00c10863 	beqz	v1,1211c <$L21>

000000000001209c <$L5>:
   1209c:	0f802183 	ld	ra,8(sp)
   120a0:	af806183 	ld	s1,24(sp)

00000000000120a4 <$LVL2>:
   120a4:	a7804183 	ld	s0,16(sp)

00000000000120a8 <$LVL3>:
   120a8:	f7808013 	add	sp,sp,32
   120ac:	004000eb 	ret

00000000000120b0 <$L3>:
   120b0:	28804393 	and	a1,v0,16

00000000000120b4 <$LM16>:
   120b4:	103ffc13 	li	v0,-1

00000000000120b8 <$LM17>:
   120b8:	f941c863 	beqz	a1,1209c <$L5>

00000000000120bc <$LM18>:
   120bc:	18c01393 	and	v1,v1,4
   120c0:	00c110e3 	bnez	v1,12148 <$L6>
   120c4:	1d006183 	ld	v1,24(s0)

00000000000120c8 <$L7>:
   120c8:	11002313 	or	v0,a0,8
   120cc:	050440a3 	sh	v0,16(s0)
   120d0:	1080c093 	sll	v0,v0,0x30
   120d4:	1080c293 	srl	v0,v0,0x30

00000000000120d8 <$LM20>:
   120d8:	f8c148e3 	bnez	v1,1207c <$L10>

00000000000120dc <$L20>:
   120dc:	288a0393 	and	a1,v0,640
   120e0:	20080013 	li	a0,512
   120e4:	f9493063 	beq	a1,a0,1207c <$L10>

00000000000120e8 <$LM22>:
   120e8:	25400013 	move	a0,s1
   120ec:	2d000013 	move	a1,s0
   120f0:	0008c26f 	jal	143f8 <__smakebuf_r>
   120f4:	15004283 	lhu	v0,16(s0)
   120f8:	1d006183 	ld	v1,24(s0)
   120fc:	ffffe067 	j	1207c <$L10>

0000000000012100 <$L11>:
   12100:	10800b93 	and	v0,v0,2
   12104:	20000013 	li	a0,0
   12108:	008010e3 	bnez	v0,12110 <$L13>

000000000001210c <$LM24>:
   1210c:	25008103 	lw	a0,32(s0)

0000000000012110 <$L13>:
   12110:	05083123 	sw	a0,12(s0)

0000000000012114 <$LM26>:
   12114:	10000013 	li	v0,0
   12118:	f8c108e3 	bnez	v1,1209c <$L5>

000000000001211c <$L21>:
   1211c:	15004283 	lhu	v0,16(s0)

0000000000012120 <$LM28>:
   12120:	0f802183 	ld	ra,8(sp)
   12124:	af806183 	ld	s1,24(sp)

0000000000012128 <$LM29>:
   12128:	1080e093 	sll	v0,v0,0x38
   1212c:	1081fe93 	sra	v0,v0,0x3f

0000000000012130 <$LM30>:
   12130:	a7804183 	ld	s0,16(sp)

0000000000012134 <$LVL6>:
   12134:	f7808013 	add	sp,sp,32
   12138:	004000eb 	ret

000000000001213c <$L19>:
   1213c:	20800013 	move	a0,v0

0000000000012140 <$LVL8>:
   12140:	00069f6f 	jal	13bbc <__sinit>

0000000000012144 <$LVL9>:
   12144:	ffffc667 	j	1205c <$L2>

0000000000012148 <$L6>:
   12148:	2d016183 	ld	a1,88(s0)
   1214c:	01403863 	beqz	a1,12168 <$L8>

0000000000012150 <$LM33>:
   12150:	1501d013 	add	v0,s0,116
   12154:	01442063 	beq	a1,v0,12164 <$L9>

0000000000012158 <$LM34>:
   12158:	25400013 	move	a0,s1
   1215c:	0007606f 	jal	13edc <_free_r>
   12160:	25004083 	lh	a0,16(s0)

0000000000012164 <$L9>:
   12164:	050161a3 	sd	zero,88(s0)

0000000000012168 <$L8>:
   12168:	1d006183 	ld	v1,24(s0)

000000000001216c <$LM37>:
   1216c:	213f6f93 	and	a0,a0,-37
   12170:	2100c093 	sll	a0,a0,0x30
   12174:	2101c293 	sra	a0,a0,0x30

0000000000012178 <$LM38>:
   12178:	05002123 	sw	zero,8(s0)

000000000001217c <$LM39>:
   1217c:	050601a3 	sd	v1,0(s0)
   12180:	ffffd267 	j	120c8 <$L7>

0000000000012184 <__register_exitproc>:
   12184:	f7bf0013 	add	sp,sp,-64

0000000000012188 <$LCFI0>:
   12188:	10000cb7 	lui	v0,0x19

000000000001218c <$LM3>:
   1218c:	07a8a1a3 	sd	s0,40(sp)

0000000000012190 <$LM4>:
   12190:	a0898183 	ld	s0,608(v0)

0000000000012194 <$LM5>:
   12194:	07aac1a3 	sd	s1,48(sp)
   12198:	07ace1a3 	sd	s2,56(sp)

000000000001219c <$LM6>:
   1219c:	1d07e183 	ld	v1,504(s0)

00000000000121a0 <$LM7>:
   121a0:	078281a3 	sd	ra,32(sp)

00000000000121a4 <$LM8>:
   121a4:	a9000013 	move	s1,a0

00000000000121a8 <$LM9>:
   121a8:	08c00863 	beqz	v1,122ac <$L9>

00000000000121ac <$L2>:
   121ac:	10c02103 	lw	v0,8(v1)
   121b0:	20808113 	slt	a0,v0,32

00000000000121b4 <$LVL3>:
   121b4:	0100e8e3 	bnez	a0,12228 <$L3>

00000000000121b8 <$LM11>:
   121b8:	10000037 	lui	v0,0x0
   121bc:	10800013 	move	v0,v0

00000000000121c0 <$LM12>:
   121c0:	b03ffc13 	li	s2,-1

00000000000121c4 <$LM13>:
   121c4:	008040e3 	bnez	v0,121e4 <$L10>

00000000000121c8 <$L4>:
   121c8:	0f808183 	ld	ra,32(sp)
   121cc:	15800013 	move	v0,s2
   121d0:	af80c183 	ld	s1,48(sp)
   121d4:	b780e183 	ld	s2,56(sp)
   121d8:	a780a183 	ld	s0,40(sp)
   121dc:	f7810013 	add	sp,sp,64
   121e0:	004000eb 	ret

00000000000121e4 <$L10>:
   121e4:	200c6013 	li	a0,792
   121e8:	078a01a3 	sd	a1,0(sp)
   121ec:	078c21a3 	sd	a2,8(sp)
   121f0:	078e41a3 	sd	a3,16(sp)
   121f4:	0000006f 	jal	121f4 <$L10+0x10>

00000000000121f8 <$LVL6>:
   121f8:	18800013 	move	v1,v0

00000000000121fc <$LM16>:
   121fc:	2f800183 	ld	a1,0(sp)
   12200:	37802183 	ld	a2,8(sp)
   12204:	3f804183 	ld	a3,16(sp)
   12208:	f8818063 	beqz	v0,121c8 <$L4>

000000000001220c <$LM17>:
   1220c:	2507e183 	ld	a0,504(s0)

0000000000012210 <$LM18>:
   12210:	00802123 	sw	zero,8(v0)

0000000000012214 <$LM19>:
   12214:	10000013 	li	v0,0

0000000000012218 <$LM20>:
   12218:	00c801a3 	sd	a0,0(v1)

000000000001221c <$LM21>:
   1221c:	1d07e1a3 	sd	v1,504(s0)

0000000000012220 <$LM22>:
   12220:	30c04123 	sw	zero,784(v1)

0000000000012224 <$LM23>:
   12224:	30c05123 	sw	zero,788(v1)

0000000000012228 <$L3>:
   12228:	05407863 	beqz	s1,12264 <$L5>

000000000001222c <$LM25>:
   1222c:	48cc4103 	lw	a5,784(v1)

0000000000012230 <$LM26>:
   12230:	40808013 	add	a4,v0,32

0000000000012234 <$LM27>:
   12234:	50800c93 	sll	a6,v0,0x3

0000000000012238 <$LM28>:
   12238:	20000413 	li	a0,1
   1223c:	210400bb 	sllw	a0,a0,v0

0000000000012240 <$LM29>:
   12240:	42000c93 	sll	a4,a4,0x3

0000000000012244 <$LM30>:
   12244:	50d40033 	add	a6,v1,a6

0000000000012248 <$LM31>:
   12248:	4a480333 	or	a5,a5,a0

000000000001224c <$LM32>:
   1224c:	40d00033 	add	a4,v1,a4

0000000000012250 <$LM33>:
   12250:	128c41a3 	sd	a2,272(a6)

0000000000012254 <$LM34>:
   12254:	30000813 	li	a2,2

0000000000012258 <$LM35>:
   12258:	30d24123 	sw	a5,784(v1)

000000000001225c <$LM36>:
   1225c:	120e41a3 	sd	a3,272(a4)

0000000000012260 <$LM37>:
   12260:	054c7863 	beq	s1,a2,1229c <$L11>

0000000000012264 <$L5>:
   12264:	20800813 	add	a0,v0,2

0000000000012268 <$LM39>:
   12268:	0f808183 	ld	ra,32(sp)

000000000001226c <$LM40>:
   1226c:	21000c93 	sll	a0,a0,0x3
   12270:	1080041b 	addw	v0,v0,1

0000000000012274 <$LM41>:
   12274:	b0000013 	li	s2,0

0000000000012278 <$LM42>:
   12278:	20c80033 	add	a0,v1,a0
   1227c:	00c42123 	sw	v0,8(v1)

0000000000012280 <$LM43>:
   12280:	af80c183 	ld	s1,48(sp)
   12284:	15800013 	move	v0,s2
   12288:	a780a183 	ld	s0,40(sp)
   1228c:	b780e183 	ld	s2,56(sp)

0000000000012290 <$LM44>:
   12290:	010a01a3 	sd	a1,0(a0)

0000000000012294 <$LM45>:
   12294:	f7810013 	add	sp,sp,64
   12298:	004000eb 	ret

000000000001229c <$L11>:
   1229c:	30cc5103 	lw	a2,788(v1)
   122a0:	21880333 	or	a0,a2,a0
   122a4:	30c85123 	sw	a0,788(v1)
   122a8:	ffffef67 	j	12264 <$L5>

00000000000122ac <$L9>:
   122ac:	1d080013 	add	v1,s0,512

00000000000122b0 <$LVL13>:
   122b0:	1d07e1a3 	sd	v1,504(s0)
   122b4:	ffffbe67 	j	121ac <$L2>

00000000000122b8 <__call_exitprocs>:
   122b8:	f7bec013 	add	sp,sp,-80

00000000000122bc <$LCFI0>:
   122bc:	10000cb7 	lui	v0,0x19
   122c0:	07b701a3 	sd	s7,64(sp)

00000000000122c4 <$LM2>:
   122c4:	d8898183 	ld	s7,608(v0)

00000000000122c8 <$LM3>:
   122c8:	07bb21a3 	sd	s9,72(sp)
   122cc:	07b4e1a3 	sd	s6,56(sp)
   122d0:	07ae81a3 	sd	s3,32(sp)
   122d4:	07ac61a3 	sd	s2,24(sp)
   122d8:	07b2c1a3 	sd	s5,48(sp)
   122dc:	07b0a1a3 	sd	s4,40(sp)
   122e0:	07aa41a3 	sd	s1,16(sp)
   122e4:	07a821a3 	sd	s0,8(sp)
   122e8:	078201a3 	sd	ra,0(sp)

00000000000122ec <$LM4>:
   122ec:	e9000013 	move	s9,a0
   122f0:	b1400013 	move	s2,a1

00000000000122f4 <$LBB2>:
   122f4:	d0000413 	li	s6,1

00000000000122f8 <$LBE2>:
   122f8:	b83ffc13 	li	s3,-1

00000000000122fc <$L23>:
   122fc:	aec7e183 	ld	s1,504(s7)

0000000000012300 <$LM8>:
   12300:	05409063 	beqz	s1,12348 <$L1>

0000000000012304 <$LM9>:
   12304:	cec7e013 	add	s5,s7,504

0000000000012308 <$L16>:
   12308:	15402103 	lw	v0,8(s1)
   1230c:	10bffc1b 	addw	v0,v0,-1

0000000000012310 <$LVL4>:
   12310:	a0800013 	move	s0,v0
   12314:	00805263 	bltz	v0,1233c <$L3>

0000000000012318 <$L19>:
   12318:	0580c063 	beqz	s2,12378 <$L4>

000000000001231c <$LM12>:
   1231c:	15008013 	add	v0,s0,32

0000000000012320 <$LVL6>:
   12320:	10800c93 	sll	v0,v0,0x3
   12324:	15440033 	add	v0,s1,v0
   12328:	10844183 	ld	v0,272(v0)
   1232c:	00ac9863 	beq	v0,s2,12378 <$L4>

0000000000012330 <$L5>:
   12330:	153ffc1b 	addw	v0,s0,-1

0000000000012334 <$LVL7>:
   12334:	a0800013 	move	s0,v0

0000000000012338 <$LVL8>:
   12338:	f8afc0e3 	bne	v0,s3,12318 <$L19>

000000000001233c <$L3>:
   1233c:	10000037 	lui	v0,0x0

0000000000012340 <$LVL9>:
   12340:	10800013 	move	v0,v0
   12344:	008188e3 	bnez	v0,12408 <$L25>

0000000000012348 <$L1>:
   12348:	0f800183 	ld	ra,0(sp)
   1234c:	ef812183 	ld	s9,72(sp)
   12350:	df810183 	ld	s7,64(sp)
   12354:	d780e183 	ld	s6,56(sp)
   12358:	cf80c183 	ld	s5,48(sp)
   1235c:	c780a183 	ld	s4,40(sp)
   12360:	bf808183 	ld	s3,32(sp)
   12364:	b7806183 	ld	s2,24(sp)

0000000000012368 <$LVL11>:
   12368:	af804183 	ld	s1,16(sp)

000000000001236c <$LVL12>:
   1236c:	a7802183 	ld	s0,8(sp)
   12370:	f7814013 	add	sp,sp,80
   12374:	004000eb 	ret

0000000000012378 <$L4>:
   12378:	25402103 	lw	a0,8(s1)

000000000001237c <$LM17>:
   1237c:	1d000813 	add	v1,s0,2
   12380:	18c00c93 	sll	v1,v1,0x3
   12384:	1d460033 	add	v1,s1,v1

0000000000012388 <$LM18>:
   12388:	213ffc1b 	addw	a0,a0,-1

000000000001238c <$LM19>:
   1238c:	10c00183 	ld	v0,0(v1)

0000000000012390 <$LM20>:
   12390:	0128b863 	beq	a0,s0,123ec <$L26>

0000000000012394 <$LM21>:
   12394:	00c001a3 	sd	zero,0(v1)

0000000000012398 <$L7>:
   12398:	f8813063 	beqz	v0,12330 <$L5>

000000000001239c <$LM23>:
   1239c:	254c4103 	lw	a0,784(s1)

00000000000123a0 <$LM24>:
   123a0:	1ea800bb 	sllw	v1,s6,s0

00000000000123a4 <$LM25>:
   123a4:	c5402103 	lw	s4,8(s1)

00000000000123a8 <$LM26>:
   123a8:	210603b3 	and	a0,a0,v1
   123ac:	01007063 	beqz	a0,123e4 <$L27>

00000000000123b0 <$LM27>:
   123b0:	254c5103 	lw	a0,788(s1)
   123b4:	190603b3 	and	v1,a0,v1
   123b8:	00c078e3 	bnez	v1,123f4 <$L10>

00000000000123bc <$LM28>:
   123bc:	1d000c93 	sll	v1,s0,0x3
   123c0:	1d460033 	add	v1,s1,v1
   123c4:	28c44183 	ld	a1,272(v1)
   123c8:	27400013 	move	a0,s9
   123cc:	0880006b 	jalr	v0

00000000000123d0 <$L9>:
   123d0:	15402103 	lw	v0,8(s1)
   123d4:	f8b050e3 	bne	v0,s4,122fc <$L23>

00000000000123d8 <$LM30>:
   123d8:	16400183 	ld	v0,0(s5)
   123dc:	f8aaa863 	beq	v0,s1,12330 <$L5>
   123e0:	ffffc767 	j	122fc <$L23>

00000000000123e4 <$L27>:
   123e4:	0880006b 	jalr	v0

00000000000123e8 <$LVL19>:
   123e8:	fffffa67 	j	123d0 <$L9>

00000000000123ec <$L26>:
   123ec:	05482123 	sw	a0,8(s1)
   123f0:	ffffea67 	j	12398 <$L7>

00000000000123f4 <$L10>:
   123f4:	1d000c93 	sll	v1,s0,0x3
   123f8:	1d460033 	add	v1,s1,v1
   123fc:	20c44183 	ld	a0,272(v1)
   12400:	0880006b 	jalr	v0

0000000000012404 <$LVL22>:
   12404:	fffff367 	j	123d0 <$L9>

0000000000012408 <$L25>:
   12408:	15402103 	lw	v0,8(s1)
   1240c:	008048e3 	bnez	v0,12430 <$L13>

0000000000012410 <$LM35>:
   12410:	15400183 	ld	v0,0(s1)
   12414:	00805863 	beqz	v0,12440 <$L17>

0000000000012418 <$LM36>:
   12418:	25400013 	move	a0,s1

000000000001241c <$LM37>:
   1241c:	064401a3 	sd	v0,0(s5)

0000000000012420 <$LM38>:
   12420:	0000006f 	jal	12420 <$LM38>

0000000000012424 <$LM39>:
   12424:	ae400183 	ld	s1,0(s5)

0000000000012428 <$L15>:
   12428:	f541c0e3 	bnez	s1,12308 <$L16>
   1242c:	ffffc767 	j	12348 <$L1>

0000000000012430 <$L13>:
   12430:	15400183 	ld	v0,0(s1)

0000000000012434 <$L14>:
   12434:	cd400013 	move	s5,s1

0000000000012438 <$LM43>:
   12438:	a8800013 	move	s1,v0

000000000001243c <$LVL27>:
   1243c:	fffffb67 	j	12428 <$L15>

0000000000012440 <$L17>:
   12440:	10000013 	li	v0,0
   12444:	fffffc67 	j	12434 <$L14>

0000000000012448 <quorem>:
   12448:	f7bf0013 	add	sp,sp,-64

000000000001244c <$LCFI0>:
   1244c:	07b2c1a3 	sd	s5,48(sp)

0000000000012450 <$LM2>:
   12450:	19405103 	lw	v1,20(a1)

0000000000012454 <$LM3>:
   12454:	c9000013 	move	s5,a0

0000000000012458 <$LM4>:
   12458:	21005103 	lw	a0,20(a0)

000000000001245c <$LM5>:
   1245c:	07b4e1a3 	sd	s6,56(sp)
   12460:	07b0a1a3 	sd	s4,40(sp)
   12464:	07ae81a3 	sd	s3,32(sp)
   12468:	07ac61a3 	sd	s2,24(sp)
   1246c:	07aa41a3 	sd	s1,16(sp)
   12470:	07a821a3 	sd	s0,8(sp)
   12474:	078201a3 	sd	ra,0(sp)

0000000000012478 <$LM6>:
   12478:	10000013 	li	v0,0

000000000001247c <$LM7>:
   1247c:	09076263 	blt	a0,v1,1262c <$L2>

0000000000012480 <$LM8>:
   12480:	18fffc1b 	addw	v1,v1,-1

0000000000012484 <$LVL3>:
   12484:	a8c00013 	move	s1,v1
   12488:	15401813 	add	v0,s1,6
   1248c:	10800893 	sll	v0,v0,0x2
   12490:	b9440033 	add	s3,a1,v0

0000000000012494 <$LM9>:
   12494:	d5c00103 	lw	s6,0(s3)
   12498:	16440033 	add	v0,s5,v0
   1249c:	10800103 	lw	v0,0(v0)
   124a0:	d680041b 	addw	s6,s6,1

00000000000124a4 <$LM10>:
   124a4:	a1406013 	add	s0,a1,24

00000000000124a8 <$LM11>:
   124a8:	d0b406bb 	divuw	s6,v0,s6
   124ac:	b6800013 	move	s2,s6

00000000000124b0 <$LM12>:
   124b0:	c6406013 	add	s4,s5,24

00000000000124b4 <$LM13>:
   124b4:	05819063 	beqz	s2,1257c <$L3>

00000000000124b8 <$LM14>:
   124b8:	10000837 	lui	v0,0x10

00000000000124bc <$LM15>:
   124bc:	35000013 	move	a2,s0
   124c0:	26000013 	move	a0,s4
   124c4:	68000013 	li	t1,0
   124c8:	38000013 	li	a3,0

00000000000124cc <$LM16>:
   124cc:	10bffc1b 	addw	v0,v0,-1

00000000000124d0 <$L4>:
   124d0:	61800103 	lw	t0,0(a2)

00000000000124d4 <$LM18>:
   124d4:	59000103 	lw	a7,0(a0)

00000000000124d8 <$LM19>:
   124d8:	31801013 	add	a2,a2,4

00000000000124dc <$LM20>:
   124dc:	530403b3 	and	a6,t0,v0
   124e0:	52ac043b 	mulw	a6,a6,s2

00000000000124e4 <$LM21>:
   124e4:	6300429b 	srlw	t0,t0,0x10

00000000000124e8 <$LM22>:
   124e8:	4ac403b3 	and	a5,a7,v0
   124ec:	3a4e003b 	addw	a3,a5,a3

00000000000124f0 <$LM23>:
   124f0:	5ac0429b 	srlw	a7,a7,0x10

00000000000124f4 <$LM24>:
   124f4:	632c043b 	mulw	t0,t0,s2

00000000000124f8 <$LM25>:
   124f8:	529a003b 	addw	a6,a6,t1

00000000000124fc <$LM26>:
   124fc:	4280429b 	srlw	a4,a6,0x10

0000000000012500 <$LM27>:
   12500:	528403b3 	and	a6,a6,v0

0000000000012504 <$LVL12>:
   12504:	49d5003b 	subw	a5,a3,a6

0000000000012508 <$LM28>:
   12508:	5241429b 	sraw	a6,a5,0x10

000000000001250c <$LM29>:
   1250c:	4a4403b3 	and	a5,a5,v0

0000000000012510 <$LM30>:
   12510:	4218003b 	addw	a4,a4,t0

0000000000012514 <$LM31>:
   12514:	620403b3 	and	t0,a4,v0
   12518:	3ad9003b 	subw	a3,a7,t0
   1251c:	39d4003b 	addw	a3,a3,a6

0000000000012520 <$LM32>:
   12520:	51c0409b 	sllw	a6,a3,0x10
   12524:	4a920333 	or	a5,a6,a5
   12528:	01120123 	sw	a5,0(a0)

000000000001252c <$LM33>:
   1252c:	6a00429b 	srlw	t1,a4,0x10

0000000000012530 <$LM34>:
   12530:	39c1429b 	sraw	a3,a3,0x10

0000000000012534 <$LM35>:
   12534:	21001013 	add	a0,a0,4

0000000000012538 <$LM36>:
   12538:	fdcd33e3 	bleu	a2,s3,124d0 <$L4>

000000000001253c <$LM37>:
   1253c:	18c01813 	add	v1,v1,6

0000000000012540 <$LVL17>:
   12540:	18c00893 	sll	v1,v1,0x2
   12544:	1e460033 	add	v1,s5,v1
   12548:	10c00103 	lw	v0,0(v1)
   1254c:	008060e3 	bnez	v0,1257c <$L3>

0000000000012550 <$LM38>:
   12550:	10fff013 	add	v0,v1,-4

0000000000012554 <$LVL19>:
   12554:	06044be3 	bleu	v0,s4,12578 <$L5>

0000000000012558 <$LM39>:
   12558:	18fff103 	lw	v1,-4(v1)
   1255c:	00c02063 	beqz	v1,1256c <$L13>
   12560:	00000667 	j	12578 <$L5>

0000000000012564 <$L19>:
   12564:	18800103 	lw	v1,0(v0)
   12568:	00c020e3 	bnez	v1,12578 <$L5>

000000000001256c <$L13>:
   1256c:	10bff013 	add	v0,v0,-4

0000000000012570 <$LM42>:
   12570:	ad7ffc1b 	addw	s1,s1,-1

0000000000012574 <$LM43>:
   12574:	fe05e363 	bltu	s4,v0,12564 <$L19>

0000000000012578 <$L5>:
   12578:	066a5123 	sw	s1,20(s5)

000000000001257c <$L3>:
   1257c:	26400013 	move	a0,s5
   12580:	000d0c6f 	jal	159b0 <__mcmp>

0000000000012584 <$LVL23>:
   12584:	00814a63 	bltz	v0,12628 <$L7>

0000000000012588 <$LM46>:
   12588:	18000837 	lui	v1,0x10

000000000001258c <$LM47>:
   1258c:	b680041b 	addw	s2,s6,1

0000000000012590 <$LM48>:
   12590:	16000013 	move	v0,s4

0000000000012594 <$LM49>:
   12594:	20000013 	li	a0,0

0000000000012598 <$LM50>:
   12598:	18fffc1b 	addw	v1,v1,-1

000000000001259c <$L8>:
   1259c:	38800103 	lw	a3,0(v0)

00000000000125a0 <$LM52>:
   125a0:	35000103 	lw	a2,0(s0)

00000000000125a4 <$LVL26>:
   125a4:	a5001013 	add	s0,s0,4

00000000000125a8 <$LM53>:
   125a8:	29c603b3 	and	a1,a3,v1

00000000000125ac <$LM54>:
   125ac:	418603b3 	and	a4,a2,v1

00000000000125b0 <$LM55>:
   125b0:	2148003b 	addw	a0,a1,a0

00000000000125b4 <$LVL28>:
   125b4:	2911003b 	subw	a1,a0,a4

00000000000125b8 <$LM56>:
   125b8:	3180429b 	srlw	a2,a2,0x10

00000000000125bc <$LM57>:
   125bc:	21c0429b 	srlw	a0,a3,0x10
   125c0:	210d003b 	subw	a0,a0,a2

00000000000125c4 <$LM58>:
   125c4:	4141429b 	sraw	a4,a1,0x10

00000000000125c8 <$LM59>:
   125c8:	2110003b 	addw	a0,a0,a4

00000000000125cc <$LM60>:
   125cc:	3100409b 	sllw	a2,a0,0x10
   125d0:	294603b3 	and	a1,a1,v1

00000000000125d4 <$LVL32>:
   125d4:	298a0333 	or	a1,a2,a1
   125d8:	008a0123 	sw	a1,0(v0)

00000000000125dc <$LM61>:
   125dc:	2101429b 	sraw	a0,a0,0x10

00000000000125e0 <$LM62>:
   125e0:	10801013 	add	v0,v0,4

00000000000125e4 <$LM63>:
   125e4:	fde973e3 	bleu	s0,s3,1259c <$L8>

00000000000125e8 <$LM64>:
   125e8:	1d401813 	add	v1,s1,6
   125ec:	18c00893 	sll	v1,v1,0x2
   125f0:	1e460033 	add	v1,s5,v1
   125f4:	10c00103 	lw	v0,0(v1)
   125f8:	008060e3 	bnez	v0,12628 <$L7>

00000000000125fc <$LM65>:
   125fc:	10fff013 	add	v0,v1,-4

0000000000012600 <$LVL36>:
   12600:	06044be3 	bleu	v0,s4,12624 <$L9>

0000000000012604 <$LM66>:
   12604:	18fff103 	lw	v1,-4(v1)
   12608:	00c02063 	beqz	v1,12618 <$L12>
   1260c:	00000667 	j	12624 <$L9>

0000000000012610 <$L20>:
   12610:	18800103 	lw	v1,0(v0)
   12614:	00c020e3 	bnez	v1,12624 <$L9>

0000000000012618 <$L12>:
   12618:	10bff013 	add	v0,v0,-4

000000000001261c <$LM69>:
   1261c:	ad7ffc1b 	addw	s1,s1,-1

0000000000012620 <$LM70>:
   12620:	fe05e363 	bltu	s4,v0,12610 <$L20>

0000000000012624 <$L9>:
   12624:	066a5123 	sw	s1,20(s5)

0000000000012628 <$L7>:
   12628:	15800013 	move	v0,s2

000000000001262c <$L2>:
   1262c:	0f800183 	ld	ra,0(sp)
   12630:	d780e183 	ld	s6,56(sp)
   12634:	cf80c183 	ld	s5,48(sp)

0000000000012638 <$LVL42>:
   12638:	c780a183 	ld	s4,40(sp)
   1263c:	bf808183 	ld	s3,32(sp)
   12640:	b7806183 	ld	s2,24(sp)
   12644:	af804183 	ld	s1,16(sp)
   12648:	a7802183 	ld	s0,8(sp)
   1264c:	f7810013 	add	sp,sp,64
   12650:	004000eb 	ret

0000000000012654 <_dtoa_r>:
   12654:	11018183 	ld	v0,96(a0)

0000000000012658 <$LM76>:
   12658:	f7bc8013 	add	sp,sp,-224

000000000001265c <$LCFI1>:
   1265c:	0fbb21a3 	sd	s9,200(sp)
   12660:	0fb4e1a3 	sd	s6,184(sp)
   12664:	0fb2c1a3 	sd	s5,176(sp)
   12668:	0fae81a3 	sd	s3,160(sp)
   1266c:	0fac61a3 	sd	s2,152(sp)
   12670:	0faa41a3 	sd	s1,144(sp)
   12674:	0fa821a3 	sd	s0,136(sp)
   12678:	0fb701a3 	sd	s7,192(sp)
   1267c:	0fb0a1a3 	sd	s4,168(sp)
   12680:	0f8201a3 	sd	ra,128(sp)
   12684:	0fa961a7 	fsd	fs0,216(sp)

0000000000012688 <$LM77>:
   12688:	a1000013 	move	s0,a0
   1268c:	a9800013 	move	s1,a2
   12690:	b1c00013 	move	s2,a3
   12694:	ba000013 	move	s3,a4
   12698:	ca400013 	move	s5,a5
   1269c:	ea800013 	move	s9,a6

00000000000126a0 <$LM78>:
   126a0:	d341c0d3 	mftx.d	s6,ft3

00000000000126a4 <$LM79>:
   126a4:	00804863 	beqz	v0,126c8 <$L22>

00000000000126a8 <$LM80>:
   126a8:	1901a103 	lw	v1,104(a0)

00000000000126ac <$LM81>:
   126ac:	30000413 	li	a2,1

00000000000126b0 <$LM82>:
   126b0:	28800013 	move	a1,v0

00000000000126b4 <$LM83>:
   126b4:	318600bb 	sllw	a2,a2,v1

00000000000126b8 <$LM84>:
   126b8:	00862123 	sw	v1,8(v0)

00000000000126bc <$LM85>:
   126bc:	008c3123 	sw	a2,12(v0)

00000000000126c0 <$LM86>:
   126c0:	000a916f 	jal	15104 <_Bfree>

00000000000126c4 <$LM87>:
   126c4:	050181a3 	sd	zero,96(s0)

00000000000126c8 <$L22>:
   126c8:	16818293 	sra	v0,s6,0x20
   126cc:	c0800013 	move	s4,v0
   126d0:	00818263 	bltz	v0,12790 <$L203>

00000000000126d4 <$LM89>:
   126d4:	06400123 	sw	zero,0(s5)

00000000000126d8 <$L24>:
   126d8:	13ff8037 	lui	v0,0x7ff00
   126dc:	1e0403b3 	and	v1,s4,v0
   126e0:	00c4d863 	beq	v1,v0,1274c <$L204>

00000000000126e4 <$LM91>:
   126e4:	a681e0d3 	mxtf.d	fs0,s6
   126e8:	1001e0d3 	mxtf.d	fv0,zero
   126ec:	150550d3 	feq.d	v0,fs0,fv0
   126f0:	00819863 	beqz	v0,127bc <$L30>

00000000000126f4 <$LM92>:
   126f4:	10000413 	li	v0,1
   126f8:	05c40123 	sw	v0,0(s3)

00000000000126fc <$LM93>:
   126fc:	2f402863 	beqz	s9,12c10 <$L143>

0000000000012700 <$LM94>:
   12700:	10000d37 	lui	v0,0x1a
   12704:	10aa8413 	add	v0,v0,-1375

0000000000012708 <$LM95>:
   12708:	d8000d37 	lui	s7,0x1a

000000000001270c <$LM96>:
   1270c:	074401a3 	sd	v0,0(s9)

0000000000012710 <$LM97>:
   12710:	deea8013 	add	s7,s7,-1376

0000000000012714 <$L27>:
   12714:	0f820183 	ld	ra,128(sp)
   12718:	16c00013 	move	v0,s7
   1271c:	ef832183 	ld	s9,200(sp)

0000000000012720 <$LVL52>:
   12720:	df830183 	ld	s7,192(sp)
   12724:	d782e183 	ld	s6,184(sp)

0000000000012728 <$LVL53>:
   12728:	cf82c183 	ld	s5,176(sp)
   1272c:	c782a183 	ld	s4,168(sp)
   12730:	bf828183 	ld	s3,160(sp)

0000000000012734 <$LVL54>:
   12734:	b7826183 	ld	s2,152(sp)
   12738:	af824183 	ld	s1,144(sp)
   1273c:	a7822183 	ld	s0,136(sp)

0000000000012740 <$LVL55>:
   12740:	a7836187 	fld	fs0,216(sp)
   12744:	f7838013 	add	sp,sp,224
   12748:	004000eb 	ret

000000000001274c <$L204>:
   1274c:	10000413 	li	v0,1
   12750:	1080d093 	sll	v0,v0,0x34
   12754:	10bffc13 	add	v0,v0,-1
   12758:	d68403b3 	and	s6,s6,v0

000000000001275c <$LM100>:
   1275c:	10000137 	lui	v0,0x2
   12760:	109c3c1b 	addw	v0,v0,1807
   12764:	05c40123 	sw	v0,0(s3)

0000000000012768 <$LM101>:
   12768:	2680d8e3 	bnez	s6,12bd4 <$L142>
   1276c:	d8000d37 	lui	s7,0x1a
   12770:	deeaa013 	add	s7,s7,-1368

0000000000012774 <$L26>:
   12774:	ff414063 	beqz	s9,12714 <$L27>

0000000000012778 <$LM103>:
   12778:	1ec00c03 	lb	v1,3(s7)
   1277c:	16c00c13 	add	v0,s7,3
   12780:	00c01063 	beqz	v1,12788 <$L29>

0000000000012784 <$LM104>:
   12784:	16c02013 	add	v0,s7,8

0000000000012788 <$L29>:
   12788:	074401a3 	sd	v0,0(s9)
   1278c:	ffffe267 	j	12714 <$L27>

0000000000012790 <$L203>:
   12790:	c4000037 	lui	s4,0x80000
   12794:	c63ffc1b 	addw	s4,s4,-1
   12798:	10b003b3 	and	v0,v0,s4
   1279c:	d6808093 	sll	s6,s6,0x20

00000000000127a0 <$LVL60>:
   127a0:	18808093 	sll	v1,v0,0x20
   127a4:	d6808293 	srl	s6,s6,0x20

00000000000127a8 <$LM107>:
   127a8:	20000413 	li	a0,1
   127ac:	06480123 	sw	a0,0(s5)

00000000000127b0 <$LM108>:
   127b0:	c0800013 	move	s4,v0
   127b4:	d6860333 	or	s6,s6,v1
   127b8:	ffffc867 	j	126d8 <$L24>

00000000000127bc <$L30>:
   127bc:	6e81e0d3 	mxtf.d	ft3,s6
   127c0:	25000013 	move	a0,s0
   127c4:	37800013 	move	a2,sp
   127c8:	3f801013 	add	a3,sp,4
   127cc:	000d716f 	jal	15d90 <__d2b>
   127d0:	c8800013 	move	s5,v0

00000000000127d4 <$LM110>:
   127d4:	1600529b 	srlw	v0,s4,0x14

00000000000127d8 <$LVL63>:
   127d8:	109fff93 	and	v0,v0,2047

00000000000127dc <$LVL64>:
   127dc:	208008e3 	bnez	v0,12be0 <$L205>

00000000000127e0 <$LM111>:
   127e0:	1f801103 	lw	v1,4(sp)

00000000000127e4 <$LVL66>:
   127e4:	17800103 	lw	v0,0(sp)

00000000000127e8 <$LVL67>:
   127e8:	1086003b 	addw	v0,v0,v1

00000000000127ec <$LM112>:
   127ec:	20afbd13 	slt	a0,v0,-1041
   127f0:	4101f8e3 	bnez	a0,130ec <$L33>

00000000000127f4 <$LM113>:
   127f4:	28303813 	li	a1,-1010
   127f8:	2945003b 	subw	a1,a1,v0
   127fc:	3680009b 	sllw	a2,s6,0x0

0000000000012800 <$LVL69>:
   12800:	2090481b 	addw	a0,v0,1042
   12804:	2e0a00bb 	sllw	a1,s4,a1
   12808:	218802bb 	srlw	a0,a2,a0

000000000001280c <$LM114>:
   1280c:	29480333 	or	a1,a1,a0

0000000000012810 <$L34>:
   12810:	1140f0d3 	fcvt.d.wu	fv0,a1
   12814:	2881c0d3 	mftx.d	a1,fv0

0000000000012818 <$LM116>:
   12818:	27f08037 	lui	a0,0xfe100

000000000001281c <$LVL72>:
   1281c:	31418293 	sra	a2,a1,0x20
   12820:	2188003b 	addw	a0,a2,a0
   12824:	29408093 	sll	a1,a1,0x20

0000000000012828 <$LVL73>:
   12828:	21008093 	sll	a0,a0,0x20
   1282c:	29408293 	srl	a1,a1,0x20

0000000000012830 <$LM117>:
   12830:	30000413 	li	a2,1

0000000000012834 <$LM118>:
   12834:	29480333 	or	a1,a1,a0

0000000000012838 <$LM119>:
   12838:	10bffc1b 	addw	v0,v0,-1

000000000001283c <$LM120>:
   1283c:	078c81a3 	sd	a2,32(sp)

0000000000012840 <$L32>:
   12840:	20000d37 	lui	a0,0x1a
   12844:	212b0187 	fld	fa0,-1344(a0)
   12848:	1141e0d3 	mxtf.d	fv0,a1
   1284c:	20000d37 	lui	a0,0x1a
   12850:	20881ed3 	fsub.d	fa0,fv0,fa0
   12854:	112b2187 	fld	fv0,-1336(a0)
   12858:	20000d37 	lui	a0,0x1a
   1285c:	1880e0d3 	fcvt.d.w	fv1,v0
   12860:	21042ed3 	fmul.d	fa0,fa0,fv0
   12864:	112b6187 	fld	fv0,-1320(a0)
   12868:	20000d37 	lui	a0,0x1a
   1286c:	18c42ed3 	fmul.d	fv1,fv1,fv0
   12870:	112b4187 	fld	fv0,-1328(a0)
   12874:	11040ed3 	fadd.d	fv0,fa0,fv0
   12878:	10860ed3 	fadd.d	fv0,fv0,fv1

000000000001287c <$LM122>:
   1287c:	1801e0d3 	mxtf.d	fv1,zero
   12880:	288760d3 	flt.d	a1,fv0,fv1

0000000000012884 <$LM123>:
   12884:	2080a2d3 	fcvt.w.d	a0,fv0,rtz
   12888:	31000013 	move	a2,a0
   1288c:	078ce1a3 	sd	a2,56(sp)

0000000000012890 <$LM124>:
   12890:	01403063 	beqz	a1,128a8 <$L35>

0000000000012894 <$LM125>:
   12894:	1900e0d3 	fcvt.d.w	fv1,a0
   12898:	28c550d3 	feq.d	a1,fv1,fv0
   1289c:	014018e3 	bnez	a1,128a8 <$L35>

00000000000128a0 <$LM126>:
   128a0:	213ffc1b 	addw	a0,a0,-1

00000000000128a4 <$LVL78>:
   128a4:	0788e1a3 	sd	a0,56(sp)

00000000000128a8 <$L35>:
   128a8:	2f80e183 	ld	a1,56(sp)

00000000000128ac <$LM128>:
   128ac:	30000413 	li	a2,1
   128b0:	078d21a3 	sd	a2,72(sp)

00000000000128b4 <$LM129>:
   128b4:	21405d93 	sltu	a0,a1,23
   128b8:	01006863 	beqz	a0,128ec <$L37>

00000000000128bc <$LM130>:
   128bc:	20000cb7 	lui	a0,0x19
   128c0:	29400c93 	sll	a1,a1,0x3
   128c4:	21180013 	add	a0,a0,1536
   128c8:	21480033 	add	a0,a1,a0
   128cc:	11000187 	fld	fv0,0(a0)

00000000000128d0 <$LVL80>:
   128d0:	1e81e0d3 	mxtf.d	fv1,s6
   128d4:	20c560d3 	flt.d	a0,fv1,fv0
   128d8:	41005063 	beqz	a0,13100 <$L191>

00000000000128dc <$LM131>:
   128dc:	2780e183 	ld	a0,56(sp)

00000000000128e0 <$LM132>:
   128e0:	078121a3 	sd	zero,72(sp)

00000000000128e4 <$LM133>:
   128e4:	213ffc1b 	addw	a0,a0,-1
   128e8:	0788e1a3 	sd	a0,56(sp)

00000000000128ec <$L37>:
   128ec:	18c5003b 	subw	v1,v1,v0
   128f0:	18fffc1b 	addw	v1,v1,-1

00000000000128f4 <$LM135>:
   128f4:	38c14263 	bltz	v1,13094 <$L206>

00000000000128f8 <$LM136>:
   128f8:	078041a3 	sd	zero,16(sp)

00000000000128fc <$L39>:
   128fc:	2f80e183 	ld	a1,56(sp)
   12900:	3940ea63 	bltz	a1,13074 <$L40>

0000000000012904 <$LM138>:
   12904:	18ca003b 	addw	v1,v1,a1

0000000000012908 <$LVL85>:
   12908:	078ac1a3 	sd	a1,48(sp)

000000000001290c <$LM139>:
   1290c:	078061a3 	sd	zero,24(sp)

0000000000012910 <$L41>:
   12910:	15402993 	sltu	v0,s1,10
   12914:	18801063 	beqz	v0,12c1c <$L147>

0000000000012918 <$LM141>:
   12918:	15401913 	slt	v0,s1,6

000000000001291c <$LM142>:
   1291c:	c0000413 	li	s4,1

0000000000012920 <$LM143>:
   12920:	008018e3 	bnez	v0,1292c <$L43>

0000000000012924 <$LM144>:
   12924:	ad7ff01b 	addw	s1,s1,-4

0000000000012928 <$LM145>:
   12928:	c0000013 	li	s4,0

000000000001292c <$L43>:
   1292c:	10000c13 	li	v0,3
   12930:	5d458863 	beq	s1,v0,134f4 <$L150>
   12934:	15401113 	slt	v0,s1,4
   12938:	408158e3 	bnez	v0,131e4 <$L207>
   1293c:	10001013 	li	v0,4
   12940:	5d455063 	beq	s1,v0,134e8 <$L46>
   12944:	10001413 	li	v0,5
   12948:	1545b0e3 	bne	s1,v0,12c20 <$L42>

000000000001294c <$LM147>:
   1294c:	30000413 	li	a2,1
   12950:	078d01a3 	sd	a2,64(sp)

0000000000012954 <$L45>:
   12954:	1780e183 	ld	v0,56(sp)
   12958:	2584003b 	addw	a0,s2,v0
   1295c:	1100041b 	addw	v0,a0,1
   12960:	078961a3 	sd	a0,88(sp)

0000000000012964 <$LM149>:
   12964:	580572e3 	blez	v0,1351c <$L208>
   12968:	40800013 	move	a4,v0
   1296c:	30800013 	move	a2,v0
   12970:	0784a1a3 	sd	v0,40(sp)

0000000000012974 <$L50>:
   12974:	12008193 	sltu	v0,a4,32
   12978:	0501a123 	sw	zero,104(s0)
   1297c:	28000013 	li	a1,0
   12980:	008048e3 	bnez	v0,129a4 <$L52>
   12984:	20000413 	li	a0,1
   12988:	10001013 	li	v0,4

000000000001298c <$L53>:
   1298c:	1080049b 	sllw	v0,v0,0x1

0000000000012990 <$LM152>:
   12990:	38807013 	add	a3,v0,28

0000000000012994 <$LM153>:
   12994:	29000013 	move	a1,a0

0000000000012998 <$LM154>:
   12998:	2100041b 	addw	a0,a0,1

000000000001299c <$LM155>:
   1299c:	fa0fe3e3 	bleu	a3,a4,1298c <$L53>
   129a0:	050ba123 	sw	a1,104(s0)

00000000000129a4 <$L52>:
   129a4:	25000013 	move	a0,s0
   129a8:	0787e1a3 	sd	v1,120(sp)
   129ac:	078da1a3 	sd	a2,104(sp)
   129b0:	0009aa6f 	jal	15058 <_Balloc>

00000000000129b4 <$LM157>:
   129b4:	3781a183 	ld	a2,104(sp)

00000000000129b8 <$LM158>:
   129b8:	d8800013 	move	s7,v0
   129bc:	050581a3 	sd	v0,96(s0)

00000000000129c0 <$LM159>:
   129c0:	31803d93 	sltu	a2,a2,15
   129c4:	1f81e183 	ld	v1,120(sp)
   129c8:	11812863 	beqz	a2,12c5c <$L54>

00000000000129cc <$LM160>:
   129cc:	16012063 	beqz	s4,12c5c <$L54>

00000000000129d0 <$LM161>:
   129d0:	2780e183 	ld	a0,56(sp)

00000000000129d4 <$LM162>:
   129d4:	1681e0d3 	mxtf.d	fv0,s6
   129d8:	2e800013 	move	a1,s6

00000000000129dc <$LM163>:
   129dc:	58090ae3 	blez	a0,13560 <$L55>

00000000000129e0 <$LM164>:
   129e0:	31003f93 	and	a2,a0,15
   129e4:	10000cb7 	lui	v0,0x19

00000000000129e8 <$LM165>:
   129e8:	2101129b 	sraw	a0,a0,0x4

00000000000129ec <$LM166>:
   129ec:	31800c93 	sll	a2,a2,0x3
   129f0:	10980013 	add	v0,v0,1536
   129f4:	11840033 	add	v0,a2,v0

00000000000129f8 <$LM167>:
   129f8:	31004393 	and	a2,a0,16

00000000000129fc <$LM168>:
   129fc:	18800187 	fld	fv1,0(v0)

0000000000012a00 <$LM169>:
   12a00:	40000813 	li	a4,2

0000000000012a04 <$LM170>:
   12a04:	11000013 	move	v0,a0

0000000000012a08 <$LM171>:
   12a08:	01803863 	beqz	a2,12a24 <$L56>

0000000000012a0c <$LM172>:
   12a0c:	10000cb7 	lui	v0,0x19
   12a10:	10976013 	add	v0,v0,1496
   12a14:	20808187 	fld	fa0,32(v0)

0000000000012a18 <$LM173>:
   12a18:	40000c13 	li	a4,3

0000000000012a1c <$LM174>:
   12a1c:	11003f93 	and	v0,a0,15

0000000000012a20 <$LM175>:
   12a20:	10883ed3 	fdiv.d	fv0,fv0,fa0

0000000000012a24 <$L56>:
   12a24:	00807063 	beqz	v0,12a5c <$L57>

0000000000012a28 <$LM177>:
   12a28:	48000cb7 	lui	a5,0x19

0000000000012a2c <$LM178>:
   12a2c:	20000013 	li	a0,0

0000000000012a30 <$LM179>:
   12a30:	4a576013 	add	a5,a5,1496

0000000000012a34 <$L59>:
   12a34:	31000c93 	sll	a2,a0,0x3
   12a38:	39920033 	add	a3,a2,a5

0000000000012a3c <$LM180>:
   12a3c:	30800793 	and	a2,v0,1

0000000000012a40 <$LM181>:
   12a40:	10810693 	sra	v0,v0,0x1

0000000000012a44 <$LM182>:
   12a44:	01802063 	beqz	a2,12a54 <$L58>

0000000000012a48 <$LM183>:
   12a48:	21c00187 	fld	fa0,0(a3)

0000000000012a4c <$LM184>:
   12a4c:	4200041b 	addw	a4,a4,1

0000000000012a50 <$LM185>:
   12a50:	18c82ed3 	fmul.d	fv1,fv1,fa0

0000000000012a54 <$L58>:
   12a54:	2100041b 	addw	a0,a0,1
   12a58:	f881b8e3 	bnez	v0,12a34 <$L59>

0000000000012a5c <$L57>:
   12a5c:	10863ed3 	fdiv.d	fv0,fv0,fv1

0000000000012a60 <$L60>:
   12a60:	17812183 	ld	v0,72(sp)
   12a64:	4081a063 	beqz	v0,13334 <$L63>

0000000000012a68 <$LM189>:
   12a68:	10000d37 	lui	v0,0x1a
   12a6c:	18ab8187 	fld	fv1,-1312(v0)
   12a70:	108760d3 	flt.d	v0,fv0,fv1
   12a74:	40818063 	beqz	v0,13334 <$L63>
   12a78:	2780a183 	ld	a0,40(sp)
   12a7c:	69003863 	beqz	a0,13798 <$L65>

0000000000012a80 <$LM190>:
   12a80:	37816183 	ld	a2,88(sp)
   12a84:	500daae3 	blez	a2,13558 <$L66>

0000000000012a88 <$LM191>:
   12a88:	10000d37 	lui	v0,0x1a
   12a8c:	18aba187 	fld	fv1,-1304(v0)

0000000000012a90 <$LM192>:
   12a90:	4200041b 	addw	a4,a4,1

0000000000012a94 <$LM193>:
   12a94:	2200e0d3 	fcvt.d.w	fa0,a4

0000000000012a98 <$LM194>:
   12a98:	10862ed3 	fmul.d	fv0,fv0,fv1

0000000000012a9c <$LM195>:
   12a9c:	1780e183 	ld	v0,56(sp)

0000000000012aa0 <$LM196>:
   12aa0:	49800013 	move	a5,a2
   12aa4:	27e60037 	lui	a0,0xfcc00

0000000000012aa8 <$LM197>:
   12aa8:	40bffc1b 	addw	a4,v0,-1

0000000000012aac <$LM198>:
   12aac:	10000d37 	lui	v0,0x1a
   12ab0:	18abc187 	fld	fv1,-1296(v0)
   12ab4:	20882ed3 	fmul.d	fa0,fv0,fa0
   12ab8:	19060ed3 	fadd.d	fv1,fa0,fv1
   12abc:	10c1c0d3 	mftx.d	v0,fv1

0000000000012ac0 <$LM199>:
   12ac0:	30818293 	sra	a2,v0,0x20
   12ac4:	2188003b 	addw	a0,a2,a0
   12ac8:	10808093 	sll	v0,v0,0x20

0000000000012acc <$LVL112>:
   12acc:	21008093 	sll	a0,a0,0x20
   12ad0:	10808293 	srl	v0,v0,0x20
   12ad4:	10880333 	or	v0,v0,a0

0000000000012ad8 <$L67>:
   12ad8:	37810183 	ld	a2,64(sp)
   12adc:	5980a063 	beqz	a2,1362c <$L70>

0000000000012ae0 <$LM201>:
   12ae0:	327ffc1b 	addw	a2,a5,-1
   12ae4:	20000cb7 	lui	a0,0x19
   12ae8:	31800c93 	sll	a2,a2,0x3
   12aec:	21180013 	add	a0,a0,1536
   12af0:	21880033 	add	a0,a2,a0

0000000000012af4 <$LVL114>:
   12af4:	1881e0d3 	mxtf.d	fv1,v0
   12af8:	10000d37 	lui	v0,0x1a

0000000000012afc <$LVL115>:
   12afc:	28ac0187 	fld	fa1,-1280(v0)
   12b00:	21000187 	fld	fa0,0(a0)

0000000000012b04 <$LM202>:
   12b04:	2080a2d3 	fcvt.w.d	a0,fv0,rtz

0000000000012b08 <$LM203>:
   12b08:	1100c01b 	addw	v0,a0,48

0000000000012b0c <$LM204>:
   12b0c:	21483ed3 	fdiv.d	fa0,fa1,fa0

0000000000012b10 <$LM205>:
   12b10:	2900e0d3 	fcvt.d.w	fa1,a0
   12b14:	108a1ed3 	fsub.d	fv0,fv0,fa1

0000000000012b18 <$LM206>:
   12b18:	1080e093 	sll	v0,v0,0x38
   12b1c:	1081e293 	sra	v0,v0,0x38
   12b20:	06c40023 	sb	v0,0(s7)
   12b24:	c6c00413 	add	s4,s7,1

0000000000012b28 <$LM207>:
   12b28:	19061ed3 	fsub.d	fv1,fa0,fv1

0000000000012b2c <$LM208>:
   12b2c:	208760d3 	flt.d	a0,fv0,fv1

0000000000012b30 <$LVL118>:
   12b30:	0100f0e3 	bnez	a0,12ba8 <$L162>

0000000000012b34 <$LM209>:
   12b34:	20000d37 	lui	a0,0x1a
   12b38:	312b8187 	fld	fa2,-1312(a0)
   12b3c:	21841ed3 	fsub.d	fa0,fa2,fv0
   12b40:	210760d3 	flt.d	a0,fa0,fv1
   12b44:	610098e3 	bnez	a0,13790 <$L161>

0000000000012b48 <$LM210>:
   12b48:	12400913 	slt	v0,a5,2
   12b4c:	508018e3 	bnez	v0,13558 <$L66>
   12b50:	10000d37 	lui	v0,0x1a
   12b54:	30000413 	li	a2,1

0000000000012b58 <$LM211>:
   12b58:	20aba187 	fld	fa0,-1304(v0)
   12b5c:	00000567 	j	12b70 <$L73>

0000000000012b60 <$L192>:
   12b60:	29841ed3 	fsub.d	fa1,fa2,fv0
   12b64:	394760d3 	flt.d	a3,fa1,fv1
   12b68:	61c050e3 	bnez	a3,13790 <$L161>

0000000000012b6c <$LM213>:
   12b6c:	4913d863 	beq	a0,a5,13558 <$L66>

0000000000012b70 <$L73>:
   12b70:	10882ed3 	fmul.d	fv0,fv0,fa0

0000000000012b74 <$LM215>:
   12b74:	18c82ed3 	fmul.d	fv1,fv1,fa0

0000000000012b78 <$LM216>:
   12b78:	2180041b 	addw	a0,a2,1
   12b7c:	31000013 	move	a2,a0

0000000000012b80 <$LM217>:
   12b80:	1080a2d3 	fcvt.w.d	v0,fv0,rtz

0000000000012b84 <$LM218>:
   12b84:	2880e0d3 	fcvt.d.w	fa1,v0
   12b88:	108a1ed3 	fsub.d	fv0,fv0,fa1

0000000000012b8c <$LM219>:
   12b8c:	1080c01b 	addw	v0,v0,48

0000000000012b90 <$LVL126>:
   12b90:	1080e093 	sll	v0,v0,0x38

0000000000012b94 <$LVL127>:
   12b94:	1081e293 	sra	v0,v0,0x38

0000000000012b98 <$LM220>:
   12b98:	388760d3 	flt.d	a3,fv0,fv1

0000000000012b9c <$LM221>:
   12b9c:	06040023 	sb	v0,0(s4)
   12ba0:	c6000413 	add	s4,s4,1

0000000000012ba4 <$LM222>:
   12ba4:	f9c17863 	beqz	a3,12b60 <$L192>

0000000000012ba8 <$L162>:
   12ba8:	0790e1a3 	sd	a4,56(sp)

0000000000012bac <$L71>:
   12bac:	25000013 	move	a0,s0
   12bb0:	2e400013 	move	a1,s5
   12bb4:	0009546f 	jal	15104 <_Bfree>

0000000000012bb8 <$LM224>:
   12bb8:	1f80e183 	ld	v1,56(sp)

0000000000012bbc <$LM225>:
   12bbc:	06000023 	sb	zero,0(s4)

0000000000012bc0 <$LM226>:
   12bc0:	10c0041b 	addw	v0,v1,1
   12bc4:	05c40123 	sw	v0,0(s3)

0000000000012bc8 <$LM227>:
   12bc8:	df409863 	beqz	s9,12714 <$L27>

0000000000012bcc <$LM228>:
   12bcc:	077001a3 	sd	s4,0(s9)
   12bd0:	fffed167 	j	12714 <$L27>

0000000000012bd4 <$L142>:
   12bd4:	d8000d37 	lui	s7,0x1a
   12bd8:	deeae013 	add	s7,s7,-1352
   12bdc:	fffee667 	j	12774 <$L26>

0000000000012be0 <$L205>:
   12be0:	26803093 	sll	a0,s6,0xc
   12be4:	2100b293 	srl	a0,a0,0x2c

0000000000012be8 <$LM231>:
   12be8:	19ff8037 	lui	v1,0x3ff00
   12bec:	19060333 	or	v1,a0,v1
   12bf0:	2e808093 	sll	a1,s6,0x20
   12bf4:	18c08093 	sll	v1,v1,0x20
   12bf8:	29408293 	srl	a1,a1,0x20
   12bfc:	29460333 	or	a1,a1,v1

0000000000012c00 <$LM232>:
   12c00:	10b0041b 	addw	v0,v0,-1023

0000000000012c04 <$LVL133>:
   12c04:	1f801103 	lw	v1,4(sp)

0000000000012c08 <$LM233>:
   12c08:	078081a3 	sd	zero,32(sp)
   12c0c:	ffff0d67 	j	12840 <$L32>

0000000000012c10 <$L143>:
   12c10:	d8000d37 	lui	s7,0x1a
   12c14:	deea8013 	add	s7,s7,-1376
   12c18:	fffebf67 	j	12714 <$L27>

0000000000012c1c <$L147>:
   12c1c:	a8000013 	li	s1,0

0000000000012c20 <$L42>:
   12c20:	0501a123 	sw	zero,104(s0)

0000000000012c24 <$LM237>:
   12c24:	25000013 	move	a0,s0
   12c28:	28000013 	li	a1,0
   12c2c:	0787e1a3 	sd	v1,120(sp)
   12c30:	00090a6f 	jal	15058 <_Balloc>

0000000000012c34 <$LVL137>:
   12c34:	1f81e183 	ld	v1,120(sp)
   12c38:	d8800013 	move	s7,v0
   12c3c:	050581a3 	sd	v0,96(s0)

0000000000012c40 <$LVL138>:
   12c40:	303ffc13 	li	a2,-1
   12c44:	103ffc13 	li	v0,-1

0000000000012c48 <$LVL139>:
   12c48:	20000413 	li	a0,1
   12c4c:	078d61a3 	sd	a2,88(sp)
   12c50:	0784a1a3 	sd	v0,40(sp)
   12c54:	078901a3 	sd	a0,64(sp)
   12c58:	b0000013 	li	s2,0

0000000000012c5c <$L54>:
   12c5c:	17800103 	lw	v0,0(sp)
   12c60:	08802263 	bltz	v0,12d70 <$L81>

0000000000012c64 <$LM239>:
   12c64:	2f80e183 	ld	a1,56(sp)

0000000000012c68 <$LVL142>:
   12c68:	21403d13 	slt	a0,a1,15
   12c6c:	09000863 	beqz	a0,12d70 <$L81>

0000000000012c70 <$LM240>:
   12c70:	10000cb7 	lui	v0,0x19
   12c74:	19400c93 	sll	v1,a1,0x3
   12c78:	10980013 	add	v0,v0,1536
   12c7c:	10c40033 	add	v0,v1,v0
   12c80:	18800187 	fld	fv1,0(v0)

0000000000012c84 <$LM241>:
   12c84:	2d811a63 	bltz	s2,13210 <$L82>

0000000000012c88 <$L85>:
   12c88:	1681e0d3 	mxtf.d	fv0,s6

0000000000012c8c <$LM243>:
   12c8c:	3780a183 	ld	a2,40(sp)

0000000000012c90 <$LM244>:
   12c90:	20863ed3 	fdiv.d	fa0,fv0,fv1

0000000000012c94 <$LM245>:
   12c94:	c6c00413 	add	s4,s7,1

0000000000012c98 <$LM246>:
   12c98:	1900a2d3 	fcvt.w.d	v1,fa0,rtz

0000000000012c9c <$LM247>:
   12c9c:	20c0e0d3 	fcvt.d.w	fa0,v1
   12ca0:	21062ed3 	fmul.d	fa0,fa0,fv1

0000000000012ca4 <$LM248>:
   12ca4:	10c0c01b 	addw	v0,v1,48

0000000000012ca8 <$LVL146>:
   12ca8:	06c40023 	sb	v0,0(s7)

0000000000012cac <$LM249>:
   12cac:	10000413 	li	v0,1

0000000000012cb0 <$LM250>:
   12cb0:	10881ed3 	fsub.d	fv0,fv0,fa0

0000000000012cb4 <$LM251>:
   12cb4:	0184c063 	beq	a2,v0,12d14 <$L83>

0000000000012cb8 <$LM252>:
   12cb8:	10000d37 	lui	v0,0x1a
   12cbc:	30aba187 	fld	fa2,-1304(v0)
   12cc0:	2801e0d3 	mxtf.d	fa1,zero
   12cc4:	20000413 	li	a0,1
   12cc8:	108c2ed3 	fmul.d	fv0,fv0,fa2
   12ccc:	108b50d3 	feq.d	v0,fv0,fa1
   12cd0:	00802863 	beqz	v0,12ce4 <$L86>
   12cd4:	ffffb667 	j	12bac <$L71>

0000000000012cd8 <$L197>:
   12cd8:	108c2ed3 	fmul.d	fv0,fv0,fa2
   12cdc:	108b50d3 	feq.d	v0,fv0,fa1

0000000000012ce0 <$LVL148>:
   12ce0:	f08198e3 	bnez	v0,12bac <$L71>

0000000000012ce4 <$L86>:
   12ce4:	20863ed3 	fdiv.d	fa0,fv0,fv1

0000000000012ce8 <$LM254>:
   12ce8:	1100041b 	addw	v0,a0,1

0000000000012cec <$LVL150>:
   12cec:	20800013 	move	a0,v0

0000000000012cf0 <$LM255>:
   12cf0:	1900a2d3 	fcvt.w.d	v1,fa0,rtz

0000000000012cf4 <$LM256>:
   12cf4:	20c0e0d3 	fcvt.d.w	fa0,v1
   12cf8:	21062ed3 	fmul.d	fa0,fa0,fv1

0000000000012cfc <$LM257>:
   12cfc:	28c0c01b 	addw	a1,v1,48
   12d00:	060a0023 	sb	a1,0(s4)

0000000000012d04 <$LM258>:
   12d04:	2f80a183 	ld	a1,40(sp)

0000000000012d08 <$LM259>:
   12d08:	c6000413 	add	s4,s4,1

0000000000012d0c <$LM260>:
   12d0c:	10881ed3 	fsub.d	fv0,fv0,fa0

0000000000012d10 <$LM261>:
   12d10:	f88b90e3 	bne	v0,a1,12cd8 <$L197>

0000000000012d14 <$L83>:
   12d14:	10840ed3 	fadd.d	fv0,fv0,fv0

0000000000012d18 <$LM263>:
   12d18:	10c560d3 	flt.d	v0,fv1,fv0
   12d1c:	008028e3 	bnez	v0,12d30 <$L200>

0000000000012d20 <$LM264>:
   12d20:	10c550d3 	feq.d	v0,fv1,fv0
   12d24:	f0811063 	beqz	v0,12bac <$L71>
   12d28:	18c00793 	and	v1,v1,1
   12d2c:	f0c10063 	beqz	v1,12bac <$L71>

0000000000012d30 <$L200>:
   12d30:	163ffc03 	lb	v0,-1(s4)

0000000000012d34 <$L90>:
   12d34:	2000e413 	li	a0,57
   12d38:	00000367 	j	12d44 <$L196>

0000000000012d3c <$L210>:
   12d3c:	10fffc03 	lb	v0,-1(v1)
   12d40:	c0c00013 	move	s4,v1

0000000000012d44 <$L196>:
   12d44:	1e3ffc13 	add	v1,s4,-1
   12d48:	4889b0e3 	bne	v0,a0,13720 <$L209>

0000000000012d4c <$LM269>:
   12d4c:	fec7e0e3 	bne	s7,v1,12d3c <$L210>

0000000000012d50 <$LM270>:
   12d50:	1f80e183 	ld	v1,56(sp)

0000000000012d54 <$LM271>:
   12d54:	1000c013 	li	v0,48
   12d58:	fe05fc23 	sb	v0,-1(s4)

0000000000012d5c <$LM272>:
   12d5c:	18c0041b 	addw	v1,v1,1

0000000000012d60 <$LM273>:
   12d60:	1000c413 	li	v0,49

0000000000012d64 <$LM274>:
   12d64:	0786e1a3 	sd	v1,56(sp)

0000000000012d68 <$LM275>:
   12d68:	fe05fc23 	sb	v0,-1(s4)

0000000000012d6c <$LVL158>:
   12d6c:	ffff9067 	j	12bac <$L71>

0000000000012d70 <$L81>:
   12d70:	37810183 	ld	a2,64(sp)
   12d74:	19806063 	beqz	a2,130a4 <$L167>

0000000000012d78 <$LM277>:
   12d78:	25400913 	slt	a0,s1,2
   12d7c:	07894123 	sw	a0,80(sp)
   12d80:	290030e3 	bnez	a0,13298 <$L211>

0000000000012d84 <$LM278>:
   12d84:	1780a183 	ld	v0,40(sp)

0000000000012d88 <$LM279>:
   12d88:	27806183 	ld	a0,24(sp)

0000000000012d8c <$LM280>:
   12d8c:	38bffc1b 	addw	a3,v0,-1

0000000000012d90 <$LM281>:
   12d90:	390eda63 	blt	a0,a3,134fc <$L98>

0000000000012d94 <$LM282>:
   12d94:	390f003b 	subw	a3,a0,a3

0000000000012d98 <$L99>:
   12d98:	1780a183 	ld	v0,40(sp)
   12d9c:	4880ba63 	bltz	v0,136f8 <$L212>

0000000000012da0 <$LM284>:
   12da0:	c7804183 	ld	s4,16(sp)

0000000000012da4 <$LM285>:
   12da4:	1780a183 	ld	v0,40(sp)

0000000000012da8 <$L97>:
   12da8:	37804183 	ld	a2,16(sp)

0000000000012dac <$LM287>:
   12dac:	18c4003b 	addw	v1,v1,v0

0000000000012db0 <$LM288>:
   12db0:	25000013 	move	a0,s0

0000000000012db4 <$LM289>:
   12db4:	3184003b 	addw	a2,a2,v0

0000000000012db8 <$LM290>:
   12db8:	28000413 	li	a1,1

0000000000012dbc <$LVL163>:
   12dbc:	0787e1a3 	sd	v1,120(sp)
   12dc0:	078fa1a3 	sd	a3,104(sp)

0000000000012dc4 <$LM291>:
   12dc4:	078c41a3 	sd	a2,16(sp)

0000000000012dc8 <$LM292>:
   12dc8:	0009be6f 	jal	154c0 <__i2b>

0000000000012dcc <$LVL165>:
   12dcc:	1f81e183 	ld	v1,120(sp)
   12dd0:	3f81a183 	ld	a3,104(sp)
   12dd4:	078481a3 	sd	v0,32(sp)

0000000000012dd8 <$L94>:
   12dd8:	06004863 	beqz	s4,12dfc <$L100>

0000000000012ddc <$LM294>:
   12ddc:	000642e3 	blez	v1,12dfc <$L100>

0000000000012de0 <$LM295>:
   12de0:	10c00013 	move	v0,v1
   12de4:	26064a63 	blt	s4,v1,13208 <$L213>

0000000000012de8 <$L101>:
   12de8:	27804183 	ld	a0,16(sp)

0000000000012dec <$LM297>:
   12dec:	c605003b 	subw	s4,s4,v0

0000000000012df0 <$LM298>:
   12df0:	18c5003b 	subw	v1,v1,v0

0000000000012df4 <$LM299>:
   12df4:	2105003b 	subw	a0,a0,v0
   12df8:	078841a3 	sd	a0,16(sp)

0000000000012dfc <$L100>:
   12dfc:	2f806183 	ld	a1,24(sp)

0000000000012e00 <$LVL171>:
   12e00:	000ad2e3 	blez	a1,12e68 <$L102>

0000000000012e04 <$LM301>:
   12e04:	37810183 	ld	a2,64(sp)
   12e08:	31818063 	beqz	a2,134c8 <$L103>

0000000000012e0c <$LM302>:
   12e0c:	000ea2e3 	blez	a3,12e5c <$L104>

0000000000012e10 <$LM303>:
   12e10:	2f808183 	ld	a1,32(sp)
   12e14:	31c00013 	move	a2,a3
   12e18:	25000013 	move	a0,s0
   12e1c:	0787e1a3 	sd	v1,120(sp)
   12e20:	078fa1a3 	sd	a3,104(sp)
   12e24:	000a396f 	jal	15708 <__pow5mult>

0000000000012e28 <$LM304>:
   12e28:	28800013 	move	a1,v0
   12e2c:	36400013 	move	a2,s5
   12e30:	25000013 	move	a0,s0

0000000000012e34 <$LM305>:
   12e34:	078481a3 	sd	v0,32(sp)

0000000000012e38 <$LM306>:
   12e38:	0009af6f 	jal	154f4 <__multiply>

0000000000012e3c <$LM307>:
   12e3c:	2e400013 	move	a1,s5
   12e40:	25000013 	move	a0,s0
   12e44:	0785c1a3 	sd	v0,112(sp)
   12e48:	0008af6f 	jal	15104 <_Bfree>

0000000000012e4c <$LM308>:
   12e4c:	1781c183 	ld	v0,112(sp)
   12e50:	3f81a183 	ld	a3,104(sp)
   12e54:	1f81e183 	ld	v1,120(sp)
   12e58:	c8800013 	move	s5,v0

0000000000012e5c <$L104>:
   12e5c:	17806183 	ld	v0,24(sp)
   12e60:	388f003b 	subw	a3,v0,a3

0000000000012e64 <$LVL177>:
   12e64:	19c1d8e3 	bnez	a3,13250 <$L214>

0000000000012e68 <$L102>:
   12e68:	25000013 	move	a0,s0
   12e6c:	28000413 	li	a1,1
   12e70:	0787e1a3 	sd	v1,120(sp)
   12e74:	0009936f 	jal	154c0 <__i2b>

0000000000012e78 <$LM311>:
   12e78:	2780c183 	ld	a0,48(sp)

0000000000012e7c <$LM312>:
   12e7c:	078461a3 	sd	v0,24(sp)

0000000000012e80 <$LM313>:
   12e80:	1f81e183 	ld	v1,120(sp)
   12e84:	00083ae3 	blez	a0,12ea0 <$L105>

0000000000012e88 <$LM314>:
   12e88:	3780c183 	ld	a2,48(sp)
   12e8c:	25000013 	move	a0,s0
   12e90:	28800013 	move	a1,v0
   12e94:	000a1d6f 	jal	15708 <__pow5mult>

0000000000012e98 <$LVL180>:
   12e98:	1f81e183 	ld	v1,120(sp)
   12e9c:	078461a3 	sd	v0,24(sp)

0000000000012ea0 <$L105>:
   12ea0:	2f814103 	lw	a1,80(sp)

0000000000012ea4 <$LM316>:
   12ea4:	078181a3 	sd	zero,96(sp)

0000000000012ea8 <$LM317>:
   12ea8:	2941c0e3 	bnez	a1,13488 <$L215>

0000000000012eac <$L106>:
   12eac:	2780c183 	ld	a0,48(sp)
   12eb0:	10000413 	li	v0,1
   12eb4:	290098e3 	bnez	a0,13400 <$L216>

0000000000012eb8 <$L107>:
   12eb8:	1086003b 	addw	v0,v0,v1
   12ebc:	10807f93 	and	v0,v0,31

0000000000012ec0 <$LVL184>:
   12ec0:	20007013 	li	a0,28
   12ec4:	0881f0e3 	bnez	v0,130bc <$L217>

0000000000012ec8 <$L108>:
   12ec8:	17804183 	ld	v0,16(sp)

0000000000012ecc <$LM321>:
   12ecc:	c608003b 	addw	s4,s4,a0

0000000000012ed0 <$LM322>:
   12ed0:	18c8003b 	addw	v1,v1,a0

0000000000012ed4 <$LM323>:
   12ed4:	1088003b 	addw	v0,v0,a0
   12ed8:	078441a3 	sd	v0,16(sp)

0000000000012edc <$L110>:
   12edc:	27804183 	ld	a0,16(sp)
   12ee0:	000842e3 	blez	a0,12f00 <$L111>

0000000000012ee4 <$LM325>:
   12ee4:	37804183 	ld	a2,16(sp)
   12ee8:	2e400013 	move	a1,s5
   12eec:	25000013 	move	a0,s0
   12ef0:	0787e1a3 	sd	v1,120(sp)
   12ef4:	000a4e6f 	jal	1582c <__lshift>

0000000000012ef8 <$LVL188>:
   12ef8:	1f81e183 	ld	v1,120(sp)
   12efc:	c8800013 	move	s5,v0

0000000000012f00 <$L111>:
   12f00:	000632e3 	blez	v1,12f18 <$L112>

0000000000012f04 <$LM327>:
   12f04:	2f806183 	ld	a1,24(sp)
   12f08:	25000013 	move	a0,s0
   12f0c:	30c00013 	move	a2,v1
   12f10:	000a476f 	jal	1582c <__lshift>
   12f14:	078461a3 	sd	v0,24(sp)

0000000000012f18 <$L112>:
   12f18:	1f812183 	ld	v1,72(sp)
   12f1c:	20c108e3 	bnez	v1,133a0 <$L218>

0000000000012f20 <$L113>:
   12f20:	1f80a183 	ld	v1,40(sp)
   12f24:	280622e3 	blez	v1,13434 <$L219>

0000000000012f28 <$L114>:
   12f28:	1f810183 	ld	v1,64(sp)
   12f2c:	08c1b863 	beqz	v1,13108 <$L175>

0000000000012f30 <$LM331>:
   12f30:	003032e3 	blez	s4,12f48 <$L117>

0000000000012f34 <$LM332>:
   12f34:	2f808183 	ld	a1,32(sp)
   12f38:	25000013 	move	a0,s0
   12f3c:	36000013 	move	a2,s4
   12f40:	000a3b6f 	jal	1582c <__lshift>
   12f44:	078481a3 	sd	v0,32(sp)

0000000000012f48 <$L117>:
   12f48:	1f808183 	ld	v1,32(sp)
   12f4c:	078641a3 	sd	v1,16(sp)
   12f50:	1f818183 	ld	v1,96(sp)
   12f54:	30c108e3 	bnez	v1,135d8 <$L220>

0000000000012f58 <$L118>:
   12f58:	18000413 	li	v1,1
   12f5c:	0786c1a3 	sd	v1,48(sp)

0000000000012f60 <$LM334>:
   12f60:	1f80a183 	ld	v1,40(sp)

0000000000012f64 <$LM335>:
   12f64:	b7808183 	ld	s2,32(sp)

0000000000012f68 <$LM336>:
   12f68:	d6800793 	and	s6,s6,1

0000000000012f6c <$LM337>:
   12f6c:	c6c00013 	move	s4,s7

0000000000012f70 <$LM338>:
   12f70:	07b52123 	sw	s6,72(sp)

0000000000012f74 <$LM339>:
   12f74:	0786a123 	sw	v1,40(sp)

0000000000012f78 <$L133>:
   12f78:	2f806183 	ld	a1,24(sp)
   12f7c:	26400013 	move	a0,s5
   12f80:	fffd326f 	jal	12448 <quorem>

0000000000012f84 <$LM341>:
   12f84:	26400013 	move	a0,s5
   12f88:	2d800013 	move	a1,s2

0000000000012f8c <$LM342>:
   12f8c:	078501a3 	sd	v0,64(sp)

0000000000012f90 <$LM343>:
   12f90:	000a886f 	jal	159b0 <__mcmp>

0000000000012f94 <$LM344>:
   12f94:	2f806183 	ld	a1,24(sp)
   12f98:	37804183 	ld	a2,16(sp)
   12f9c:	25000013 	move	a0,s0

0000000000012fa0 <$LM345>:
   12fa0:	078481a3 	sd	v0,32(sp)

0000000000012fa4 <$LM346>:
   12fa4:	000a976f 	jal	15a00 <__mdiff>

0000000000012fa8 <$LM347>:
   12fa8:	20804103 	lw	a0,16(v0)

0000000000012fac <$LM348>:
   12fac:	2f810183 	ld	a1,64(sp)

0000000000012fb0 <$LM349>:
   12fb0:	18800013 	move	v1,v0

0000000000012fb4 <$LM350>:
   12fb4:	10000413 	li	v0,1

0000000000012fb8 <$LM351>:
   12fb8:	d140c01b 	addw	s6,a1,48

0000000000012fbc <$LM352>:
   12fbc:	19008063 	beqz	a0,132fc <$L221>

0000000000012fc0 <$L119>:
   12fc0:	28c00013 	move	a1,v1
   12fc4:	25000013 	move	a0,s0
   12fc8:	0785c1a3 	sd	v0,112(sp)
   12fcc:	00084e6f 	jal	15104 <_Bfree>

0000000000012fd0 <$LM354>:
   12fd0:	1781c183 	ld	v0,112(sp)
   12fd4:	18aa0333 	or	v1,v0,s1
   12fd8:	00c018e3 	bnez	v1,12fe4 <$L120>

0000000000012fdc <$LM355>:
   12fdc:	1f812103 	lw	v1,72(sp)
   12fe0:	38c13863 	beqz	v1,1377c <$L222>

0000000000012fe4 <$L120>:
   12fe4:	1f808183 	ld	v1,32(sp)
   12fe8:	10c19263 	bltz	v1,132b0 <$L123>

0000000000012fec <$LM357>:
   12fec:	18ea0333 	or	v1,v1,s1
   12ff0:	00c018e3 	bnez	v1,12ffc <$L124>

0000000000012ff4 <$LM358>:
   12ff4:	1f812103 	lw	v1,72(sp)
   12ff8:	10c17063 	beqz	v1,132b0 <$L123>

0000000000012ffc <$L124>:
   12ffc:	3005c263 	bgtz	v0,136dc <$L223>

0000000000013000 <$LM360>:
   13000:	1f80c183 	ld	v1,48(sp)
   13004:	2780a103 	lw	a0,40(sp)

0000000000013008 <$LM361>:
   13008:	06340023 	sb	s6,0(s4)
   1300c:	c6000413 	add	s4,s4,1

0000000000013010 <$LM362>:
   13010:	30c9b863 	beq	v1,a0,136ec <$L179>

0000000000013014 <$LM363>:
   13014:	2e400013 	move	a1,s5
   13018:	25000013 	move	a0,s0
   1301c:	30002813 	li	a2,10
   13020:	38000013 	li	a3,0
   13024:	0008416f 	jal	15128 <__multadd>

0000000000013028 <$LM364>:
   13028:	1f804183 	ld	v1,16(sp)

000000000001302c <$LM365>:
   1302c:	c8800013 	move	s5,v0

0000000000013030 <$LM366>:
   13030:	1587c863 	beq	s2,v1,13314 <$L224>

0000000000013034 <$LM367>:
   13034:	2d800013 	move	a1,s2
   13038:	30002813 	li	a2,10
   1303c:	38000013 	li	a3,0
   13040:	25000013 	move	a0,s0
   13044:	0008396f 	jal	15128 <__multadd>

0000000000013048 <$LM368>:
   13048:	2f804183 	ld	a1,16(sp)
   1304c:	25000013 	move	a0,s0
   13050:	30002813 	li	a2,10
   13054:	38000013 	li	a3,0

0000000000013058 <$LM369>:
   13058:	b0800013 	move	s2,v0

000000000001305c <$LM370>:
   1305c:	0008336f 	jal	15128 <__multadd>

0000000000013060 <$LVL204>:
   13060:	078441a3 	sd	v0,16(sp)

0000000000013064 <$L132>:
   13064:	1f80c183 	ld	v1,48(sp)
   13068:	18c0041b 	addw	v1,v1,1
   1306c:	0786c1a3 	sd	v1,48(sp)

0000000000013070 <$LM372>:
   13070:	ffffc267 	j	12f78 <$L133>

0000000000013074 <$L40>:
   13074:	3780e183 	ld	a2,56(sp)

0000000000013078 <$LM374>:
   13078:	27804183 	ld	a0,16(sp)

000000000001307c <$LM375>:
   1307c:	0780c1a3 	sd	zero,48(sp)

0000000000013080 <$LM376>:
   13080:	100d003b 	neg	v0,a2

0000000000013084 <$LM377>:
   13084:	210d003b 	subw	a0,a0,a2
   13088:	078841a3 	sd	a0,16(sp)

000000000001308c <$LM378>:
   1308c:	078461a3 	sd	v0,24(sp)

0000000000013090 <$LVL210>:
   13090:	fffe2067 	j	12910 <$L41>

0000000000013094 <$L206>:
   13094:	1807003b 	neg	v1,v1

0000000000013098 <$LVL212>:
   13098:	078641a3 	sd	v1,16(sp)

000000000001309c <$LM380>:
   1309c:	18000013 	li	v1,0

00000000000130a0 <$LVL214>:
   130a0:	fffe1767 	j	128fc <$L39>

00000000000130a4 <$L167>:
   130a4:	15400913 	slt	v0,s1,2

00000000000130a8 <$LM381>:
   130a8:	3f806183 	ld	a3,24(sp)

00000000000130ac <$LM382>:
   130ac:	c7804183 	ld	s4,16(sp)

00000000000130b0 <$LM383>:
   130b0:	078081a3 	sd	zero,32(sp)
   130b4:	07854123 	sw	v0,80(sp)
   130b8:	ffff4867 	j	12dd8 <$L94>

00000000000130bc <$L217>:
   130bc:	20008013 	li	a0,32
   130c0:	2105003b 	subw	a0,a0,v0

00000000000130c4 <$LM385>:
   130c4:	29001513 	slt	a1,a0,5
   130c8:	394030e3 	bnez	a1,137e0 <$L109>

00000000000130cc <$LM386>:
   130cc:	37804183 	ld	a2,16(sp)

00000000000130d0 <$LM387>:
   130d0:	20007013 	li	a0,28

00000000000130d4 <$LVL218>:
   130d4:	1105003b 	subw	v0,a0,v0

00000000000130d8 <$LM388>:
   130d8:	308c003b 	addw	a2,v0,a2
   130dc:	078c41a3 	sd	a2,16(sp)

00000000000130e0 <$LM389>:
   130e0:	c0b0003b 	addw	s4,v0,s4

00000000000130e4 <$LM390>:
   130e4:	1886003b 	addw	v1,v0,v1
   130e8:	ffff7d67 	j	12edc <$L110>

00000000000130ec <$L33>:
   130ec:	202fb813 	li	a0,-1042
   130f0:	2e80009b 	sllw	a1,s6,0x0

00000000000130f4 <$LVL223>:
   130f4:	2105003b 	subw	a0,a0,v0
   130f8:	294800bb 	sllw	a1,a1,a0
   130fc:	fffdc567 	j	12810 <$L34>

0000000000013100 <$L191>:
   13100:	078121a3 	sd	zero,72(sp)
   13104:	fffdfa67 	j	128ec <$L37>

0000000000013108 <$L175>:
   13108:	c6c00013 	move	s4,s7

000000000001310c <$LVL226>:
   1310c:	a8000413 	li	s1,1
   13110:	00000467 	j	13120 <$L116>

0000000000013114 <$L225>:
   13114:	0008056f 	jal	15128 <__multadd>

0000000000013118 <$LVL228>:
   13118:	c8800013 	move	s5,v0

000000000001311c <$LM395>:
   1311c:	ad40041b 	addw	s1,s1,1

0000000000013120 <$L116>:
   13120:	2f806183 	ld	a1,24(sp)
   13124:	26400013 	move	a0,s5
   13128:	fffcc86f 	jal	12448 <quorem>

000000000001312c <$LM397>:
   1312c:	1f80a183 	ld	v1,40(sp)

0000000000013130 <$LM398>:
   13130:	d080c01b 	addw	s6,v0,48

0000000000013134 <$LVL231>:
   13134:	06340023 	sb	s6,0(s4)

0000000000013138 <$LM399>:
   13138:	25000013 	move	a0,s0
   1313c:	2e400013 	move	a1,s5
   13140:	30002813 	li	a2,10
   13144:	38000013 	li	a3,0

0000000000013148 <$LM400>:
   13148:	c6000413 	add	s4,s4,1

000000000001314c <$LM401>:
   1314c:	fd479263 	blt	s1,v1,13114 <$L225>

0000000000013150 <$LM402>:
   13150:	b0000013 	li	s2,0

0000000000013154 <$L130>:
   13154:	2e400013 	move	a1,s5
   13158:	25000013 	move	a0,s0
   1315c:	30000413 	li	a2,1
   13160:	0009b36f 	jal	1582c <__lshift>

0000000000013164 <$LM404>:
   13164:	2f806183 	ld	a1,24(sp)
   13168:	20800013 	move	a0,v0

000000000001316c <$LM405>:
   1316c:	c8800013 	move	s5,v0

0000000000013170 <$LM406>:
   13170:	000a106f 	jal	159b0 <__mcmp>

0000000000013174 <$LM407>:
   13174:	0005fae3 	blez	v0,13270 <$L226>

0000000000013178 <$L134>:
   13178:	1e3ffc03 	lb	v1,-1(s4)

000000000001317c <$L129>:
   1317c:	2000e413 	li	a0,57
   13180:	00000367 	j	1318c <$L198>

0000000000013184 <$L228>:
   13184:	18bffc03 	lb	v1,-1(v0)
   13188:	c0800013 	move	s4,v0

000000000001318c <$L198>:
   1318c:	163ffc13 	add	v0,s4,-1
   13190:	20c878e3 	bne	v1,a0,135cc <$L227>

0000000000013194 <$LM412>:
   13194:	fec5e0e3 	bne	s7,v0,13184 <$L228>

0000000000013198 <$LM413>:
   13198:	1f80e183 	ld	v1,56(sp)

000000000001319c <$LM414>:
   1319c:	1000c413 	li	v0,49
   131a0:	fe05fc23 	sb	v0,-1(s4)

00000000000131a4 <$LM415>:
   131a4:	18c0041b 	addw	v1,v1,1
   131a8:	0786e1a3 	sd	v1,56(sp)

00000000000131ac <$L115>:
   131ac:	2f806183 	ld	a1,24(sp)
   131b0:	25000013 	move	a0,s0
   131b4:	0007d46f 	jal	15104 <_Bfree>

00000000000131b8 <$LM417>:
   131b8:	1f808183 	ld	v1,32(sp)
   131bc:	c8c1e063 	beqz	v1,12bac <$L71>

00000000000131c0 <$LM418>:
   131c0:	05802863 	beqz	s2,131d4 <$L140>

00000000000131c4 <$LM419>:
   131c4:	05862063 	beq	s2,v1,131d4 <$L140>

00000000000131c8 <$LM420>:
   131c8:	25000013 	move	a0,s0
   131cc:	2d800013 	move	a1,s2
   131d0:	0007cd6f 	jal	15104 <_Bfree>

00000000000131d4 <$L140>:
   131d4:	2f808183 	ld	a1,32(sp)
   131d8:	25000013 	move	a0,s0
   131dc:	0007ca6f 	jal	15104 <_Bfree>
   131e0:	fffe7367 	j	12bac <$L71>

00000000000131e4 <$L207>:
   131e4:	10000813 	li	v0,2
   131e8:	d54470e3 	bne	s1,v0,12c20 <$L42>

00000000000131ec <$LM423>:
   131ec:	078101a3 	sd	zero,64(sp)

00000000000131f0 <$L44>:
   131f0:	182c82e3 	blez	s2,13530 <$L151>
   131f4:	45800013 	move	a4,s2
   131f8:	35800013 	move	a2,s2
   131fc:	07ad61a3 	sd	s2,88(sp)
   13200:	07aca1a3 	sd	s2,40(sp)
   13204:	fffddc67 	j	12974 <$L50>

0000000000013208 <$L213>:
   13208:	16000013 	move	v0,s4
   1320c:	fffef767 	j	12de8 <$L101>

0000000000013210 <$L82>:
   13210:	1f80a183 	ld	v1,40(sp)
   13214:	d006ea63 	bgtz	v1,12c88 <$L85>

0000000000013218 <$LM427>:
   13218:	08c0f8e3 	bnez	v1,13394 <$L165>

000000000001321c <$LM428>:
   1321c:	10000d37 	lui	v0,0x1a
   13220:	10abe187 	fld	fv0,-1288(v0)

0000000000013224 <$LM429>:
   13224:	078061a3 	sd	zero,24(sp)
   13228:	078081a3 	sd	zero,32(sp)

000000000001322c <$LM430>:
   1322c:	18c42ed3 	fmul.d	fv1,fv1,fv0

0000000000013230 <$LVL247>:
   13230:	1681e0d3 	mxtf.d	fv0,s6
   13234:	d08770d3 	fle.d	s6,fv0,fv1

0000000000013238 <$LVL248>:
   13238:	16806063 	beqz	s6,13468 <$L68>

000000000001323c <$L69>:
   1323c:	b5bffe13 	not	s2,s2
   13240:	07ace1a3 	sd	s2,56(sp)

0000000000013244 <$LM432>:
   13244:	c6c00013 	move	s4,s7
   13248:	b0000013 	li	s2,0

000000000001324c <$LVL251>:
   1324c:	ffffd867 	j	131ac <$L115>

0000000000013250 <$L214>:
   13250:	2e400013 	move	a1,s5
   13254:	25000013 	move	a0,s0
   13258:	31c00013 	move	a2,a3
   1325c:	0787e1a3 	sd	v1,120(sp)
   13260:	00092a6f 	jal	15708 <__pow5mult>

0000000000013264 <$LVL253>:
   13264:	c8800013 	move	s5,v0

0000000000013268 <$LVL254>:
   13268:	1f81e183 	ld	v1,120(sp)
   1326c:	fffeff67 	j	12e68 <$L102>

0000000000013270 <$L226>:
   13270:	008018e3 	bnez	v0,1327c <$L139>
   13274:	d6800793 	and	s6,s6,1

0000000000013278 <$LVL256>:
   13278:	fe8000e3 	bnez	s6,13178 <$L134>

000000000001327c <$L139>:
   1327c:	2000c013 	li	a0,48
   13280:	00000267 	j	13288 <$L199>

0000000000013284 <$L181>:
   13284:	c0c00013 	move	s4,v1

0000000000013288 <$L199>:
   13288:	163ffc03 	lb	v0,-1(s4)
   1328c:	1e3ffc13 	add	v1,s4,-1

0000000000013290 <$LVL259>:
   13290:	f889e863 	beq	v0,a0,13284 <$L181>
   13294:	ffffc667 	j	131ac <$L115>

0000000000013298 <$L211>:
   13298:	37808183 	ld	a2,32(sp)
   1329c:	2180d863 	beqz	a2,13708 <$L96>

00000000000132a0 <$LM439>:
   132a0:	1090cc1b 	addw	v0,v0,1075
   132a4:	3f806183 	ld	a3,24(sp)

00000000000132a8 <$LM440>:
   132a8:	c7804183 	ld	s4,16(sp)
   132ac:	fffebf67 	j	12da8 <$L97>

00000000000132b0 <$L123>:
   132b0:	000472e3 	blez	v0,132e8 <$L201>

00000000000132b4 <$LM442>:
   132b4:	2e400013 	move	a1,s5
   132b8:	25000013 	move	a0,s0
   132bc:	30000413 	li	a2,1
   132c0:	00095b6f 	jal	1582c <__lshift>

00000000000132c4 <$LM443>:
   132c4:	2f806183 	ld	a1,24(sp)
   132c8:	20800013 	move	a0,v0

00000000000132cc <$LM444>:
   132cc:	c8800013 	move	s5,v0

00000000000132d0 <$LM445>:
   132d0:	0009b86f 	jal	159b0 <__mcmp>

00000000000132d4 <$LM446>:
   132d4:	2005fae3 	blez	v0,137d0 <$L229>

00000000000132d8 <$L126>:
   132d8:	1000e413 	li	v0,57
   132dc:	20b4b063 	beq	v0,s6,13734 <$L121>

00000000000132e0 <$L202>:
   132e0:	1f810183 	ld	v1,64(sp)
   132e4:	d0c0c41b 	addw	s6,v1,49

00000000000132e8 <$L201>:
   132e8:	06340023 	sb	s6,0(s4)

00000000000132ec <$LM449>:
   132ec:	1f804183 	ld	v1,16(sp)

00000000000132f0 <$LM450>:
   132f0:	c6000413 	add	s4,s4,1

00000000000132f4 <$LM451>:
   132f4:	078681a3 	sd	v1,32(sp)
   132f8:	ffffad67 	j	131ac <$L115>

00000000000132fc <$L221>:
   132fc:	28c00013 	move	a1,v1
   13300:	26400013 	move	a0,s5
   13304:	0787e1a3 	sd	v1,120(sp)
   13308:	0009aa6f 	jal	159b0 <__mcmp>

000000000001330c <$LVL269>:
   1330c:	1f81e183 	ld	v1,120(sp)
   13310:	ffff2c67 	j	12fc0 <$L119>

0000000000013314 <$L224>:
   13314:	2d800013 	move	a1,s2
   13318:	25000013 	move	a0,s0
   1331c:	30002813 	li	a2,10
   13320:	38000013 	li	a3,0
   13324:	0007816f 	jal	15128 <__multadd>

0000000000013328 <$LVL271>:
   13328:	b0800013 	move	s2,v0

000000000001332c <$LVL272>:
   1332c:	078441a3 	sd	v0,16(sp)
   13330:	ffff4d67 	j	13064 <$L132>

0000000000013334 <$L63>:
   13334:	2200e0d3 	fcvt.d.w	fa0,a4
   13338:	21042ed3 	fmul.d	fa0,fa0,fv0
   1333c:	10000d37 	lui	v0,0x1a
   13340:	18abc187 	fld	fv1,-1296(v0)

0000000000013344 <$LM455>:
   13344:	27e60037 	lui	a0,0xfcc00

0000000000013348 <$LM456>:
   13348:	19060ed3 	fadd.d	fv1,fa0,fv1
   1334c:	10c1c0d3 	mftx.d	v0,fv1

0000000000013350 <$LM457>:
   13350:	30818293 	sra	a2,v0,0x20
   13354:	2188003b 	addw	a0,a2,a0
   13358:	10808093 	sll	v0,v0,0x20

000000000001335c <$LVL275>:
   1335c:	21008093 	sll	a0,a0,0x20
   13360:	10808293 	srl	v0,v0,0x20
   13364:	10880333 	or	v0,v0,a0

0000000000013368 <$LM458>:
   13368:	2780a183 	ld	a0,40(sp)
   1336c:	0901c0e3 	bnez	a0,1354c <$L156>

0000000000013370 <$L141>:
   13370:	1881e0d3 	mxtf.d	fv1,v0

0000000000013374 <$LM460>:
   13374:	10000d37 	lui	v0,0x1a

0000000000013378 <$LVL277>:
   13378:	20abe187 	fld	fa0,-1288(v0)
   1337c:	10881ed3 	fsub.d	fv0,fv0,fa0

0000000000013380 <$LM461>:
   13380:	10c560d3 	flt.d	v0,fv1,fv0
   13384:	108138e3 	bnez	v0,13620 <$L157>

0000000000013388 <$LM462>:
   13388:	18c660d3 	fsgnjn.d	fv1,fv1,fv1
   1338c:	108760d3 	flt.d	v0,fv0,fv1
   13390:	08819063 	beqz	v0,13558 <$L66>

0000000000013394 <$L165>:
   13394:	078061a3 	sd	zero,24(sp)
   13398:	078081a3 	sd	zero,32(sp)
   1339c:	ffffa867 	j	1323c <$L69>

00000000000133a0 <$L218>:
   133a0:	2f806183 	ld	a1,24(sp)
   133a4:	26400013 	move	a0,s5
   133a8:	0009826f 	jal	159b0 <__mcmp>
   133ac:	d880eae3 	bgez	v0,12f20 <$L113>

00000000000133b0 <$LM465>:
   133b0:	2e400013 	move	a1,s5
   133b4:	25000013 	move	a0,s0
   133b8:	30002813 	li	a2,10
   133bc:	38000013 	li	a3,0
   133c0:	00075a6f 	jal	15128 <__multadd>

00000000000133c4 <$LM466>:
   133c4:	1f80e183 	ld	v1,56(sp)

00000000000133c8 <$LM467>:
   133c8:	c8800013 	move	s5,v0

00000000000133cc <$LM468>:
   133cc:	18fffc1b 	addw	v1,v1,-1
   133d0:	0786e1a3 	sd	v1,56(sp)

00000000000133d4 <$LM469>:
   133d4:	1f816183 	ld	v1,88(sp)
   133d8:	0786a1a3 	sd	v1,40(sp)
   133dc:	1f810183 	ld	v1,64(sp)
   133e0:	d8c08063 	beqz	v1,12f20 <$L113>

00000000000133e4 <$LM470>:
   133e4:	2f808183 	ld	a1,32(sp)
   133e8:	25000013 	move	a0,s0
   133ec:	30002813 	li	a2,10
   133f0:	38000013 	li	a3,0
   133f4:	00074d6f 	jal	15128 <__multadd>

00000000000133f8 <$LVL282>:
   133f8:	078481a3 	sd	v0,32(sp)

00000000000133fc <$LVL283>:
   133fc:	fffec967 	j	12f20 <$L113>

0000000000013400 <$L216>:
   13400:	2f806183 	ld	a1,24(sp)
   13404:	11405103 	lw	v0,20(a1)
   13408:	10bffc1b 	addw	v0,v0,-1
   1340c:	10801813 	add	v0,v0,6
   13410:	10800893 	sll	v0,v0,0x2
   13414:	11440033 	add	v0,a1,v0
   13418:	20800103 	lw	a0,0(v0)
   1341c:	0787e1a3 	sd	v1,120(sp)
   13420:	0007e06f 	jal	153a0 <__hi0bits>

0000000000013424 <$LVL285>:
   13424:	20008013 	li	a0,32
   13428:	1105003b 	subw	v0,a0,v0
   1342c:	1f81e183 	ld	v1,120(sp)
   13430:	fffea267 	j	12eb8 <$L107>

0000000000013434 <$L219>:
   13434:	15400d13 	slt	v0,s1,3
   13438:	d081e0e3 	bnez	v0,12f28 <$L114>

000000000001343c <$LM473>:
   1343c:	f0c000e3 	bnez	v1,1323c <$L69>

0000000000013440 <$LM474>:
   13440:	2f806183 	ld	a1,24(sp)
   13444:	25000013 	move	a0,s0
   13448:	30001413 	li	a2,5
   1344c:	38000013 	li	a3,0
   13450:	0007366f 	jal	15128 <__multadd>
   13454:	28800013 	move	a1,v0
   13458:	26400013 	move	a0,s5
   1345c:	078461a3 	sd	v0,24(sp)

0000000000013460 <$LVL286>:
   13460:	0009546f 	jal	159b0 <__mcmp>

0000000000013464 <$LVL287>:
   13464:	e805b2e3 	blez	v0,1323c <$L69>

0000000000013468 <$L68>:
   13468:	1f80e183 	ld	v1,56(sp)

000000000001346c <$LM476>:
   1346c:	1000c413 	li	v0,49
   13470:	06c40023 	sb	v0,0(s7)

0000000000013474 <$LM477>:
   13474:	18c0041b 	addw	v1,v1,1

0000000000013478 <$LM478>:
   13478:	c6c00413 	add	s4,s7,1

000000000001347c <$LM479>:
   1347c:	0786e1a3 	sd	v1,56(sp)

0000000000013480 <$LM480>:
   13480:	b0000013 	li	s2,0
   13484:	ffff4a67 	j	131ac <$L115>

0000000000013488 <$L215>:
   13488:	10000413 	li	v0,1
   1348c:	1080d093 	sll	v0,v0,0x34
   13490:	10bffc13 	add	v0,v0,-1
   13494:	168403b3 	and	v0,s6,v0
   13498:	d08028e3 	bnez	v0,12eac <$L106>

000000000001349c <$LM482>:
   1349c:	26818293 	sra	a0,s6,0x20
   134a0:	13ff8037 	lui	v0,0x7ff00
   134a4:	110403b3 	and	v0,a0,v0
   134a8:	d0800863 	beqz	v0,12eac <$L106>

00000000000134ac <$LM483>:
   134ac:	37804183 	ld	a2,16(sp)

00000000000134b0 <$LM484>:
   134b0:	10000413 	li	v0,1

00000000000134b4 <$LM485>:
   134b4:	18c0041b 	addw	v1,v1,1

00000000000134b8 <$LM486>:
   134b8:	3180041b 	addw	a2,a2,1
   134bc:	078c41a3 	sd	a2,16(sp)

00000000000134c0 <$LM487>:
   134c0:	078581a3 	sd	v0,96(sp)
   134c4:	fffe7a67 	j	12eac <$L106>

00000000000134c8 <$L103>:
   134c8:	37806183 	ld	a2,24(sp)
   134cc:	2e400013 	move	a1,s5
   134d0:	25000013 	move	a0,s0
   134d4:	0787e1a3 	sd	v1,120(sp)
   134d8:	00088c6f 	jal	15708 <__pow5mult>

00000000000134dc <$LVL294>:
   134dc:	c8800013 	move	s5,v0

00000000000134e0 <$LVL295>:
   134e0:	1f81e183 	ld	v1,120(sp)
   134e4:	fffe6167 	j	12e68 <$L102>

00000000000134e8 <$L46>:
   134e8:	28000413 	li	a1,1
   134ec:	078b01a3 	sd	a1,64(sp)
   134f0:	ffff4067 	j	131f0 <$L44>

00000000000134f4 <$L150>:
   134f4:	078101a3 	sd	zero,64(sp)
   134f8:	fffd1767 	j	12954 <$L45>

00000000000134fc <$L98>:
   134fc:	2f806183 	ld	a1,24(sp)

0000000000013500 <$LVL298>:
   13500:	3780c183 	ld	a2,48(sp)
   13504:	078e61a3 	sd	a3,24(sp)
   13508:	11cb003b 	subw	v0,a3,a1
   1350c:	308c003b 	addw	a2,v0,a2
   13510:	078cc1a3 	sd	a2,48(sp)

0000000000013514 <$LM492>:
   13514:	38000013 	li	a3,0

0000000000013518 <$LVL300>:
   13518:	fffe2067 	j	12d98 <$L99>

000000000001351c <$L208>:
   1351c:	30800013 	move	a2,v0
   13520:	0784a1a3 	sd	v0,40(sp)

0000000000013524 <$L49>:
   13524:	0501a123 	sw	zero,104(s0)
   13528:	28000013 	li	a1,0
   1352c:	fffd1e67 	j	129a4 <$L52>

0000000000013530 <$L151>:
   13530:	20000413 	li	a0,1
   13534:	28000413 	li	a1,1

0000000000013538 <$LM496>:
   13538:	30000413 	li	a2,1

000000000001353c <$LM497>:
   1353c:	078961a3 	sd	a0,88(sp)
   13540:	078aa1a3 	sd	a1,40(sp)
   13544:	b0000413 	li	s2,1
   13548:	fffff767 	j	13524 <$L49>

000000000001354c <$L156>:
   1354c:	4780e183 	ld	a4,56(sp)

0000000000013550 <$LVL305>:
   13550:	4f80a183 	ld	a5,40(sp)
   13554:	fffd6167 	j	12ad8 <$L67>

0000000000013558 <$L66>:
   13558:	d1400013 	move	s6,a1

000000000001355c <$LVL307>:
   1355c:	fffdc067 	j	12c5c <$L54>

0000000000013560 <$L55>:
   13560:	3780e183 	ld	a2,56(sp)

0000000000013564 <$LM501>:
   13564:	40000813 	li	a4,2

0000000000013568 <$LM502>:
   13568:	100d003b 	neg	v0,a2

000000000001356c <$LVL309>:
   1356c:	a081e863 	beqz	v0,12a60 <$L60>

0000000000013570 <$LM503>:
   13570:	30803f93 	and	a2,v0,15
   13574:	20000cb7 	lui	a0,0x19
   13578:	31800c93 	sll	a2,a2,0x3
   1357c:	21180013 	add	a0,a0,1536
   13580:	21880033 	add	a0,a2,a0
   13584:	19000187 	fld	fv1,0(a0)

0000000000013588 <$LM504>:
   13588:	1081129b 	sraw	v0,v0,0x4

000000000001358c <$LM505>:
   1358c:	10862ed3 	fmul.d	fv0,fv0,fv1

0000000000013590 <$LM506>:
   13590:	a081a063 	beqz	v0,12a60 <$L60>

0000000000013594 <$LM507>:
   13594:	48000cb7 	lui	a5,0x19

0000000000013598 <$LM508>:
   13598:	20000013 	li	a0,0

000000000001359c <$LM509>:
   1359c:	4a576013 	add	a5,a5,1496

00000000000135a0 <$L62>:
   135a0:	31000c93 	sll	a2,a0,0x3
   135a4:	39920033 	add	a3,a2,a5

00000000000135a8 <$LM510>:
   135a8:	30800793 	and	a2,v0,1

00000000000135ac <$LM511>:
   135ac:	10810693 	sra	v0,v0,0x1

00000000000135b0 <$LM512>:
   135b0:	01802063 	beqz	a2,135c0 <$L61>

00000000000135b4 <$LM513>:
   135b4:	19c00187 	fld	fv1,0(a3)

00000000000135b8 <$LM514>:
   135b8:	4200041b 	addw	a4,a4,1

00000000000135bc <$LM515>:
   135bc:	10862ed3 	fmul.d	fv0,fv0,fv1

00000000000135c0 <$L61>:
   135c0:	a0814063 	beqz	v0,12a60 <$L60>
   135c4:	2100041b 	addw	a0,a0,1

00000000000135c8 <$LVL313>:
   135c8:	fffff667 	j	135a0 <$L62>

00000000000135cc <$L227>:
   135cc:	18c0041b 	addw	v1,v1,1
   135d0:	fe07fc23 	sb	v1,-1(s4)

00000000000135d4 <$LVL315>:
   135d4:	fffef667 	j	131ac <$L115>

00000000000135d8 <$L220>:
   135d8:	1f808183 	ld	v1,32(sp)
   135dc:	25000013 	move	a0,s0
   135e0:	28c02103 	lw	a1,8(v1)
   135e4:	00069d6f 	jal	15058 <_Balloc>

00000000000135e8 <$LM519>:
   135e8:	1f808183 	ld	v1,32(sp)

00000000000135ec <$LM520>:
   135ec:	b0800013 	move	s2,v0

00000000000135f0 <$LM521>:
   135f0:	20804013 	add	a0,v0,16
   135f4:	30c05103 	lw	a2,20(v1)
   135f8:	28c04013 	add	a1,v1,16
   135fc:	31800813 	add	a2,a2,2
   13600:	31800893 	sll	a2,a2,0x2
   13604:	00061b6f 	jal	14e70 <memcpy>

0000000000013608 <$LM522>:
   13608:	25000013 	move	a0,s0
   1360c:	2d800013 	move	a1,s2
   13610:	30000413 	li	a2,1
   13614:	0008866f 	jal	1582c <__lshift>
   13618:	078441a3 	sd	v0,16(sp)

000000000001361c <$LVL319>:
   1361c:	fffe4f67 	j	12f58 <$L118>

0000000000013620 <$L157>:
   13620:	078061a3 	sd	zero,24(sp)
   13624:	078081a3 	sd	zero,32(sp)
   13628:	ffff9067 	j	13468 <$L68>

000000000001362c <$L70>:
   1362c:	327ffc1b 	addw	a2,a5,-1
   13630:	20000cb7 	lui	a0,0x19
   13634:	31800c93 	sll	a2,a2,0x3
   13638:	21180013 	add	a0,a0,1536
   1363c:	21880033 	add	a0,a2,a0
   13640:	29000187 	fld	fa1,0(a0)
   13644:	2081e0d3 	mxtf.d	fa0,v0

0000000000013648 <$LM525>:
   13648:	2080a2d3 	fcvt.w.d	a0,fv0,rtz

000000000001364c <$LM526>:
   1364c:	1900e0d3 	fcvt.d.w	fv1,a0

0000000000013650 <$LM527>:
   13650:	10000413 	li	v0,1

0000000000013654 <$LM528>:
   13654:	2100c01b 	addw	a0,a0,48

0000000000013658 <$LM529>:
   13658:	29482ed3 	fmul.d	fa1,fa1,fa0

000000000001365c <$LM530>:
   1365c:	10861ed3 	fsub.d	fv0,fv0,fv1

0000000000013660 <$LM531>:
   13660:	06c80023 	sb	a0,0(s7)
   13664:	c6c00413 	add	s4,s7,1

0000000000013668 <$LM532>:
   13668:	0244a863 	beq	a5,v0,136bc <$L80>
   1366c:	10000d37 	lui	v0,0x1a

0000000000013670 <$LM533>:
   13670:	20aba187 	fld	fa0,-1304(v0)

0000000000013674 <$LM534>:
   13674:	38000413 	li	a3,1
   13678:	16000013 	move	v0,s4
   1367c:	52400013 	move	a6,a5

0000000000013680 <$L75>:
   13680:	10882ed3 	fmul.d	fv0,fv0,fa0
   13684:	21c0041b 	addw	a0,a3,1

0000000000013688 <$LVL325>:
   13688:	39000013 	move	a3,a0

000000000001368c <$LM536>:
   1368c:	3080a2d3 	fcvt.w.d	a2,fv0,rtz

0000000000013690 <$LM537>:
   13690:	1980e0d3 	fcvt.d.w	fv1,a2

0000000000013694 <$LM538>:
   13694:	3180c01b 	addw	a2,a2,48

0000000000013698 <$LVL327>:
   13698:	008c0023 	sb	a2,0(v0)

000000000001369c <$LM539>:
   1369c:	10861ed3 	fsub.d	fv0,fv0,fv1

00000000000136a0 <$LM540>:
   136a0:	10800413 	add	v0,v0,1

00000000000136a4 <$LM541>:
   136a4:	f915b8e3 	bne	a0,a6,13680 <$L75>

00000000000136a8 <$LM542>:
   136a8:	127ff81b 	addw	v0,a5,-2

00000000000136ac <$LVL329>:
   136ac:	10808093 	sll	v0,v0,0x20
   136b0:	10808293 	srl	v0,v0,0x20
   136b4:	10800413 	add	v0,v0,1

00000000000136b8 <$LM543>:
   136b8:	c6040033 	add	s4,s4,v0

00000000000136bc <$L80>:
   136bc:	10000d37 	lui	v0,0x1a
   136c0:	18ac0187 	fld	fv1,-1280(v0)
   136c4:	21460ed3 	fadd.d	fa0,fa1,fv1
   136c8:	110560d3 	flt.d	v0,fa0,fv0
   136cc:	00810863 	beqz	v0,13750 <$L193>
   136d0:	163ffc03 	lb	v0,-1(s4)
   136d4:	0790e1a3 	sd	a4,56(sp)
   136d8:	fffd9767 	j	12d34 <$L90>

00000000000136dc <$L223>:
   136dc:	1000e413 	li	v0,57
   136e0:	0684a863 	beq	s6,v0,13734 <$L121>

00000000000136e4 <$LM546>:
   136e4:	d680041b 	addw	s6,s6,1
   136e8:	ffff0067 	j	132e8 <$L201>

00000000000136ec <$L179>:
   136ec:	1f804183 	ld	v1,16(sp)
   136f0:	078681a3 	sd	v1,32(sp)
   136f4:	fffe9867 	j	13154 <$L130>

00000000000136f8 <$L212>:
   136f8:	27804183 	ld	a0,16(sp)
   136fc:	c105003b 	subw	s4,a0,v0

0000000000013700 <$LM549>:
   13700:	10000013 	li	v0,0
   13704:	fffda967 	j	12da8 <$L97>

0000000000013708 <$L96>:
   13708:	17801103 	lw	v0,4(sp)
   1370c:	2000d813 	li	a0,54
   13710:	3f806183 	ld	a3,24(sp)
   13714:	1105003b 	subw	v0,a0,v0

0000000000013718 <$LM551>:
   13718:	c7804183 	ld	s4,16(sp)
   1371c:	fffda367 	j	12da8 <$L97>

0000000000013720 <$L209>:
   13720:	1080041b 	addw	v0,v0,1
   13724:	1080e093 	sll	v0,v0,0x38
   13728:	1081e293 	sra	v0,v0,0x38

000000000001372c <$LM553>:
   1372c:	fe05fc23 	sb	v0,-1(s4)

0000000000013730 <$LVL336>:
   13730:	fffd1f67 	j	12bac <$L71>

0000000000013734 <$L121>:
   13734:	1f804183 	ld	v1,16(sp)

0000000000013738 <$LM555>:
   13738:	1000e413 	li	v0,57
   1373c:	06040023 	sb	v0,0(s4)

0000000000013740 <$LM556>:
   13740:	078681a3 	sd	v1,32(sp)

0000000000013744 <$LM557>:
   13744:	c6000413 	add	s4,s4,1

0000000000013748 <$LM558>:
   13748:	1800e413 	li	v1,57
   1374c:	fffe8c67 	j	1317c <$L129>

0000000000013750 <$L193>:
   13750:	18ca1ed3 	fsub.d	fv1,fv1,fa1

0000000000013754 <$LM560>:
   13754:	2000c013 	li	a0,48

0000000000013758 <$LM561>:
   13758:	108760d3 	flt.d	v0,fv0,fv1
   1375c:	008018e3 	bnez	v0,13768 <$L190>
   13760:	ffff7e67 	j	13558 <$L66>

0000000000013764 <$L164>:
   13764:	c0c00013 	move	s4,v1

0000000000013768 <$L190>:
   13768:	163ffc03 	lb	v0,-1(s4)
   1376c:	1e3ffc13 	add	v1,s4,-1

0000000000013770 <$LVL342>:
   13770:	f889e863 	beq	v0,a0,13764 <$L164>

0000000000013774 <$LM564>:
   13774:	0790e1a3 	sd	a4,56(sp)
   13778:	fffd0d67 	j	12bac <$L71>

000000000001377c <$L222>:
   1377c:	1000e413 	li	v0,57
   13780:	fe856863 	beq	s6,v0,13734 <$L121>

0000000000013784 <$LM566>:
   13784:	1f808183 	ld	v1,32(sp)
   13788:	d806b263 	bgtz	v1,132e0 <$L202>
   1378c:	fffed767 	j	132e8 <$L201>

0000000000013790 <$L161>:
   13790:	0790e1a3 	sd	a4,56(sp)
   13794:	fffd6867 	j	12d34 <$L90>

0000000000013798 <$L65>:
   13798:	2200e0d3 	fcvt.d.w	fa0,a4
   1379c:	20882ed3 	fmul.d	fa0,fv0,fa0
   137a0:	10000d37 	lui	v0,0x1a
   137a4:	18abc187 	fld	fv1,-1296(v0)

00000000000137a8 <$LM569>:
   137a8:	27e60037 	lui	a0,0xfcc00

00000000000137ac <$LM570>:
   137ac:	19060ed3 	fadd.d	fv1,fa0,fv1
   137b0:	10c1c0d3 	mftx.d	v0,fv1

00000000000137b4 <$LM571>:
   137b4:	30818293 	sra	a2,v0,0x20
   137b8:	2188003b 	addw	a0,a2,a0
   137bc:	10808093 	sll	v0,v0,0x20

00000000000137c0 <$LVL347>:
   137c0:	21008093 	sll	a0,a0,0x20
   137c4:	10808293 	srl	v0,v0,0x20
   137c8:	10880333 	or	v0,v0,a0
   137cc:	fffee967 	j	13370 <$L141>

00000000000137d0 <$L229>:
   137d0:	d88030e3 	bnez	v0,132e8 <$L201>
   137d4:	16800793 	and	v0,s6,1

00000000000137d8 <$LVL349>:
   137d8:	d8802063 	beqz	v0,132e8 <$L201>
   137dc:	fffebf67 	j	132d8 <$L126>

00000000000137e0 <$L109>:
   137e0:	28001013 	li	a1,4
   137e4:	b10bf063 	beq	a0,a1,12edc <$L110>
   137e8:	2000f013 	li	a0,60

00000000000137ec <$LVL351>:
   137ec:	2105003b 	subw	a0,a0,v0
   137f0:	fffdb667 	j	12ec8 <$L108>

00000000000137f4 <_fflush_r>:
   137f4:	f7bf4013 	add	sp,sp,-48

00000000000137f8 <$LCFI0>:
   137f8:	07aea1a3 	sd	s3,40(sp)
   137fc:	07a841a3 	sd	s0,16(sp)
   13800:	07ac81a3 	sd	s2,32(sp)
   13804:	07aa61a3 	sd	s1,24(sp)
   13808:	078221a3 	sd	ra,8(sp)

000000000001380c <$LM2>:
   1380c:	b9000013 	move	s3,a0
   13810:	a1400013 	move	s0,a1

0000000000013814 <$LM3>:
   13814:	01001863 	beqz	a0,13820 <$L2>

0000000000013818 <$LM4>:
   13818:	11014103 	lw	v0,80(a0)
   1381c:	08814063 	beqz	v0,139bc <$L33>

0000000000013820 <$L2>:
   13820:	1d004083 	lh	v1,16(s0)

0000000000013824 <$LM6>:
   13824:	10000013 	li	v0,0

0000000000013828 <$LM7>:
   13828:	00c1d063 	beqz	v1,13910 <$L3>

000000000001382c <$LBB10>:
   1382c:	20c02393 	and	a0,v1,8
   13830:	0101f8e3 	bnez	a0,1392c <$L4>

0000000000013834 <$LM9>:
   13834:	2d002103 	lw	a1,8(s0)

0000000000013838 <$LM10>:
   13838:	20c00013 	move	a0,v1
   1383c:	050640a3 	sh	v1,16(s0)

0000000000013840 <$LM11>:
   13840:	080bb2e3 	blez	a1,13a18 <$L34>

0000000000013844 <$L5>:
   13844:	1d012183 	ld	v1,72(s0)

0000000000013848 <$LM12>:
   13848:	10000013 	li	v0,0

000000000001384c <$LM13>:
   1384c:	00c18863 	beqz	v1,13910 <$L3>

0000000000013850 <$LBB12>:
   13850:	2100409b 	sllw	a0,a0,0x10
   13854:	2100429b 	srlw	a0,a0,0x10
   13858:	100000b7 	lui	v0,0x1
   1385c:	110403b3 	and	v0,a0,v0

0000000000013860 <$LM15>:
   13860:	adc00103 	lw	s1,0(s3)

0000000000013864 <$LM16>:
   13864:	05c00123 	sw	zero,0(s3)

0000000000013868 <$LM17>:
   13868:	0880c863 	beqz	v0,139cc <$L7>

000000000001386c <$LM18>:
   1386c:	35023103 	lw	a2,140(s0)

0000000000013870 <$L8>:
   13870:	21001393 	and	a0,a0,4
   13874:	01003863 	beqz	a0,13890 <$L13>

0000000000013878 <$LM20>:
   13878:	25002103 	lw	a0,8(s0)

000000000001387c <$LM21>:
   1387c:	15016183 	ld	v0,88(s0)

0000000000013880 <$LM22>:
   13880:	31890033 	sub	a2,a2,a0

0000000000013884 <$LM23>:
   13884:	00801863 	beqz	v0,13890 <$L13>

0000000000013888 <$LM24>:
   13888:	1501c103 	lw	v0,112(s0)
   1388c:	31850033 	sub	a2,a2,v0

0000000000013890 <$L13>:
   13890:	2d00c183 	ld	a1,48(s0)
   13894:	25c00013 	move	a0,s3
   13898:	38000013 	li	a3,0
   1389c:	08c0006b 	jalr	v1

00000000000138a0 <$LM26>:
   138a0:	183ffc13 	li	v1,-1
   138a4:	08870063 	beq	v0,v1,13a24 <$L35>

00000000000138a8 <$L14>:
   138a8:	25004283 	lhu	a0,16(s0)
   138ac:	1fffffb7 	lui	v1,0xfffff
   138b0:	18dffc1b 	addw	v1,v1,2047
   138b4:	190603b3 	and	v1,a0,v1

00000000000138b8 <$LM28>:
   138b8:	2d006183 	ld	a1,24(s0)

00000000000138bc <$LM29>:
   138bc:	18c0c093 	sll	v1,v1,0x30
   138c0:	18c1c293 	sra	v1,v1,0x30

00000000000138c4 <$LM30>:
   138c4:	200000b7 	lui	a0,0x1
   138c8:	210603b3 	and	a0,a0,v1

00000000000138cc <$LM31>:
   138cc:	050640a3 	sh	v1,16(s0)

00000000000138d0 <$LM32>:
   138d0:	05002123 	sw	zero,8(s0)

00000000000138d4 <$LM33>:
   138d4:	050a01a3 	sd	a1,0(s0)

00000000000138d8 <$LM34>:
   138d8:	01002063 	beqz	a0,138e8 <$L16>
   138dc:	183ffc13 	li	v1,-1
   138e0:	0886c063 	beq	v0,v1,13a40 <$L36>

00000000000138e4 <$L17>:
   138e4:	0d043123 	sw	v0,140(s0)

00000000000138e8 <$L16>:
   138e8:	2d016183 	ld	a1,88(s0)

00000000000138ec <$LM37>:
   138ec:	10000013 	li	v0,0

00000000000138f0 <$LM38>:
   138f0:	05ea0123 	sw	s1,0(s3)

00000000000138f4 <$LM39>:
   138f4:	01403863 	beqz	a1,13910 <$L3>

00000000000138f8 <$LM40>:
   138f8:	1501d013 	add	v0,s0,116
   138fc:	01441863 	beq	a1,v0,13908 <$L18>
   13900:	25c00013 	move	a0,s3
   13904:	0001766f 	jal	13edc <_free_r>

0000000000013908 <$L18>:
   13908:	050161a3 	sd	zero,88(s0)

000000000001390c <$LM41>:
   1390c:	10000013 	li	v0,0

0000000000013910 <$L3>:
   13910:	0f802183 	ld	ra,8(sp)
   13914:	bf80a183 	ld	s3,40(sp)

0000000000013918 <$LVL11>:
   13918:	b7808183 	ld	s2,32(sp)
   1391c:	af806183 	ld	s1,24(sp)
   13920:	a7804183 	ld	s0,16(sp)

0000000000013924 <$LVL12>:
   13924:	f780c013 	add	sp,sp,48
   13928:	004000eb 	ret

000000000001392c <$L4>:
   1392c:	ad006183 	ld	s1,24(s0)

0000000000013930 <$LVL14>:
   13930:	fd41c063 	beqz	s1,13910 <$L3>

0000000000013934 <$LM44>:
   13934:	25000183 	ld	a0,0(s0)

0000000000013938 <$LM45>:
   13938:	18c00f93 	and	v1,v1,3

000000000001393c <$LM46>:
   1393c:	052a01a3 	sd	s1,0(s0)

0000000000013940 <$LM47>:
   13940:	212b0033 	sub	a0,a0,s1
   13944:	2100009b 	sllw	a0,a0,0x0

0000000000013948 <$LVL16>:
   13948:	b1000013 	move	s2,a0

000000000001394c <$LM48>:
   1394c:	10000013 	li	v0,0
   13950:	00c0e863 	beqz	v1,139c4 <$L37>

0000000000013954 <$L19>:
   13954:	05043123 	sw	v0,12(s0)

0000000000013958 <$LM49>:
   13958:	10000013 	li	v0,0

000000000001395c <$LM50>:
   1395c:	00082a63 	bgtz	a0,13970 <$L29>
   13960:	ffffec67 	j	13910 <$L3>

0000000000013964 <$L20>:
   13964:	ad440033 	add	s1,s1,v0

0000000000013968 <$LM52>:
   13968:	b0c00013 	move	s2,v1

000000000001396c <$LM53>:
   1396c:	00071ae3 	blez	v1,139f8 <$L38>

0000000000013970 <$L29>:
   13970:	15010183 	ld	v0,64(s0)
   13974:	2d00c183 	ld	a1,48(s0)
   13978:	35400013 	move	a2,s1
   1397c:	3d800013 	move	a3,s2
   13980:	25c00013 	move	a0,s3
   13984:	0880006b 	jalr	v0

0000000000013988 <$LM55>:
   13988:	1d85003b 	subw	v1,s2,v0

000000000001398c <$LM56>:
   1398c:	f805b263 	bgtz	v0,13964 <$L20>

0000000000013990 <$L31>:
   13990:	1d004283 	lhu	v1,16(s0)

0000000000013994 <$LBE17>:
   13994:	0f802183 	ld	ra,8(sp)

0000000000013998 <$LBB18>:
   13998:	103ffc13 	li	v0,-1

000000000001399c <$LM60>:
   1399c:	18c10313 	or	v1,v1,64
   139a0:	050640a3 	sh	v1,16(s0)

00000000000139a4 <$LBE18>:
   139a4:	bf80a183 	ld	s3,40(sp)

00000000000139a8 <$LVL22>:
   139a8:	b7808183 	ld	s2,32(sp)
   139ac:	af806183 	ld	s1,24(sp)
   139b0:	a7804183 	ld	s0,16(sp)

00000000000139b4 <$LVL23>:
   139b4:	f780c013 	add	sp,sp,48
   139b8:	004000eb 	ret

00000000000139bc <$L33>:
   139bc:	0000806f 	jal	13bbc <__sinit>

00000000000139c0 <$LVL25>:
   139c0:	ffff9867 	j	13820 <$L2>

00000000000139c4 <$L37>:
   139c4:	15008103 	lw	v0,32(s0)
   139c8:	ffffe367 	j	13954 <$L19>

00000000000139cc <$L7>:
   139cc:	2d00c183 	ld	a1,48(s0)
   139d0:	30000013 	li	a2,0
   139d4:	25c00013 	move	a0,s3
   139d8:	38000413 	li	a3,1
   139dc:	08c0006b 	jalr	v1
   139e0:	30800013 	move	a2,v0

00000000000139e4 <$LM65>:
   139e4:	103ffc13 	li	v0,-1

00000000000139e8 <$LVL29>:
   139e8:	0184c863 	beq	a2,v0,13a4c <$L39>

00000000000139ec <$L9>:
   139ec:	25004283 	lhu	a0,16(s0)
   139f0:	1d012183 	ld	v1,72(s0)
   139f4:	ffff9f67 	j	13870 <$L8>

00000000000139f8 <$L38>:
   139f8:	0f802183 	ld	ra,8(sp)

00000000000139fc <$LBB20>:
   139fc:	10000013 	li	v0,0

0000000000013a00 <$LBE20>:
   13a00:	bf80a183 	ld	s3,40(sp)

0000000000013a04 <$LVL32>:
   13a04:	b7808183 	ld	s2,32(sp)
   13a08:	af806183 	ld	s1,24(sp)

0000000000013a0c <$LVL33>:
   13a0c:	a7804183 	ld	s0,16(sp)

0000000000013a10 <$LVL34>:
   13a10:	f780c013 	add	sp,sp,48
   13a14:	004000eb 	ret

0000000000013a18 <$L34>:
   13a18:	1d01c103 	lw	v1,112(s0)

0000000000013a1c <$LVL36>:
   13a1c:	f0065263 	bgtz	v1,13844 <$L5>
   13a20:	ffffbc67 	j	13910 <$L3>

0000000000013a24 <$L35>:
   13a24:	1dc00103 	lw	v1,0(s3)
   13a28:	f0c10063 	beqz	v1,138a8 <$L14>

0000000000013a2c <$LM72>:
   13a2c:	20007413 	li	a0,29
   13a30:	f0c8f063 	beq	v1,a0,138a8 <$L14>
   13a34:	20005813 	li	a0,22
   13a38:	f0c8e063 	beq	v1,a0,138a8 <$L14>
   13a3c:	ffffd567 	j	13990 <$L31>

0000000000013a40 <$L36>:
   13a40:	1dc00103 	lw	v1,0(s3)
   13a44:	f0c148e3 	bnez	v1,138e8 <$L16>
   13a48:	ffffa767 	j	138e4 <$L17>

0000000000013a4c <$L39>:
   13a4c:	15c00103 	lw	v0,0(s3)
   13a50:	f8813863 	beqz	v0,139ec <$L9>

0000000000013a54 <$LBB14>:
   13a54:	18007413 	li	v1,29
   13a58:	00861863 	beq	v0,v1,13a64 <$L11>
   13a5c:	18005813 	li	v1,22
   13a60:	f88660e3 	bne	v0,v1,13990 <$L31>

0000000000013a64 <$L11>:
   13a64:	05ea0123 	sw	s1,0(s3)

0000000000013a68 <$LM77>:
   13a68:	10000013 	li	v0,0
   13a6c:	ffffa967 	j	13910 <$L3>

0000000000013a70 <fflush>:
   13a70:	29000013 	move	a1,a0

0000000000013a74 <$LM80>:
   13a74:	01002063 	beqz	a0,13a84 <$L42>

0000000000013a78 <$LM81>:
   13a78:	10000d37 	lui	v0,0x1a
   13a7c:	20ad4183 	ld	a0,-1200(v0)

0000000000013a80 <$LVL42>:
   13a80:	ffff5d67 	j	137f4 <_fflush_r>

0000000000013a84 <$L42>:
   13a84:	10000cb7 	lui	v0,0x19
   13a88:	20898183 	ld	a0,608(v0)

0000000000013a8c <$LVL44>:
   13a8c:	280009b7 	lui	a1,0x13

0000000000013a90 <$LVL45>:
   13a90:	295fd013 	add	a1,a1,2036
   13a94:	0001f567 	j	14268 <_fwalk_reent>

0000000000013a98 <__fp_lock>:
   13a98:	10000013 	li	v0,0
   13a9c:	004000eb 	ret

0000000000013aa0 <__fp_unlock>:
   13aa0:	10000013 	li	v0,0
   13aa4:	004000eb 	ret

0000000000013aa8 <_cleanup_r>:
   13aa8:	28000bb7 	lui	a1,0x17
   13aac:	29562013 	add	a1,a1,1416
   13ab0:	0001c367 	j	141bc <_fwalk>

0000000000013ab4 <std.isra.0>:
   13ab4:	f7bfc013 	add	sp,sp,-16

0000000000013ab8 <$LCFI0>:
   13ab8:	07a821a3 	sd	s0,8(sp)
   13abc:	078201a3 	sd	ra,0(sp)

0000000000013ac0 <$LM8>:
   13ac0:	a1000013 	move	s0,a0

0000000000013ac4 <$LM9>:
   13ac4:	010a40a3 	sh	a1,16(a0)

0000000000013ac8 <$LM10>:
   13ac8:	010c48a3 	sh	a2,18(a0)

0000000000013acc <$LM11>:
   13acc:	010001a3 	sd	zero,0(a0)

0000000000013ad0 <$LM12>:
   13ad0:	01002123 	sw	zero,8(a0)

0000000000013ad4 <$LM13>:
   13ad4:	01003123 	sw	zero,12(a0)

0000000000013ad8 <$LM14>:
   13ad8:	09009123 	sw	zero,164(a0)

0000000000013adc <$LM15>:
   13adc:	010061a3 	sd	zero,24(a0)

0000000000013ae0 <$LM16>:
   13ae0:	01008123 	sw	zero,32(a0)

0000000000013ae4 <$LM17>:
   13ae4:	0100a123 	sw	zero,40(a0)

0000000000013ae8 <$LM18>:
   13ae8:	28000013 	li	a1,0

0000000000013aec <$LVL5>:
   13aec:	21027013 	add	a0,a0,156

0000000000013af0 <$LVL6>:
   13af0:	30002013 	li	a2,8

0000000000013af4 <$LVL7>:
   13af4:	00051b6f 	jal	14f60 <memset>

0000000000013af8 <$LM19>:
   13af8:	10000b37 	lui	v0,0x16
   13afc:	10870013 	add	v0,v0,448
   13b00:	0504e1a3 	sd	v0,56(s0)

0000000000013b04 <$LM20>:
   13b04:	10000b37 	lui	v0,0x16
   13b08:	10889013 	add	v0,v0,548
   13b0c:	050501a3 	sd	v0,64(s0)

0000000000013b10 <$LM21>:
   13b10:	10000b37 	lui	v0,0x16
   13b14:	108aa013 	add	v0,v0,680

0000000000013b18 <$LM22>:
   13b18:	0f800183 	ld	ra,0(sp)

0000000000013b1c <$LM23>:
   13b1c:	050521a3 	sd	v0,72(s0)

0000000000013b20 <$LM24>:
   13b20:	10000b37 	lui	v0,0x16
   13b24:	108c3013 	add	v0,v0,780

0000000000013b28 <$LM25>:
   13b28:	0528c1a3 	sd	s0,48(s0)

0000000000013b2c <$LM26>:
   13b2c:	050541a3 	sd	v0,80(s0)

0000000000013b30 <$LM27>:
   13b30:	a7802183 	ld	s0,8(sp)

0000000000013b34 <$LVL8>:
   13b34:	f7804013 	add	sp,sp,16
   13b38:	004000eb 	ret

0000000000013b3c <__sfmoreglue>:
   13b3c:	f7bf8013 	add	sp,sp,-32

0000000000013b40 <$LCFI1>:
   13b40:	11400c93 	sll	v0,a1,0x3

0000000000013b44 <$LM30>:
   13b44:	07ac61a3 	sd	s2,24(sp)

0000000000013b48 <$LM31>:
   13b48:	b1401493 	sll	s2,a1,0x5
   13b4c:	b5850033 	sub	s2,s2,v0
   13b50:	15800c93 	sll	v0,s2,0x3
   13b54:	b0ad0033 	sub	s2,v0,s2

0000000000013b58 <$LM32>:
   13b58:	07aa41a3 	sd	s1,16(sp)
   13b5c:	a9400013 	move	s1,a1

0000000000013b60 <$LM33>:
   13b60:	2d806013 	add	a1,s2,24

0000000000013b64 <$LM34>:
   13b64:	07a821a3 	sd	s0,8(sp)
   13b68:	078201a3 	sd	ra,0(sp)

0000000000013b6c <$LM35>:
   13b6c:	00028e6f 	jal	145a4 <_malloc_r>

0000000000013b70 <$LVL11>:
   13b70:	a0800013 	move	s0,v0

0000000000013b74 <$LM36>:
   13b74:	00804063 	beqz	v0,13b94 <$L6>

0000000000013b78 <$LM37>:
   13b78:	20806013 	add	a0,v0,24

0000000000013b7c <$LM38>:
   13b7c:	008001a3 	sd	zero,0(v0)

0000000000013b80 <$LM39>:
   13b80:	00aa2123 	sw	s1,8(v0)

0000000000013b84 <$LM40>:
   13b84:	008841a3 	sd	a0,16(v0)

0000000000013b88 <$LM41>:
   13b88:	28000013 	li	a1,0
   13b8c:	35800013 	move	a2,s2
   13b90:	0004f46f 	jal	14f60 <memset>

0000000000013b94 <$L6>:
   13b94:	0f800183 	ld	ra,0(sp)
   13b98:	15000013 	move	v0,s0
   13b9c:	b7806183 	ld	s2,24(sp)
   13ba0:	af804183 	ld	s1,16(sp)
   13ba4:	a7802183 	ld	s0,8(sp)

0000000000013ba8 <$LVL15>:
   13ba8:	f7808013 	add	sp,sp,32
   13bac:	004000eb 	ret

0000000000013bb0 <_cleanup>:
   13bb0:	10000cb7 	lui	v0,0x19
   13bb4:	20898183 	ld	a0,608(v0)
   13bb8:	ffffbc67 	j	13aa8 <_cleanup_r>

0000000000013bbc <__sinit>:
   13bbc:	11014103 	lw	v0,80(a0)

0000000000013bc0 <$LM47>:
   13bc0:	f7bfc013 	add	sp,sp,-16

0000000000013bc4 <$LCFI2>:
   13bc4:	07a821a3 	sd	s0,8(sp)
   13bc8:	078201a3 	sd	ra,0(sp)

0000000000013bcc <$LM48>:
   13bcc:	a1000013 	move	s0,a0

0000000000013bd0 <$LM49>:
   13bd0:	00802863 	beqz	v0,13be4 <$L11>

0000000000013bd4 <$LM50>:
   13bd4:	0f800183 	ld	ra,0(sp)
   13bd8:	a7802183 	ld	s0,8(sp)
   13bdc:	f7804013 	add	sp,sp,16
   13be0:	004000eb 	ret

0000000000013be4 <$L11>:
   13be4:	18000a37 	lui	v1,0x14
   13be8:	18eaa013 	add	v1,v1,-1368
   13bec:	050761a3 	sd	v1,88(s0)

0000000000013bf0 <$LM52>:
   13bf0:	21002183 	ld	a0,8(a0)

0000000000013bf4 <$LM53>:
   13bf4:	18000413 	li	v1,1

0000000000013bf8 <$LM54>:
   13bf8:	1514e013 	add	v0,s0,1336

0000000000013bfc <$LM55>:
   13bfc:	05074123 	sw	v1,80(s0)

0000000000013c00 <$LM56>:
   13c00:	18000c13 	li	v1,3
   13c04:	5506a123 	sw	v1,1320(s0)

0000000000013c08 <$LM57>:
   13c08:	5504c1a3 	sd	v0,1328(s0)

0000000000013c0c <$LM58>:
   13c0c:	28001013 	li	a1,4
   13c10:	30000013 	li	a2,0

0000000000013c14 <$LM59>:
   13c14:	550081a3 	sd	zero,1312(s0)

0000000000013c18 <$LM60>:
   13c18:	ffffa76f 	jal	13ab4 <std.isra.0>

0000000000013c1c <$LM61>:
   13c1c:	25004183 	ld	a0,16(s0)
   13c20:	28002413 	li	a1,9
   13c24:	30000413 	li	a2,1
   13c28:	ffffa36f 	jal	13ab4 <std.isra.0>

0000000000013c2c <$LM62>:
   13c2c:	25006183 	ld	a0,24(s0)

0000000000013c30 <$LM63>:
   13c30:	0f800183 	ld	ra,0(sp)
   13c34:	a7802183 	ld	s0,8(sp)

0000000000013c38 <$LM64>:
   13c38:	28004813 	li	a1,18
   13c3c:	30000813 	li	a2,2

0000000000013c40 <$LM65>:
   13c40:	f7804013 	add	sp,sp,16

0000000000013c44 <$LM66>:
   13c44:	ffff9c67 	j	13ab4 <std.isra.0>

0000000000013c48 <__sfp>:
   13c48:	f7bf4013 	add	sp,sp,-48

0000000000013c4c <$LCFI3>:
   13c4c:	10000cb7 	lui	v0,0x19

0000000000013c50 <$LM69>:
   13c50:	07ac81a3 	sd	s2,32(sp)

0000000000013c54 <$LM70>:
   13c54:	b0898183 	ld	s2,608(v0)

0000000000013c58 <$LM71>:
   13c58:	07aea1a3 	sd	s3,40(sp)
   13c5c:	07aa61a3 	sd	s1,24(sp)

0000000000013c60 <$LM72>:
   13c60:	15814103 	lw	v0,80(s2)

0000000000013c64 <$LM73>:
   13c64:	07a841a3 	sd	s0,16(sp)
   13c68:	078221a3 	sd	ra,8(sp)

0000000000013c6c <$LM74>:
   13c6c:	b9000013 	move	s3,a0

0000000000013c70 <$LM75>:
   13c70:	0081a063 	beqz	v0,13d40 <$L24>

0000000000013c74 <$L13>:
   13c74:	b5948013 	add	s2,s2,1312

0000000000013c78 <$LM77>:
   13c78:	a83ffc13 	li	s1,-1

0000000000013c7c <$L21>:
   13c7c:	15802103 	lw	v0,8(s2)
   13c80:	2d804183 	ld	a1,16(s2)

0000000000013c84 <$LVL22>:
   13c84:	10bffc1b 	addw	v0,v0,-1

0000000000013c88 <$LVL23>:
   13c88:	18800013 	move	v1,v0
   13c8c:	00807263 	bltz	v0,13cc4 <$L14>

0000000000013c90 <$LM78>:
   13c90:	11404083 	lh	v0,16(a1)

0000000000013c94 <$LM79>:
   13c94:	a1400013 	move	s0,a1

0000000000013c98 <$LM80>:
   13c98:	00807863 	beqz	v0,13cd4 <$L15>

0000000000013c9c <$LM81>:
   13c9c:	3142a013 	add	a2,a1,168
   13ca0:	00000367 	j	13cac <$L17>

0000000000013ca4 <$L18>:
   13ca4:	113da083 	lh	v0,-152(a0)

0000000000013ca8 <$LVL26>:
   13ca8:	00805863 	beqz	v0,13cd4 <$L15>

0000000000013cac <$L17>:
   13cac:	a502a013 	add	s0,s0,168

0000000000013cb0 <$LM84>:
   13cb0:	150b0033 	sub	v0,s0,a1
   13cb4:	208c0033 	add	a0,v0,a2

0000000000013cb8 <$LM85>:
   13cb8:	10fffc1b 	addw	v0,v1,-1

0000000000013cbc <$LVL29>:
   13cbc:	18800013 	move	v1,v0
   13cc0:	f8abc8e3 	bne	v0,s1,13ca4 <$L18>

0000000000013cc4 <$L14>:
   13cc4:	15800183 	ld	v0,0(s2)

0000000000013cc8 <$LVL31>:
   13cc8:	00810863 	beqz	v0,13d4c <$L25>

0000000000013ccc <$L19>:
   13ccc:	b0800013 	move	s2,v0

0000000000013cd0 <$LM88>:
   13cd0:	ffffeb67 	j	13c7c <$L21>

0000000000013cd4 <$L15>:
   13cd4:	103ffc13 	li	v0,-1
   13cd8:	050448a3 	sh	v0,18(s0)

0000000000013cdc <$LM90>:
   13cdc:	10000413 	li	v0,1
   13ce0:	050440a3 	sh	v0,16(s0)

0000000000013ce4 <$LM91>:
   13ce4:	0d009123 	sw	zero,164(s0)

0000000000013ce8 <$LM92>:
   13ce8:	050001a3 	sd	zero,0(s0)

0000000000013cec <$LM93>:
   13cec:	05003123 	sw	zero,12(s0)

0000000000013cf0 <$LM94>:
   13cf0:	05002123 	sw	zero,8(s0)

0000000000013cf4 <$LM95>:
   13cf4:	050061a3 	sd	zero,24(s0)

0000000000013cf8 <$LM96>:
   13cf8:	05008123 	sw	zero,32(s0)

0000000000013cfc <$LM97>:
   13cfc:	0500a123 	sw	zero,40(s0)

0000000000013d00 <$LM98>:
   13d00:	25027013 	add	a0,s0,156
   13d04:	28000013 	li	a1,0
   13d08:	30002013 	li	a2,8
   13d0c:	0004956f 	jal	14f60 <memset>

0000000000013d10 <$LM99>:
   13d10:	050161a3 	sd	zero,88(s0)

0000000000013d14 <$LM100>:
   13d14:	05018123 	sw	zero,96(s0)

0000000000013d18 <$LM101>:
   13d18:	0501e1a3 	sd	zero,120(s0)

0000000000013d1c <$LM102>:
   13d1c:	0d000123 	sw	zero,128(s0)

0000000000013d20 <$L22>:
   13d20:	0f802183 	ld	ra,8(sp)
   13d24:	15000013 	move	v0,s0
   13d28:	bf80a183 	ld	s3,40(sp)

0000000000013d2c <$LVL35>:
   13d2c:	b7808183 	ld	s2,32(sp)

0000000000013d30 <$LVL36>:
   13d30:	af806183 	ld	s1,24(sp)
   13d34:	a7804183 	ld	s0,16(sp)
   13d38:	f780c013 	add	sp,sp,48
   13d3c:	004000eb 	ret

0000000000013d40 <$L24>:
   13d40:	25800013 	move	a0,s2

0000000000013d44 <$LVL38>:
   13d44:	ffff9e6f 	jal	13bbc <__sinit>
   13d48:	ffffcb67 	j	13c74 <$L13>

0000000000013d4c <$L25>:
   13d4c:	25c00013 	move	a0,s3
   13d50:	28001013 	li	a1,4
   13d54:	ffff7a6f 	jal	13b3c <__sfmoreglue>

0000000000013d58 <$LVL40>:
   13d58:	058401a3 	sd	v0,0(s2)

0000000000013d5c <$LM106>:
   13d5c:	f880e0e3 	bnez	v0,13ccc <$L19>

0000000000013d60 <$LM107>:
   13d60:	10003013 	li	v0,12
   13d64:	05c40123 	sw	v0,0(s3)

0000000000013d68 <$LM108>:
   13d68:	a0000013 	li	s0,0
   13d6c:	ffffed67 	j	13d20 <$L22>

0000000000013d70 <__sfp_lock_acquire>:
   13d70:	004000eb 	ret

0000000000013d74 <__sfp_lock_release>:
   13d74:	004000eb 	ret

0000000000013d78 <__sinit_lock_acquire>:
   13d78:	004000eb 	ret

0000000000013d7c <__sinit_lock_release>:
   13d7c:	004000eb 	ret

0000000000013d80 <__fp_lock_all>:
   13d80:	10000d37 	lui	v0,0x1a
   13d84:	20ad4183 	ld	a0,-1200(v0)
   13d88:	28000a37 	lui	a1,0x14
   13d8c:	296a6013 	add	a1,a1,-1384
   13d90:	00010b67 	j	141bc <_fwalk>

0000000000013d94 <__fp_unlock_all>:
   13d94:	10000d37 	lui	v0,0x1a
   13d98:	20ad4183 	ld	a0,-1200(v0)
   13d9c:	28000a37 	lui	a1,0x14
   13da0:	296a8013 	add	a1,a1,-1376
   13da4:	00010667 	j	141bc <_fwalk>

0000000000013da8 <_malloc_trim_r>:
   13da8:	f7bf4013 	add	sp,sp,-48

0000000000013dac <$LCFI0>:
   13dac:	07aa61a3 	sd	s1,24(sp)

0000000000013db0 <$LM2>:
   13db0:	a8000d37 	lui	s1,0x1a
   13db4:	ad4b8013 	add	s1,s1,736

0000000000013db8 <$LM3>:
   13db8:	07aea1a3 	sd	s3,40(sp)
   13dbc:	07ac81a3 	sd	s2,32(sp)
   13dc0:	07a841a3 	sd	s0,16(sp)
   13dc4:	b9400013 	move	s3,a1
   13dc8:	a1000013 	move	s0,a0
   13dcc:	078221a3 	sd	ra,8(sp)

0000000000013dd0 <$LM4>:
   13dd0:	0004a06f 	jal	15050 <__malloc_lock>

0000000000013dd4 <$LM5>:
   13dd4:	25404183 	ld	a0,16(s1)

0000000000013dd8 <$LM6>:
   13dd8:	100000b7 	lui	v0,0x1
   13ddc:	18bf7c13 	add	v1,v0,-33

0000000000013de0 <$LM7>:
   13de0:	b1002183 	ld	s2,8(a0)

0000000000013de4 <$LM8>:
   13de4:	25000013 	move	a0,s0

0000000000013de8 <$LM9>:
   13de8:	b5bff393 	and	s2,s2,-4

0000000000013dec <$LM10>:
   13dec:	1d860033 	add	v1,s2,v1
   13df0:	b8ef0033 	sub	s3,v1,s3

0000000000013df4 <$LVL3>:
   13df4:	bdc03293 	srl	s3,s3,0xc
   13df8:	bdfffc13 	add	s3,s3,-1
   13dfc:	bdc03093 	sll	s3,s3,0xc

0000000000013e00 <$LM11>:
   13e00:	05c43a63 	blt	s3,v0,13e1c <$L8>

0000000000013e04 <$LM12>:
   13e04:	28000013 	li	a1,0
   13e08:	0008b56f 	jal	160dc <_sbrk_r>

0000000000013e0c <$LM13>:
   13e0c:	1d404183 	ld	v1,16(s1)

0000000000013e10 <$LM14>:
   13e10:	25000013 	move	a0,s0

0000000000013e14 <$LM15>:
   13e14:	18ec0033 	add	v1,v1,s2
   13e18:	00865063 	beq	v0,v1,13e40 <$L4>

0000000000013e1c <$L8>:
   13e1c:	00048e6f 	jal	15054 <__malloc_unlock>

0000000000013e20 <$LM17>:
   13e20:	0f802183 	ld	ra,8(sp)

0000000000013e24 <$LM18>:
   13e24:	10000013 	li	v0,0

0000000000013e28 <$LM19>:
   13e28:	bf80a183 	ld	s3,40(sp)

0000000000013e2c <$LVL7>:
   13e2c:	b7808183 	ld	s2,32(sp)
   13e30:	af806183 	ld	s1,24(sp)
   13e34:	a7804183 	ld	s0,16(sp)

0000000000013e38 <$LVL8>:
   13e38:	f780c013 	add	sp,sp,48
   13e3c:	004000eb 	ret

0000000000013e40 <$L4>:
   13e40:	282f0033 	neg	a1,s3
   13e44:	0008a66f 	jal	160dc <_sbrk_r>

0000000000013e48 <$LM21>:
   13e48:	183ffc13 	li	v1,-1
   13e4c:	0086a063 	beq	v0,v1,13e9c <$L10>

0000000000013e50 <$LM22>:
   13e50:	10000db7 	lui	v0,0x1b

0000000000013e54 <$LVL11>:
   13e54:	20ad4103 	lw	a0,-1200(v0)

0000000000013e58 <$LM23>:
   13e58:	1d404183 	ld	v1,16(s1)
   13e5c:	b5af0033 	sub	s2,s2,s3

0000000000013e60 <$LVL12>:
   13e60:	b5800713 	or	s2,s2,1

0000000000013e64 <$LM24>:
   13e64:	bdc0009b 	sllw	s3,s3,0x0

0000000000013e68 <$LVL13>:
   13e68:	b92f003b 	subw	s3,a0,s3

0000000000013e6c <$LM25>:
   13e6c:	00ec21a3 	sd	s2,8(v1)

0000000000013e70 <$LM26>:
   13e70:	25000013 	move	a0,s0

0000000000013e74 <$LM27>:
   13e74:	b0af4123 	sw	s3,-1200(v0)

0000000000013e78 <$LM28>:
   13e78:	0004776f 	jal	15054 <__malloc_unlock>

0000000000013e7c <$LM29>:
   13e7c:	0f802183 	ld	ra,8(sp)

0000000000013e80 <$LM30>:
   13e80:	10000413 	li	v0,1

0000000000013e84 <$LM31>:
   13e84:	bf80a183 	ld	s3,40(sp)
   13e88:	b7808183 	ld	s2,32(sp)
   13e8c:	af806183 	ld	s1,24(sp)
   13e90:	a7804183 	ld	s0,16(sp)

0000000000013e94 <$LVL14>:
   13e94:	f780c013 	add	sp,sp,48
   13e98:	004000eb 	ret

0000000000013e9c <$L10>:
   13e9c:	25000013 	move	a0,s0
   13ea0:	28000013 	li	a1,0
   13ea4:	00088e6f 	jal	160dc <_sbrk_r>

0000000000013ea8 <$LM33>:
   13ea8:	1d404183 	ld	v1,16(s1)
   13eac:	20870033 	sub	a0,v0,v1

0000000000013eb0 <$LM34>:
   13eb0:	29008113 	slt	a1,a0,32
   13eb4:	014040e3 	bnez	a1,13ed4 <$L6>

0000000000013eb8 <$LM35>:
   13eb8:	28000d37 	lui	a1,0x1a
   13ebc:	294b4183 	ld	a1,720(a1)

0000000000013ec0 <$LM36>:
   13ec0:	21000713 	or	a0,a0,1

0000000000013ec4 <$LVL18>:
   13ec4:	00c821a3 	sd	a0,8(v1)

0000000000013ec8 <$LM37>:
   13ec8:	108b0033 	sub	v0,v0,a1

0000000000013ecc <$LVL19>:
   13ecc:	28000db7 	lui	a1,0x1b
   13ed0:	b1454123 	sw	v0,-1200(a1)

0000000000013ed4 <$L6>:
   13ed4:	25000013 	move	a0,s0
   13ed8:	ffffd167 	j	13e1c <$L8>

0000000000013edc <_free_r>:
   13edc:	f7bf8013 	add	sp,sp,-32

0000000000013ee0 <$LCFI1>:
   13ee0:	07aa61a3 	sd	s1,24(sp)
   13ee4:	07a841a3 	sd	s0,16(sp)
   13ee8:	078221a3 	sd	ra,8(sp)

0000000000013eec <$LM40>:
   13eec:	a9400013 	move	s1,a1
   13ef0:	a1000013 	move	s0,a0

0000000000013ef4 <$LM41>:
   13ef4:	09406863 	beqz	a1,14028 <$L11>

0000000000013ef8 <$LM42>:
   13ef8:	0004566f 	jal	15050 <__malloc_lock>

0000000000013efc <$LM43>:
   13efc:	3d7fe183 	ld	a3,-8(s1)

0000000000013f00 <$LM44>:
   13f00:	257fc013 	add	a0,s1,-16

0000000000013f04 <$LM45>:
   13f04:	30000d37 	lui	a2,0x1a

0000000000013f08 <$LM46>:
   13f08:	11fffb93 	and	v0,a3,-2

0000000000013f0c <$LM47>:
   13f0c:	19040033 	add	v1,a0,v0

0000000000013f10 <$LM48>:
   13f10:	318b8013 	add	a2,a2,736

0000000000013f14 <$LM49>:
   13f14:	28c02183 	ld	a1,8(v1)

0000000000013f18 <$LM50>:
   13f18:	41804183 	ld	a4,16(a2)

0000000000013f1c <$LM51>:
   13f1c:	39c00793 	and	a3,a3,1

0000000000013f20 <$LM52>:
   13f20:	297ff393 	and	a1,a1,-4

0000000000013f24 <$LM53>:
   13f24:	0a06e063 	beq	a4,v1,14094 <$L38>

0000000000013f28 <$LM54>:
   13f28:	00ca21a3 	sd	a1,8(v1)

0000000000013f2c <$LM55>:
   13f2c:	40000013 	li	a4,0

0000000000013f30 <$LM56>:
   13f30:	01c068e3 	bnez	a3,13f64 <$L16>

0000000000013f34 <$LM57>:
   13f34:	457fc183 	ld	a4,-16(s1)

0000000000013f38 <$LM58>:
   13f38:	48000d37 	lui	a5,0x1a
   13f3c:	4a4bc013 	add	a5,a5,752

0000000000013f40 <$LM59>:
   13f40:	21110033 	sub	a0,a0,a4

0000000000013f44 <$LM60>:
   13f44:	39004183 	ld	a3,16(a0)

0000000000013f48 <$LM61>:
   13f48:	10900033 	add	v0,v0,a4

0000000000013f4c <$LM62>:
   13f4c:	40000413 	li	a4,1

0000000000013f50 <$LM63>:
   13f50:	01d22863 	beq	a3,a5,13f64 <$L16>

0000000000013f54 <$LM64>:
   13f54:	49006183 	ld	a5,24(a0)

0000000000013f58 <$LM65>:
   13f58:	40000013 	li	a4,0

0000000000013f5c <$LM66>:
   13f5c:	01d261a3 	sd	a5,24(a3)
   13f60:	024e41a3 	sd	a3,16(a5)

0000000000013f64 <$L16>:
   13f64:	38ca0033 	add	a3,v1,a1
   13f68:	39c02183 	ld	a3,8(a3)
   13f6c:	39c00793 	and	a3,a3,1
   13f70:	01c050e3 	bnez	a3,13f98 <$L17>

0000000000013f74 <$LM68>:
   13f74:	108a0033 	add	v0,v0,a1

0000000000013f78 <$LM69>:
   13f78:	28c04183 	ld	a1,16(v1)

0000000000013f7c <$LVL34>:
   13f7c:	020020e3 	bnez	a4,13f8c <$L19>

0000000000013f80 <$LM70>:
   13f80:	38000d37 	lui	a3,0x1a
   13f84:	39cbc013 	add	a3,a3,752
   13f88:	094eb863 	beq	a1,a3,140e4 <$L39>

0000000000013f8c <$L19>:
   13f8c:	18c06183 	ld	v1,24(v1)

0000000000013f90 <$LVL35>:
   13f90:	014661a3 	sd	v1,24(a1)
   13f94:	00ca41a3 	sd	a1,16(v1)

0000000000013f98 <$L17>:
   13f98:	28800713 	or	a1,v0,1

0000000000013f9c <$LM73>:
   13f9c:	19040033 	add	v1,a0,v0

0000000000013fa0 <$LM74>:
   13fa0:	010a21a3 	sd	a1,8(a0)

0000000000013fa4 <$LM75>:
   13fa4:	00c401a3 	sd	v0,0(v1)

0000000000013fa8 <$LM76>:
   13fa8:	0200d0e3 	bnez	a4,14010 <$L20>

0000000000013fac <$LM77>:
   13fac:	18880193 	sltu	v1,v0,512
   13fb0:	00c118e3 	bnez	v1,1403c <$L40>

0000000000013fb4 <$LM78>:
   13fb4:	18802693 	srl	v1,v0,0x9
   13fb8:	28c01593 	sltu	a1,v1,5
   13fbc:	09409863 	beqz	a1,14108 <$L22>

0000000000013fc0 <$LM79>:
   13fc0:	38801a93 	srl	a3,v0,0x6
   13fc4:	39c0009b 	sllw	a3,a3,0x0
   13fc8:	39c0e01b 	addw	a3,a3,56
   13fcc:	29c00013 	move	a1,a3
   13fd0:	39c0049b 	sllw	a3,a3,0x1

0000000000013fd4 <$L23>:
   13fd4:	39c00c93 	sll	a3,a3,0x3
   13fd8:	398e0033 	add	a3,a2,a3

0000000000013fdc <$LVL38>:
   13fdc:	19c04183 	ld	v1,16(a3)

0000000000013fe0 <$LVL39>:
   13fe0:	00ce20e3 	bne	v1,a3,13ff0 <$L37>
   13fe4:	00005067 	j	14124 <$L41>

0000000000013fe8 <$L35>:
   13fe8:	18c04183 	ld	v1,16(v1)

0000000000013fec <$LVL41>:
   13fec:	01c62063 	beq	a3,v1,13ffc <$L29>

0000000000013ff0 <$L37>:
   13ff0:	28c02183 	ld	a1,8(v1)
   13ff4:	297ff393 	and	a1,a1,-4
   13ff8:	f88be363 	bltu	v0,a1,13fe8 <$L35>

0000000000013ffc <$L29>:
   13ffc:	10c06183 	ld	v0,24(v1)

0000000000014000 <$L30>:
   14000:	010461a3 	sd	v0,24(a0)
   14004:	010641a3 	sd	v1,16(a0)
   14008:	00c861a3 	sd	a0,24(v1)
   1400c:	008841a3 	sd	a0,16(v0)

0000000000014010 <$L20>:
   14010:	25000013 	move	a0,s0

0000000000014014 <$LM86>:
   14014:	af806183 	ld	s1,24(sp)

0000000000014018 <$LVL44>:
   14018:	a7804183 	ld	s0,16(sp)

000000000001401c <$LVL45>:
   1401c:	0f802183 	ld	ra,8(sp)
   14020:	f7808013 	add	sp,sp,32

0000000000014024 <$LM87>:
   14024:	00040c67 	j	15054 <__malloc_unlock>

0000000000014028 <$L11>:
   14028:	0f802183 	ld	ra,8(sp)
   1402c:	af806183 	ld	s1,24(sp)
   14030:	a7804183 	ld	s0,16(sp)
   14034:	f7808013 	add	sp,sp,32
   14038:	004000eb 	ret

000000000001403c <$L40>:
   1403c:	10800e93 	srl	v0,v0,0x3

0000000000014040 <$LVL48>:
   14040:	1080009b 	sllw	v0,v0,0x0

0000000000014044 <$LVL49>:
   14044:	1880049b 	sllw	v1,v0,0x1
   14048:	18c00c93 	sll	v1,v1,0x3
   1404c:	19860033 	add	v1,a2,v1

0000000000014050 <$LVL50>:
   14050:	39802183 	ld	a3,8(a2)
   14054:	28c04183 	ld	a1,16(v1)

0000000000014058 <$LVL51>:
   14058:	10810a9b 	sraw	v0,v0,0x2

000000000001405c <$LVL52>:
   1405c:	40000413 	li	a4,1

0000000000014060 <$LVL53>:
   14060:	120400b3 	sll	v0,a4,v0
   14064:	108e0333 	or	v0,v0,a3
   14068:	010661a3 	sd	v1,24(a0)
   1406c:	010a41a3 	sd	a1,16(a0)
   14070:	014861a3 	sd	a0,24(a1)
   14074:	00c841a3 	sd	a0,16(v1)

0000000000014078 <$LM90>:
   14078:	af806183 	ld	s1,24(sp)

000000000001407c <$LM91>:
   1407c:	25000013 	move	a0,s0

0000000000014080 <$LM92>:
   14080:	0f802183 	ld	ra,8(sp)
   14084:	a7804183 	ld	s0,16(sp)

0000000000014088 <$LM93>:
   14088:	018421a3 	sd	v0,8(a2)

000000000001408c <$LM94>:
   1408c:	f7808013 	add	sp,sp,32

0000000000014090 <$LM95>:
   14090:	0003f167 	j	15054 <__malloc_unlock>

0000000000014094 <$L38>:
   14094:	11440033 	add	v0,a1,v0

0000000000014098 <$LM97>:
   14098:	01c040e3 	bnez	a3,140b8 <$L14>

000000000001409c <$LM98>:
   1409c:	3d7fc183 	ld	a3,-16(s1)

00000000000140a0 <$LM99>:
   140a0:	210f0033 	sub	a0,a0,a3

00000000000140a4 <$LM100>:
   140a4:	19006183 	ld	v1,24(a0)

00000000000140a8 <$LVL61>:
   140a8:	29004183 	ld	a1,16(a0)

00000000000140ac <$LM101>:
   140ac:	108e0033 	add	v0,v0,a3

00000000000140b0 <$LM102>:
   140b0:	014661a3 	sd	v1,24(a1)
   140b4:	00ca41a3 	sd	a1,16(v1)

00000000000140b8 <$L14>:
   140b8:	18000d37 	lui	v1,0x1a
   140bc:	18cb6183 	ld	v1,728(v1)

00000000000140c0 <$LM104>:
   140c0:	28800713 	or	a1,v0,1
   140c4:	010a21a3 	sd	a1,8(a0)

00000000000140c8 <$LM105>:
   140c8:	018841a3 	sd	a0,16(a2)

00000000000140cc <$LM106>:
   140cc:	f8868b63 	bltu	v0,v1,14010 <$L20>

00000000000140d0 <$LM107>:
   140d0:	10000db7 	lui	v0,0x1b

00000000000140d4 <$LVL65>:
   140d4:	28ae2183 	ld	a1,-1144(v0)
   140d8:	25000013 	move	a0,s0

00000000000140dc <$LVL66>:
   140dc:	ffff336f 	jal	13da8 <_malloc_trim_r>

00000000000140e0 <$LVL67>:
   140e0:	ffffcc67 	j	14010 <$L20>

00000000000140e4 <$L39>:
   140e4:	38800713 	or	a3,v0,1

00000000000140e8 <$LM109>:
   140e8:	19040033 	add	v1,a0,v0

00000000000140ec <$LM110>:
   140ec:	0188a1a3 	sd	a0,40(a2)
   140f0:	018881a3 	sd	a0,32(a2)
   140f4:	010a61a3 	sd	a1,24(a0)
   140f8:	010a41a3 	sd	a1,16(a0)

00000000000140fc <$LM111>:
   140fc:	010e21a3 	sd	a3,8(a0)

0000000000014100 <$LM112>:
   14100:	00c401a3 	sd	v0,0(v1)
   14104:	ffffc367 	j	14010 <$L20>

0000000000014108 <$L22>:
   14108:	28c05593 	sltu	a1,v1,21
   1410c:	01408863 	beqz	a1,14150 <$L24>

0000000000014110 <$LM114>:
   14110:	18c0009b 	sllw	v1,v1,0x0
   14114:	38c16c1b 	addw	a3,v1,91
   14118:	29c00013 	move	a1,a3
   1411c:	39c0049b 	sllw	a3,a3,0x1
   14120:	ffffad67 	j	13fd4 <$L23>

0000000000014124 <$L41>:
   14124:	39417e9b 	sraw	a3,a1,0x1f

0000000000014128 <$LVL72>:
   14128:	39c07a9b 	srlw	a3,a3,0x1e
   1412c:	11802183 	ld	v0,8(a2)

0000000000014130 <$LVL73>:
   14130:	29ca003b 	addw	a1,a3,a1

0000000000014134 <$LVL74>:
   14134:	29410a9b 	sraw	a1,a1,0x2
   14138:	38000413 	li	a3,1
   1413c:	29ca00b3 	sll	a1,a3,a1
   14140:	11440333 	or	v0,a1,v0
   14144:	018421a3 	sd	v0,8(a2)
   14148:	10c00013 	move	v0,v1
   1414c:	ffffad67 	j	14000 <$L30>

0000000000014150 <$L24>:
   14150:	28c15593 	sltu	a1,v1,85
   14154:	01403863 	beqz	a1,14170 <$L25>

0000000000014158 <$LM117>:
   14158:	38803293 	srl	a3,v0,0xc
   1415c:	39c0009b 	sllw	a3,a3,0x0
   14160:	39c1b81b 	addw	a3,a3,110
   14164:	29c00013 	move	a1,a3
   14168:	39c0049b 	sllw	a3,a3,0x1
   1416c:	ffff9a67 	j	13fd4 <$L23>

0000000000014170 <$L25>:
   14170:	28c55593 	sltu	a1,v1,341
   14174:	01403863 	beqz	a1,14190 <$L26>

0000000000014178 <$LM119>:
   14178:	38803e93 	srl	a3,v0,0xf
   1417c:	39c0009b 	sllw	a3,a3,0x0
   14180:	39c1dc1b 	addw	a3,a3,119
   14184:	29c00013 	move	a1,a3
   14188:	39c0049b 	sllw	a3,a3,0x1
   1418c:	ffff9267 	j	13fd4 <$L23>

0000000000014190 <$L26>:
   14190:	18d55593 	sltu	v1,v1,1365
   14194:	00c03863 	beqz	v1,141b0 <$L34>

0000000000014198 <$LM121>:
   14198:	38804a93 	srl	a3,v0,0x12
   1419c:	39c0009b 	sllw	a3,a3,0x0
   141a0:	39c1f01b 	addw	a3,a3,124
   141a4:	29c00013 	move	a1,a3
   141a8:	39c0049b 	sllw	a3,a3,0x1
   141ac:	ffff8a67 	j	13fd4 <$L23>

00000000000141b0 <$L34>:
   141b0:	3803f013 	li	a3,252
   141b4:	2801f813 	li	a1,126
   141b8:	ffff8767 	j	13fd4 <$L23>

00000000000141bc <_fwalk>:
   141bc:	f7bf0013 	add	sp,sp,-64

00000000000141c0 <$LCFI0>:
   141c0:	07a841a3 	sd	s0,16(sp)

00000000000141c4 <$LBB6>:
   141c4:	a1148013 	add	s0,a0,1312

00000000000141c8 <$LBE6>:
   141c8:	07b2e1a3 	sd	s5,56(sp)
   141cc:	07b0c1a3 	sd	s4,48(sp)
   141d0:	07aea1a3 	sd	s3,40(sp)
   141d4:	07ac81a3 	sd	s2,32(sp)
   141d8:	07aa61a3 	sd	s1,24(sp)
   141dc:	078221a3 	sd	ra,8(sp)

00000000000141e0 <$LM4>:
   141e0:	c9400013 	move	s5,a1

00000000000141e4 <$LBB10>:
   141e4:	c0000013 	li	s4,0

00000000000141e8 <$LBE10>:
   141e8:	fffee26f 	jal	13d70 <__sfp_lock_acquire>

00000000000141ec <$LBB11>:
   141ec:	0500a063 	beqz	s0,1423c <$L2>

00000000000141f0 <$LM8>:
   141f0:	b83ffc13 	li	s3,-1

00000000000141f4 <$L6>:
   141f4:	15002103 	lw	v0,8(s0)
   141f8:	ad004183 	ld	s1,16(s0)

00000000000141fc <$LVL3>:
   141fc:	10bffc1b 	addw	v0,v0,-1

0000000000014200 <$LVL4>:
   14200:	b0800013 	move	s2,v0
   14204:	00806263 	bltz	v0,14234 <$L3>

0000000000014208 <$L8>:
   14208:	15404083 	lh	v0,16(s1)

000000000001420c <$LVL6>:
   1420c:	00803063 	beqz	v0,14224 <$L4>

0000000000014210 <$LM11>:
   14210:	15404883 	lh	v0,18(s1)

0000000000014214 <$LM12>:
   14214:	25400013 	move	a0,s1

0000000000014218 <$LM13>:
   14218:	00ae1863 	beq	v0,s3,14224 <$L4>

000000000001421c <$LM14>:
   1421c:	0e40006b 	jalr	s5
   14220:	c0b00333 	or	s4,v0,s4

0000000000014224 <$L4>:
   14224:	15bffc1b 	addw	v0,s2,-1
   14228:	ad42a013 	add	s1,s1,168

000000000001422c <$LVL8>:
   1422c:	b0800013 	move	s2,v0
   14230:	f8afb0e3 	bne	v0,s3,14208 <$L8>

0000000000014234 <$L3>:
   14234:	a5000183 	ld	s0,0(s0)

0000000000014238 <$LVL10>:
   14238:	fd0178e3 	bnez	s0,141f4 <$L6>

000000000001423c <$L2>:
   1423c:	fffece6f 	jal	13d74 <__sfp_lock_release>

0000000000014240 <$LM18>:
   14240:	0f802183 	ld	ra,8(sp)
   14244:	16000013 	move	v0,s4
   14248:	cf80e183 	ld	s5,56(sp)

000000000001424c <$LVL12>:
   1424c:	c780c183 	ld	s4,48(sp)

0000000000014250 <$LVL13>:
   14250:	bf80a183 	ld	s3,40(sp)
   14254:	b7808183 	ld	s2,32(sp)
   14258:	af806183 	ld	s1,24(sp)
   1425c:	a7804183 	ld	s0,16(sp)

0000000000014260 <$LVL14>:
   14260:	f7810013 	add	sp,sp,64
   14264:	004000eb 	ret

0000000000014268 <_fwalk_reent>:
   14268:	f7bf0013 	add	sp,sp,-64

000000000001426c <$LCFI1>:
   1426c:	07ae81a3 	sd	s3,32(sp)

0000000000014270 <$LBB12>:
   14270:	b9148013 	add	s3,a0,1312

0000000000014274 <$LBE12>:
   14274:	07b4e1a3 	sd	s6,56(sp)
   14278:	07b2c1a3 	sd	s5,48(sp)
   1427c:	07b0a1a3 	sd	s4,40(sp)
   14280:	07ac61a3 	sd	s2,24(sp)
   14284:	07aa41a3 	sd	s1,16(sp)
   14288:	07a821a3 	sd	s0,8(sp)
   1428c:	078201a3 	sd	ra,0(sp)

0000000000014290 <$LM22>:
   14290:	c9000013 	move	s5,a0
   14294:	d1400013 	move	s6,a1

0000000000014298 <$LBB14>:
   14298:	c0000013 	li	s4,0

000000000001429c <$LBE14>:
   1429c:	fffeb56f 	jal	13d70 <__sfp_lock_acquire>

00000000000142a0 <$LBB15>:
   142a0:	05c0a863 	beqz	s3,142f4 <$L13>

00000000000142a4 <$LM26>:
   142a4:	b03ffc13 	li	s2,-1

00000000000142a8 <$L17>:
   142a8:	15c02103 	lw	v0,8(s3)
   142ac:	a5c04183 	ld	s0,16(s3)

00000000000142b0 <$LVL18>:
   142b0:	10bffc1b 	addw	v0,v0,-1

00000000000142b4 <$LVL19>:
   142b4:	a8800013 	move	s1,v0
   142b8:	00806a63 	bltz	v0,142ec <$L14>

00000000000142bc <$L19>:
   142bc:	15004083 	lh	v0,16(s0)

00000000000142c0 <$LVL21>:
   142c0:	00803863 	beqz	v0,142dc <$L15>

00000000000142c4 <$LM29>:
   142c4:	15004883 	lh	v0,18(s0)

00000000000142c8 <$LM30>:
   142c8:	2d000013 	move	a1,s0
   142cc:	26400013 	move	a0,s5

00000000000142d0 <$LM31>:
   142d0:	00ac1863 	beq	v0,s2,142dc <$L15>

00000000000142d4 <$LM32>:
   142d4:	0e80006b 	jalr	s6
   142d8:	c0b00333 	or	s4,v0,s4

00000000000142dc <$L15>:
   142dc:	157ffc1b 	addw	v0,s1,-1
   142e0:	a502a013 	add	s0,s0,168

00000000000142e4 <$LVL23>:
   142e4:	a8800013 	move	s1,v0
   142e8:	f8ada8e3 	bne	v0,s2,142bc <$L19>

00000000000142ec <$L14>:
   142ec:	bdc00183 	ld	s3,0(s3)

00000000000142f0 <$LVL25>:
   142f0:	fdc170e3 	bnez	s3,142a8 <$L17>

00000000000142f4 <$L13>:
   142f4:	fffea06f 	jal	13d74 <__sfp_lock_release>

00000000000142f8 <$LM36>:
   142f8:	0f800183 	ld	ra,0(sp)
   142fc:	16000013 	move	v0,s4
   14300:	d780e183 	ld	s6,56(sp)

0000000000014304 <$LVL27>:
   14304:	cf80c183 	ld	s5,48(sp)

0000000000014308 <$LVL28>:
   14308:	c780a183 	ld	s4,40(sp)

000000000001430c <$LVL29>:
   1430c:	bf808183 	ld	s3,32(sp)

0000000000014310 <$LVL30>:
   14310:	b7806183 	ld	s2,24(sp)
   14314:	af804183 	ld	s1,16(sp)
   14318:	a7802183 	ld	s0,8(sp)
   1431c:	f7810013 	add	sp,sp,64
   14320:	004000eb 	ret

0000000000014324 <_setlocale_r>:
   14324:	f7bf8013 	add	sp,sp,-32

0000000000014328 <$LCFI0>:
   14328:	07a841a3 	sd	s0,16(sp)
   1432c:	07aa61a3 	sd	s1,24(sp)
   14330:	078221a3 	sd	ra,8(sp)

0000000000014334 <$LM2>:
   14334:	a1800013 	move	s0,a2

0000000000014338 <$LM3>:
   14338:	01803063 	beqz	a2,14350 <$L4>

000000000001433c <$LM4>:
   1433c:	28000d37 	lui	a1,0x1a

0000000000014340 <$LVL1>:
   14340:	21800013 	move	a0,a2

0000000000014344 <$LVL2>:
   14344:	296c2013 	add	a1,a1,-1272
   14348:	0007f36f 	jal	16314 <strcmp>

000000000001434c <$LVL3>:
   1434c:	008048e3 	bnez	v0,14370 <$L8>

0000000000014350 <$L4>:
   14350:	18000d37 	lui	v1,0x1a
   14354:	18e90013 	add	v1,v1,-1472

0000000000014358 <$L2>:
   14358:	0f802183 	ld	ra,8(sp)
   1435c:	10c00013 	move	v0,v1
   14360:	af806183 	ld	s1,24(sp)
   14364:	a7804183 	ld	s0,16(sp)

0000000000014368 <$LVL4>:
   14368:	f7808013 	add	sp,sp,32
   1436c:	004000eb 	ret

0000000000014370 <$L8>:
   14370:	a8000d37 	lui	s1,0x1a
   14374:	25000013 	move	a0,s0
   14378:	2d690013 	add	a1,s1,-1472
   1437c:	0007e66f 	jal	16314 <strcmp>

0000000000014380 <$LM8>:
   14380:	1d690013 	add	v1,s1,-1472

0000000000014384 <$LM9>:
   14384:	f881a863 	beqz	v0,14358 <$L2>

0000000000014388 <$LM10>:
   14388:	28000d37 	lui	a1,0x1a
   1438c:	25000013 	move	a0,s0
   14390:	2969e013 	add	a1,a1,-1416
   14394:	0007e06f 	jal	16314 <strcmp>

0000000000014398 <$LM11>:
   14398:	18000013 	li	v1,0

000000000001439c <$LM12>:
   1439c:	f88178e3 	bnez	v0,14358 <$L2>

00000000000143a0 <$LM13>:
   143a0:	1d690013 	add	v1,s1,-1472
   143a4:	ffffed67 	j	14358 <$L2>

00000000000143a8 <__locale_charset>:
   143a8:	10000d37 	lui	v0,0x1a

00000000000143ac <$LM16>:
   143ac:	108a4013 	add	v0,v0,656
   143b0:	004000eb 	ret

00000000000143b4 <__locale_msgcharset>:
   143b4:	10000d37 	lui	v0,0x1a

00000000000143b8 <$LM19>:
   143b8:	108ac013 	add	v0,v0,688
   143bc:	004000eb 	ret

00000000000143c0 <__locale_cjk_lang>:
   143c0:	10000013 	li	v0,0
   143c4:	004000eb 	ret

00000000000143c8 <_localeconv_r>:
   143c8:	10000cb7 	lui	v0,0x19

00000000000143cc <$LM24>:
   143cc:	10954013 	add	v0,v0,1360
   143d0:	004000eb 	ret

00000000000143d4 <setlocale>:
   143d4:	18000d37 	lui	v1,0x1a

00000000000143d8 <$LM27>:
   143d8:	11000013 	move	v0,a0

00000000000143dc <$LM28>:
   143dc:	20ed4183 	ld	a0,-1200(v1)

00000000000143e0 <$LVL8>:
   143e0:	31400013 	move	a2,a1
   143e4:	28800013 	move	a1,v0

00000000000143e8 <$LVL9>:
   143e8:	ffffcf67 	j	14324 <_setlocale_r>

00000000000143ec <localeconv>:
   143ec:	10000cb7 	lui	v0,0x19

00000000000143f0 <$LM31>:
   143f0:	10954013 	add	v0,v0,1360
   143f4:	004000eb 	ret

00000000000143f8 <__smakebuf_r>:
   143f8:	19404083 	lh	v1,16(a1)

00000000000143fc <$LM3>:
   143fc:	f7bd0013 	add	sp,sp,-192

0000000000014400 <$LCFI0>:
   14400:	0fa881a3 	sd	s0,160(sp)

0000000000014404 <$LM4>:
   14404:	10c0409b 	sllw	v0,v1,0x10
   14408:	1080429b 	srlw	v0,v0,0x10

000000000001440c <$LM5>:
   1440c:	a1400013 	move	s0,a1

0000000000014410 <$LM6>:
   14410:	28800b93 	and	a1,v0,2

0000000000014414 <$LM7>:
   14414:	0faaa1a3 	sd	s1,168(sp)
   14418:	0faee1a3 	sd	s3,184(sp)
   1441c:	0facc1a3 	sd	s2,176(sp)
   14420:	0f8261a3 	sd	ra,152(sp)

0000000000014424 <$LM8>:
   14424:	a9000013 	move	s1,a0

0000000000014428 <$LM9>:
   14428:	014168e3 	bnez	a1,144dc <$L12>

000000000001442c <$LM10>:
   1442c:	2d004883 	lh	a1,18(s0)
   14430:	01408a63 	bltz	a1,14474 <$L4>

0000000000014434 <$LM11>:
   14434:	37800013 	move	a2,sp
   14438:	000cd86f 	jal	17798 <_fstat_r>

000000000001443c <$LVL2>:
   1443c:	00805a63 	bltz	v0,14468 <$L13>

0000000000014440 <$LM12>:
   14440:	1f803103 	lw	v1,12(sp)
   14444:	100007b7 	lui	v0,0xf
   14448:	bfffff37 	lui	s3,0xffffe
   1444c:	10c403b3 	and	v0,v1,v0
   14450:	b8ae003b 	addw	s3,v0,s3

0000000000014454 <$LM13>:
   14454:	18000437 	lui	v1,0x8

0000000000014458 <$LM14>:
   14458:	bdc00593 	sltu	s3,s3,1

000000000001445c <$LM15>:
   1445c:	0087e063 	beq	v0,v1,1454c <$L14>

0000000000014460 <$L8>:
   14460:	b0100013 	li	s2,1024
   14464:	00000967 	j	14488 <$L7>

0000000000014468 <$L13>:
   14468:	1d004083 	lh	v1,16(s0)
   1446c:	10c0409b 	sllw	v0,v1,0x10
   14470:	1080429b 	srlw	v0,v0,0x10

0000000000014474 <$L4>:
   14474:	10820393 	and	v0,v0,128

0000000000014478 <$LM19>:
   14478:	b0010013 	li	s2,64

000000000001447c <$LM20>:
   1447c:	00819063 	beqz	v0,14544 <$L15>

0000000000014480 <$L6>:
   14480:	050640a3 	sh	v1,16(s0)

0000000000014484 <$LM22>:
   14484:	b8000013 	li	s3,0

0000000000014488 <$L7>:
   14488:	25400013 	move	a0,s1
   1448c:	2d800013 	move	a1,s2
   14490:	0000456f 	jal	145a4 <_malloc_r>

0000000000014494 <$LVL8>:
   14494:	0081c863 	beqz	v0,14578 <$L16>

0000000000014498 <$LM24>:
   14498:	1d004283 	lhu	v1,16(s0)

000000000001449c <$LM25>:
   1449c:	20000a37 	lui	a0,0x14
   144a0:	212aa013 	add	a0,a0,-1368

00000000000144a4 <$LM26>:
   144a4:	18c20313 	or	v1,v1,128

00000000000144a8 <$LM27>:
   144a8:	054961a3 	sd	a0,88(s1)

00000000000144ac <$LM28>:
   144ac:	050640a3 	sh	v1,16(s0)

00000000000144b0 <$LM29>:
   144b0:	050401a3 	sd	v0,0(s0)
   144b4:	050461a3 	sd	v0,24(s0)

00000000000144b8 <$LM30>:
   144b8:	052c8123 	sw	s2,32(s0)

00000000000144bc <$LM31>:
   144bc:	05c0a0e3 	bnez	s3,1450c <$L17>

00000000000144c0 <$L1>:
   144c0:	0f826183 	ld	ra,152(sp)
   144c4:	bf82e183 	ld	s3,184(sp)

00000000000144c8 <$LVL10>:
   144c8:	b782c183 	ld	s2,176(sp)

00000000000144cc <$LVL11>:
   144cc:	af82a183 	ld	s1,168(sp)

00000000000144d0 <$LVL12>:
   144d0:	a7828183 	ld	s0,160(sp)

00000000000144d4 <$LVL13>:
   144d4:	f7830013 	add	sp,sp,192
   144d8:	004000eb 	ret

00000000000144dc <$L12>:
   144dc:	0f826183 	ld	ra,152(sp)

00000000000144e0 <$LM33>:
   144e0:	1501dc13 	add	v0,s0,119
   144e4:	050401a3 	sd	v0,0(s0)
   144e8:	050461a3 	sd	v0,24(s0)

00000000000144ec <$LM34>:
   144ec:	10000413 	li	v0,1
   144f0:	05048123 	sw	v0,32(s0)

00000000000144f4 <$LM35>:
   144f4:	bf82e183 	ld	s3,184(sp)
   144f8:	b782c183 	ld	s2,176(sp)
   144fc:	af82a183 	ld	s1,168(sp)
   14500:	a7828183 	ld	s0,160(sp)

0000000000014504 <$LVL15>:
   14504:	f7830013 	add	sp,sp,192
   14508:	004000eb 	ret

000000000001450c <$L17>:
   1450c:	2d004883 	lh	a1,18(s0)
   14510:	25400013 	move	a0,s1
   14514:	000df66f 	jal	17cec <_isatty_r>

0000000000014518 <$LVL17>:
   14518:	f8815063 	beqz	v0,144c0 <$L1>

000000000001451c <$LM37>:
   1451c:	15004283 	lhu	v0,16(s0)

0000000000014520 <$LM38>:
   14520:	0f826183 	ld	ra,152(sp)
   14524:	bf82e183 	ld	s3,184(sp)

0000000000014528 <$LM39>:
   14528:	10800713 	or	v0,v0,1
   1452c:	050440a3 	sh	v0,16(s0)

0000000000014530 <$LM40>:
   14530:	b782c183 	ld	s2,176(sp)

0000000000014534 <$LVL19>:
   14534:	af82a183 	ld	s1,168(sp)

0000000000014538 <$LVL20>:
   14538:	a7828183 	ld	s0,160(sp)

000000000001453c <$LVL21>:
   1453c:	f7830013 	add	sp,sp,192
   14540:	004000eb 	ret

0000000000014544 <$L15>:
   14544:	b0100013 	li	s2,1024
   14548:	ffffce67 	j	14480 <$L6>

000000000001454c <$L14>:
   1454c:	1d012183 	ld	v1,72(s0)
   14550:	10000b37 	lui	v0,0x16
   14554:	108aa013 	add	v0,v0,680
   14558:	f8c410e3 	bne	v1,v0,14460 <$L8>

000000000001455c <$LM43>:
   1455c:	15004283 	lhu	v0,16(s0)

0000000000014560 <$LM44>:
   14560:	18100013 	li	v1,1024
   14564:	0d062123 	sw	v1,136(s0)

0000000000014568 <$LM45>:
   14568:	10900313 	or	v0,v0,1024
   1456c:	050440a3 	sh	v0,16(s0)

0000000000014570 <$LM46>:
   14570:	b0100013 	li	s2,1024

0000000000014574 <$LM47>:
   14574:	ffffc567 	j	14488 <$L7>

0000000000014578 <$L16>:
   14578:	15004083 	lh	v0,16(s0)

000000000001457c <$LVL25>:
   1457c:	18880393 	and	v1,v0,512
   14580:	f8c080e3 	bnez	v1,144c0 <$L1>

0000000000014584 <$LM49>:
   14584:	10800b13 	or	v0,v0,2

0000000000014588 <$LM50>:
   14588:	1d01dc13 	add	v1,s0,119

000000000001458c <$LM51>:
   1458c:	050440a3 	sh	v0,16(s0)

0000000000014590 <$LM52>:
   14590:	10000413 	li	v0,1

0000000000014594 <$LM53>:
   14594:	050601a3 	sd	v1,0(s0)
   14598:	050661a3 	sd	v1,24(s0)

000000000001459c <$LM54>:
   1459c:	05048123 	sw	v0,32(s0)
   145a0:	ffffc867 	j	144c0 <$L1>

00000000000145a4 <_malloc_r>:
   145a4:	11405c13 	add	v0,a1,23

00000000000145a8 <$LM3>:
   145a8:	f7bec013 	add	sp,sp,-80

00000000000145ac <$LCFI0>:
   145ac:	1880bd93 	sltu	v1,v0,47

00000000000145b0 <$LM5>:
   145b0:	07ac61a3 	sd	s2,24(sp)
   145b4:	07a821a3 	sd	s0,8(sp)
   145b8:	07bb21a3 	sd	s9,72(sp)
   145bc:	07b701a3 	sd	s7,64(sp)
   145c0:	07b4e1a3 	sd	s6,56(sp)
   145c4:	07b2c1a3 	sd	s5,48(sp)
   145c8:	07b0a1a3 	sd	s4,40(sp)
   145cc:	07ae81a3 	sd	s3,32(sp)
   145d0:	07aa41a3 	sd	s1,16(sp)
   145d4:	078201a3 	sd	ra,0(sp)

00000000000145d8 <$LM6>:
   145d8:	b1000013 	move	s2,a0

00000000000145dc <$LM7>:
   145dc:	a0008013 	li	s0,32
   145e0:	00c028e3 	bnez	v1,145f4 <$L2>

00000000000145e4 <$LM8>:
   145e4:	a0bfc393 	and	s0,v0,-16

00000000000145e8 <$LM9>:
   145e8:	10000413 	li	v0,1
   145ec:	10807c93 	sll	v0,v0,0x1f
   145f0:	1504abe3 	bleu	v0,s0,14844 <$L3>

00000000000145f4 <$L2>:
   145f4:	150aa363 	bltu	s0,a1,14844 <$L3>

00000000000145f8 <$LM10>:
   145f8:	25800013 	move	a0,s2

00000000000145fc <$LVL3>:
   145fc:	0002956f 	jal	15050 <__malloc_lock>

0000000000014600 <$LM11>:
   14600:	1507e193 	sltu	v0,s0,504
   14604:	00811863 	beqz	v0,14690 <$L6>

0000000000014608 <$LM12>:
   14608:	3d000e93 	srl	a3,s0,0x3
   1460c:	39c0009b 	sllw	a3,a3,0x0

0000000000014610 <$LM13>:
   14610:	11c0049b 	sllw	v0,a3,0x1
   14614:	a8000d37 	lui	s1,0x1a
   14618:	10800c93 	sll	v0,v0,0x3
   1461c:	ad4b8013 	add	s1,s1,736
   14620:	15440033 	add	v0,s1,v0

0000000000014624 <$LM14>:
   14624:	b8806183 	ld	s3,24(v0)

0000000000014628 <$LM15>:
   14628:	2dc4d863 	beq	s3,v0,14b94 <$L98>

000000000001462c <$L7>:
   1462c:	15c02183 	ld	v0,8(s3)

0000000000014630 <$LM17>:
   14630:	1dc06183 	ld	v1,24(s3)
   14634:	25c04183 	ld	a0,16(s3)

0000000000014638 <$LM18>:
   14638:	10bff393 	and	v0,v0,-4

000000000001463c <$LM19>:
   1463c:	15c40033 	add	v0,s3,v0

0000000000014640 <$LVL11>:
   14640:	28802183 	ld	a1,8(v0)

0000000000014644 <$LM20>:
   14644:	010661a3 	sd	v1,24(a0)
   14648:	00c841a3 	sd	a0,16(v1)

000000000001464c <$LM21>:
   1464c:	19400713 	or	v1,a1,1
   14650:	008621a3 	sd	v1,8(v0)

0000000000014654 <$LM22>:
   14654:	25800013 	move	a0,s2
   14658:	00027f6f 	jal	15054 <__malloc_unlock>

000000000001465c <$LM23>:
   1465c:	15c04013 	add	v0,s3,16

0000000000014660 <$L5>:
   14660:	0f800183 	ld	ra,0(sp)
   14664:	ef812183 	ld	s9,72(sp)
   14668:	df810183 	ld	s7,64(sp)
   1466c:	d780e183 	ld	s6,56(sp)
   14670:	cf80c183 	ld	s5,48(sp)
   14674:	c780a183 	ld	s4,40(sp)
   14678:	bf808183 	ld	s3,32(sp)
   1467c:	b7806183 	ld	s2,24(sp)

0000000000014680 <$LVL14>:
   14680:	af804183 	ld	s1,16(sp)
   14684:	a7802183 	ld	s0,8(sp)
   14688:	f7814013 	add	sp,sp,80
   1468c:	004000eb 	ret

0000000000014690 <$L6>:
   14690:	15002693 	srl	v0,s0,0x9
   14694:	08818063 	beqz	v0,14854 <$L99>

0000000000014698 <$LM26>:
   14698:	18801593 	sltu	v1,v0,5
   1469c:	18c1b863 	beqz	v1,14a78 <$L12>

00000000000146a0 <$LM27>:
   146a0:	2d001a93 	srl	a1,s0,0x6
   146a4:	2940009b 	sllw	a1,a1,0x0
   146a8:	2940e01b 	addw	a1,a1,56
   146ac:	39400013 	move	a3,a1
   146b0:	2940049b 	sllw	a1,a1,0x1

00000000000146b4 <$L11>:
   146b4:	a8000d37 	lui	s1,0x1a
   146b8:	29400c93 	sll	a1,a1,0x3
   146bc:	ad4b8013 	add	s1,s1,736
   146c0:	2d4a0033 	add	a1,s1,a1

00000000000146c4 <$LM29>:
   146c4:	b9406183 	ld	s3,24(a1)

00000000000146c8 <$LVL18>:
   146c8:	016e28e3 	bne	a1,s3,146dc <$L22>
   146cc:	00000a67 	j	146f4 <$L16>

00000000000146d0 <$L20>:
   146d0:	088132e3 	bgez	v0,14868 <$L43>

00000000000146d4 <$LM31>:
   146d4:	bdc06183 	ld	s3,24(s3)

00000000000146d8 <$LVL20>:
   146d8:	016e3863 	beq	a1,s3,146f4 <$L16>

00000000000146dc <$L22>:
   146dc:	1dc02183 	ld	v1,8(s3)
   146e0:	18fff393 	and	v1,v1,-4

00000000000146e4 <$LM33>:
   146e4:	10e90033 	sub	v0,v1,s0

00000000000146e8 <$LM34>:
   146e8:	20808113 	slt	a0,v0,32
   146ec:	f901c8e3 	bnez	a0,146d0 <$L20>

00000000000146f0 <$LM35>:
   146f0:	39fffc1b 	addw	a3,a3,-1

00000000000146f4 <$L16>:
   146f4:	39c0041b 	addw	a3,a3,1

00000000000146f8 <$L9>:
   146f8:	bd408183 	ld	s3,32(s1)

00000000000146fc <$LVL26>:
   146fc:	40000d37 	lui	a4,0x1a
   14700:	420bc013 	add	a4,a4,752
   14704:	25d08063 	beq	s3,a4,14b44 <$L100>

0000000000014708 <$LM38>:
   14708:	15c02183 	ld	v0,8(s3)
   1470c:	10bff393 	and	v0,v0,-4

0000000000014710 <$LM39>:
   14710:	18a90033 	sub	v1,v0,s0

0000000000014714 <$LM40>:
   14714:	20c08113 	slt	a0,v1,32
   14718:	1901e063 	beqz	a0,14b08 <$L101>

000000000001471c <$LM41>:
   1471c:	0550a1a3 	sd	a4,40(s1)
   14720:	055081a3 	sd	a4,32(s1)

0000000000014724 <$LM42>:
   14724:	08c0eae3 	bgez	v1,14898 <$L102>

0000000000014728 <$LM43>:
   14728:	18880193 	sltu	v1,v0,512

000000000001472c <$LVL29>:
   1472c:	18c0e863 	beqz	v1,14aa0 <$L27>

0000000000014730 <$LM44>:
   14730:	10800e93 	srl	v0,v0,0x3

0000000000014734 <$LVL30>:
   14734:	2880009b 	sllw	a1,v0,0x0

0000000000014738 <$LVL31>:
   14738:	1940049b 	sllw	v1,a1,0x1
   1473c:	18c00c93 	sll	v1,v1,0x3
   14740:	1d460033 	add	v1,s1,v1

0000000000014744 <$LVL32>:
   14744:	15402183 	ld	v0,8(s1)
   14748:	20c04183 	ld	a0,16(v1)

000000000001474c <$LVL33>:
   1474c:	29410a9b 	sraw	a1,a1,0x2

0000000000014750 <$LVL34>:
   14750:	30000413 	li	a2,1
   14754:	298a00b3 	sll	a1,a2,a1
   14758:	11440333 	or	v0,a1,v0
   1475c:	05c661a3 	sd	v1,24(s3)
   14760:	05c841a3 	sd	a0,16(s3)
   14764:	054421a3 	sd	v0,8(s1)
   14768:	00ee41a3 	sd	s3,16(v1)
   1476c:	012e61a3 	sd	s3,24(a0)

0000000000014770 <$L24>:
   14770:	21c17e9b 	sraw	a0,a3,0x1f
   14774:	21007a9b 	srlw	a0,a0,0x1e
   14778:	190e003b 	addw	v1,a0,a3
   1477c:	18c10a9b 	sraw	v1,v1,0x2
   14780:	28000413 	li	a1,1
   14784:	294600b3 	sll	a1,a1,v1

0000000000014788 <$LVL36>:
   14788:	088a6363 	bltu	v0,a1,148b8 <$L38>

000000000001478c <$LM46>:
   1478c:	188a03b3 	and	v1,v0,a1
   14790:	00c050e3 	bnez	v1,147b8 <$L89>

0000000000014794 <$LM47>:
   14794:	29400493 	sll	a1,a1,0x1

0000000000014798 <$LM48>:
   14798:	39fff393 	and	a3,a3,-4

000000000001479c <$LM49>:
   1479c:	188a03b3 	and	v1,v0,a1

00000000000147a0 <$LM50>:
   147a0:	39c0101b 	addw	a3,a3,4

00000000000147a4 <$LM51>:
   147a4:	00c028e3 	bnez	v1,147b8 <$L89>

00000000000147a8 <$L79>:
   147a8:	29400493 	sll	a1,a1,0x1

00000000000147ac <$LM53>:
   147ac:	194403b3 	and	v1,a1,v0

00000000000147b0 <$LM54>:
   147b0:	39c0101b 	addw	a3,a3,4

00000000000147b4 <$LM55>:
   147b4:	f8c1e863 	beqz	v1,147a8 <$L79>

00000000000147b8 <$L89>:
   147b8:	51c0049b 	sllw	a6,a3,0x1
   147bc:	52800c93 	sll	a6,a6,0x3
   147c0:	55540033 	add	a6,s1,a6

00000000000147c4 <$LVL43>:
   147c4:	32800013 	move	a2,a6
   147c8:	49c00013 	move	a5,a3

00000000000147cc <$L48>:
   147cc:	b9806183 	ld	s3,24(a2)

00000000000147d0 <$LVL45>:
   147d0:	01ae28e3 	bne	a2,s3,147e4 <$L47>
   147d4:	0000de67 	j	14b4c <$L41>

00000000000147d8 <$L45>:
   147d8:	008122e3 	bgez	v0,14868 <$L43>

00000000000147dc <$LM59>:
   147dc:	bdc06183 	ld	s3,24(s3)

00000000000147e0 <$LVL47>:
   147e0:	19aed863 	beq	a2,s3,14b4c <$L41>

00000000000147e4 <$L47>:
   147e4:	1dc02183 	ld	v1,8(s3)
   147e8:	18fff393 	and	v1,v1,-4

00000000000147ec <$LM61>:
   147ec:	10e90033 	sub	v0,v1,s0

00000000000147f0 <$LM62>:
   147f0:	20808113 	slt	a0,v0,32
   147f4:	f901c8e3 	bnez	a0,147d8 <$L45>

00000000000147f8 <$LM63>:
   147f8:	25c06183 	ld	a0,24(s3)
   147fc:	2dc04183 	ld	a1,16(s3)

0000000000014800 <$LM64>:
   14800:	1de80033 	add	v1,s3,s0

0000000000014804 <$LM65>:
   14804:	38800713 	or	a3,v0,1

0000000000014808 <$LM66>:
   14808:	30c40033 	add	a2,v1,v0

000000000001480c <$LM67>:
   1480c:	a5000713 	or	s0,s0,1

0000000000014810 <$LM68>:
   14810:	014861a3 	sd	a0,24(a1)
   14814:	010a41a3 	sd	a1,16(a0)

0000000000014818 <$LM69>:
   14818:	05e821a3 	sd	s0,8(s3)

000000000001481c <$LM70>:
   1481c:	0546a1a3 	sd	v1,40(s1)
   14820:	054681a3 	sd	v1,32(s1)

0000000000014824 <$LM71>:
   14824:	018401a3 	sd	v0,0(a2)

0000000000014828 <$LM72>:
   14828:	00d061a3 	sd	a4,24(v1)
   1482c:	00d041a3 	sd	a4,16(v1)

0000000000014830 <$LM73>:
   14830:	00ce21a3 	sd	a3,8(v1)

0000000000014834 <$LM74>:
   14834:	25800013 	move	a0,s2
   14838:	0002076f 	jal	15054 <__malloc_unlock>

000000000001483c <$LM75>:
   1483c:	15c04013 	add	v0,s3,16
   14840:	ffff8867 	j	14660 <$L5>

0000000000014844 <$L3>:
   14844:	10003013 	li	v0,12
   14848:	05840123 	sw	v0,0(s2)

000000000001484c <$LM77>:
   1484c:	10000013 	li	v0,0
   14850:	ffff8467 	j	14660 <$L5>

0000000000014854 <$L99>:
   14854:	2d000e93 	srl	a1,s0,0x3
   14858:	2940009b 	sllw	a1,a1,0x0
   1485c:	39400013 	move	a3,a1
   14860:	2940049b 	sllw	a1,a1,0x1
   14864:	ffff9467 	j	146b4 <$L11>

0000000000014868 <$L43>:
   14868:	1dc60033 	add	v1,s3,v1

000000000001486c <$LVL59>:
   1486c:	28c02183 	ld	a1,8(v1)

0000000000014870 <$LM80>:
   14870:	15c06183 	ld	v0,24(s3)

0000000000014874 <$LVL60>:
   14874:	25c04183 	ld	a0,16(s3)

0000000000014878 <$LM81>:
   14878:	29400713 	or	a1,a1,1
   1487c:	00ca21a3 	sd	a1,8(v1)

0000000000014880 <$LM82>:
   14880:	010461a3 	sd	v0,24(a0)
   14884:	008841a3 	sd	a0,16(v0)

0000000000014888 <$LM83>:
   14888:	25800013 	move	a0,s2
   1488c:	0001f26f 	jal	15054 <__malloc_unlock>

0000000000014890 <$LM84>:
   14890:	15c04013 	add	v0,s3,16
   14894:	ffff7367 	j	14660 <$L5>

0000000000014898 <$L102>:
   14898:	15c40033 	add	v0,s3,v0

000000000001489c <$LVL64>:
   1489c:	18802183 	ld	v1,8(v0)

00000000000148a0 <$LM86>:
   148a0:	25800013 	move	a0,s2

00000000000148a4 <$LM87>:
   148a4:	18c00713 	or	v1,v1,1
   148a8:	008621a3 	sd	v1,8(v0)

00000000000148ac <$LM88>:
   148ac:	0001ea6f 	jal	15054 <__malloc_unlock>

00000000000148b0 <$LM89>:
   148b0:	15c04013 	add	v0,s3,16
   148b4:	ffff6b67 	j	14660 <$L5>

00000000000148b8 <$L38>:
   148b8:	bd404183 	ld	s3,16(s1)

00000000000148bc <$LVL68>:
   148bc:	cdc02183 	ld	s5,8(s3)
   148c0:	ce7ff393 	and	s5,s5,-4

00000000000148c4 <$LM91>:
   148c4:	06682363 	bltu	s5,s0,148d4 <$L55>

00000000000148c8 <$LM92>:
   148c8:	1e690033 	sub	v1,s5,s0

00000000000148cc <$LM93>:
   148cc:	10c08113 	slt	v0,v1,32
   148d0:	08810063 	beqz	v0,14a50 <$L56>

00000000000148d4 <$L55>:
   148d4:	10000db7 	lui	v0,0x1b

00000000000148d8 <$LM95>:
   148d8:	e8000d37 	lui	s9,0x1a

00000000000148dc <$LM96>:
   148dc:	d8ae2183 	ld	s7,-1144(v0)

00000000000148e0 <$LM97>:
   148e0:	1f4b4183 	ld	v1,720(s9)
   148e4:	103ffc13 	li	v0,-1

00000000000148e8 <$LM98>:
   148e8:	dd360033 	add	s7,s0,s7

00000000000148ec <$LM99>:
   148ec:	18c52863 	beq	v1,v0,14c80 <$L103>

00000000000148f0 <$LM100>:
   148f0:	100000b7 	lui	v0,0x1
   148f4:	10807c13 	add	v0,v0,31
   148f8:	dec40033 	add	s7,s7,v0

00000000000148fc <$LVL72>:
   148fc:	17ffffb7 	lui	v0,0xfffff
   14900:	dec403b3 	and	s7,s7,v0

0000000000014904 <$L58>:
   14904:	25800013 	move	a0,s2
   14908:	2ec00013 	move	a1,s7

000000000001490c <$LVL74>:
   1490c:	0005f46f 	jal	160dc <_sbrk_r>

0000000000014910 <$LVL75>:
   14910:	c0800013 	move	s4,v0

0000000000014914 <$LM102>:
   14914:	103ffc13 	li	v0,-1

0000000000014918 <$LVL77>:
   14918:	16058063 	beq	s4,v0,14bd8 <$L93>

000000000001491c <$LM103>:
   1491c:	15f20033 	add	v0,s3,s5

0000000000014920 <$LM104>:
   14920:	16056b63 	bltu	s4,v0,14bd4 <$L104>

0000000000014924 <$L61>:
   14924:	d0000db7 	lui	s6,0x1b
   14928:	1ead4103 	lw	v1,-1200(s6)
   1492c:	26c0009b 	sllw	a0,s7,0x0
   14930:	2106003b 	addw	a0,a0,v1
   14934:	19000013 	move	v1,a0
   14938:	b6894123 	sw	a0,-1200(s6)

000000000001493c <$LM106>:
   1493c:	18b0d863 	beq	v0,s4,14ca8 <$L105>

0000000000014940 <$L62>:
   14940:	2f4b4183 	ld	a1,720(s9)
   14944:	183ffc13 	li	v1,-1
   14948:	19476863 	beq	a1,v1,14cfc <$L106>

000000000001494c <$LM108>:
   1494c:	16050033 	sub	v0,s4,v0
   14950:	1080009b 	sllw	v0,v0,0x0
   14954:	2088003b 	addw	a0,v0,a0
   14958:	b6894123 	sw	a0,-1200(s6)

000000000001495c <$L65>:
   1495c:	1e003f93 	and	v1,s4,15

0000000000014960 <$LM110>:
   14960:	100000b7 	lui	v0,0x1
   14964:	00c02863 	beqz	v1,14978 <$L66>

0000000000014968 <$LM111>:
   14968:	c6070033 	sub	s4,s4,v1

000000000001496c <$LM112>:
   1496c:	10804013 	add	v0,v0,16
   14970:	c6004013 	add	s4,s4,16

0000000000014974 <$LVL81>:
   14974:	10870033 	sub	v0,v0,v1

0000000000014978 <$L66>:
   14978:	180000b7 	lui	v1,0x1

000000000001497c <$LVL83>:
   1497c:	18fffc13 	add	v1,v1,-1
   14980:	de360033 	add	s7,s4,s7

0000000000014984 <$LVL84>:
   14984:	dec603b3 	and	s7,s7,v1
   14988:	d8b70033 	sub	s7,v0,s7

000000000001498c <$LM114>:
   1498c:	25800013 	move	a0,s2
   14990:	2ec00013 	move	a1,s7
   14994:	0005d26f 	jal	160dc <_sbrk_r>

0000000000014998 <$LM115>:
   14998:	183ffc13 	li	v1,-1
   1499c:	1886a863 	beq	v0,v1,14cf0 <$L76>
   149a0:	20b10033 	sub	a0,v0,s4
   149a4:	21360033 	add	a0,a0,s7
   149a8:	16c0009b 	sllw	v0,s7,0x0

00000000000149ac <$LVL87>:
   149ac:	21000713 	or	a0,a0,1

00000000000149b0 <$L67>:
   149b0:	1ead4103 	lw	v1,-1200(s6)

00000000000149b4 <$LM117>:
   149b4:	057041a3 	sd	s4,16(s1)

00000000000149b8 <$LM118>:
   149b8:	060821a3 	sd	a0,8(s4)

00000000000149bc <$LM119>:
   149bc:	10c4003b 	addw	v0,v1,v0
   149c0:	18800013 	move	v1,v0
   149c4:	b6854123 	sw	v0,-1200(s6)

00000000000149c8 <$LM120>:
   149c8:	05ea7863 	beq	s3,s1,14a04 <$L63>

00000000000149cc <$LM121>:
   149cc:	16408193 	sltu	v0,s5,32
   149d0:	1080f8e3 	bnez	v0,14c4c <$L107>

00000000000149d4 <$LM122>:
   149d4:	167fa013 	add	v0,s5,-24
   149d8:	10bfc393 	and	v0,v0,-16

00000000000149dc <$LM123>:
   149dc:	25c40033 	add	a0,s3,v0
   149e0:	28002413 	li	a1,9
   149e4:	010a21a3 	sd	a1,8(a0)

00000000000149e8 <$LM124>:
   149e8:	010a41a3 	sd	a1,16(a0)

00000000000149ec <$LM125>:
   149ec:	2dc02183 	ld	a1,8(s3)

00000000000149f0 <$LM126>:
   149f0:	20808193 	sltu	a0,v0,32

00000000000149f4 <$LM127>:
   149f4:	29400793 	and	a1,a1,1
   149f8:	108a0333 	or	v0,v0,a1

00000000000149fc <$LVL90>:
   149fc:	05c421a3 	sd	v0,8(s3)

0000000000014a00 <$LM128>:
   14a00:	1101b063 	beqz	a0,14cd8 <$L108>

0000000000014a04 <$L63>:
   14a04:	10000db7 	lui	v0,0x1b
   14a08:	20ae0183 	ld	a0,-1152(v0)
   14a0c:	010613e3 	bleu	v1,a0,14a14 <$L69>

0000000000014a10 <$LM130>:
   14a10:	b88601a3 	sd	v1,-1152(v0)

0000000000014a14 <$L69>:
   14a14:	10000db7 	lui	v0,0x1b
   14a18:	20ade183 	ld	a0,-1160(v0)

0000000000014a1c <$LM132>:
   14a1c:	bd404183 	ld	s3,16(s1)

0000000000014a20 <$LM133>:
   14a20:	010613e3 	bleu	v1,a0,14a28 <$L94>

0000000000014a24 <$LM134>:
   14a24:	b087e1a3 	sd	v1,-1160(v0)

0000000000014a28 <$L94>:
   14a28:	1dc02183 	ld	v1,8(s3)
   14a2c:	18fff393 	and	v1,v1,-4

0000000000014a30 <$L60>:
   14a30:	00e82363 	bltu	v1,s0,14a40 <$L71>

0000000000014a34 <$LM136>:
   14a34:	18e90033 	sub	v1,v1,s0

0000000000014a38 <$LM137>:
   14a38:	10c08113 	slt	v0,v1,32
   14a3c:	00802863 	beqz	v0,14a50 <$L56>

0000000000014a40 <$L71>:
   14a40:	25800013 	move	a0,s2
   14a44:	0001846f 	jal	15054 <__malloc_unlock>

0000000000014a48 <$LM139>:
   14a48:	10000013 	li	v0,0
   14a4c:	ffff0567 	j	14660 <$L5>

0000000000014a50 <$L56>:
   14a50:	15e80033 	add	v0,s3,s0

0000000000014a54 <$LM141>:
   14a54:	18c00713 	or	v1,v1,1

0000000000014a58 <$LM142>:
   14a58:	a5000713 	or	s0,s0,1
   14a5c:	05e821a3 	sd	s0,8(s3)

0000000000014a60 <$LM143>:
   14a60:	25800013 	move	a0,s2

0000000000014a64 <$LM144>:
   14a64:	008621a3 	sd	v1,8(v0)

0000000000014a68 <$LM145>:
   14a68:	054441a3 	sd	v0,16(s1)

0000000000014a6c <$LM146>:
   14a6c:	00017a6f 	jal	15054 <__malloc_unlock>

0000000000014a70 <$LM147>:
   14a70:	15c04013 	add	v0,s3,16
   14a74:	fffefb67 	j	14660 <$L5>

0000000000014a78 <$L12>:
   14a78:	18805593 	sltu	v1,v0,21
   14a7c:	08c058e3 	bnez	v1,14ba8 <$L109>

0000000000014a80 <$LM149>:
   14a80:	18815593 	sltu	v1,v0,85
   14a84:	08c0f863 	beqz	v1,14c00 <$L14>

0000000000014a88 <$LM150>:
   14a88:	2d003293 	srl	a1,s0,0xc
   14a8c:	2940009b 	sllw	a1,a1,0x0
   14a90:	2941b81b 	addw	a1,a1,110
   14a94:	39400013 	move	a3,a1
   14a98:	2940049b 	sllw	a1,a1,0x1
   14a9c:	ffff0667 	j	146b4 <$L11>

0000000000014aa0 <$L27>:
   14aa0:	18802693 	srl	v1,v0,0x9
   14aa4:	20c01593 	sltu	a0,v1,5
   14aa8:	090028e3 	bnez	a0,14bbc <$L110>

0000000000014aac <$LM152>:
   14aac:	20c05593 	sltu	a0,v1,21
   14ab0:	0901b063 	beqz	a0,14c88 <$L30>

0000000000014ab4 <$LM153>:
   14ab4:	18c0009b 	sllw	v1,v1,0x0
   14ab8:	28c16c1b 	addw	a1,v1,91
   14abc:	21400013 	move	a0,a1
   14ac0:	2940049b 	sllw	a1,a1,0x1

0000000000014ac4 <$L29>:
   14ac4:	29400c93 	sll	a1,a1,0x3
   14ac8:	2d4a0033 	add	a1,s1,a1

0000000000014acc <$LVL100>:
   14acc:	19404183 	ld	v1,16(a1)

0000000000014ad0 <$LVL101>:
   14ad0:	00ca20e3 	bne	v1,a1,14ae0 <$L91>
   14ad4:	00005367 	j	14c20 <$L112>

0000000000014ad8 <$L80>:
   14ad8:	18c04183 	ld	v1,16(v1)

0000000000014adc <$LVL103>:
   14adc:	01462063 	beq	a1,v1,14aec <$L35>

0000000000014ae0 <$L91>:
   14ae0:	20c02183 	ld	a0,8(v1)
   14ae4:	213ff393 	and	a0,a0,-4
   14ae8:	f889e363 	bltu	v0,a0,14ad8 <$L80>

0000000000014aec <$L35>:
   14aec:	20c06183 	ld	a0,24(v1)

0000000000014af0 <$LVL104>:
   14af0:	15402183 	ld	v0,8(s1)

0000000000014af4 <$L36>:
   14af4:	05c861a3 	sd	a0,24(s3)
   14af8:	05c641a3 	sd	v1,16(s3)
   14afc:	00ee61a3 	sd	s3,24(v1)
   14b00:	012e41a3 	sd	s3,16(a0)
   14b04:	ffff1b67 	j	14770 <$L24>

0000000000014b08 <$L101>:
   14b08:	15e80033 	add	v0,s3,s0

0000000000014b0c <$LM160>:
   14b0c:	20860033 	add	a0,v0,v1

0000000000014b10 <$LM161>:
   14b10:	28c00713 	or	a1,v1,1

0000000000014b14 <$LM162>:
   14b14:	a5000713 	or	s0,s0,1

0000000000014b18 <$LM163>:
   14b18:	0544a1a3 	sd	v0,40(s1)
   14b1c:	054481a3 	sd	v0,32(s1)

0000000000014b20 <$LM164>:
   14b20:	05e821a3 	sd	s0,8(s3)

0000000000014b24 <$LM165>:
   14b24:	009061a3 	sd	a4,24(v0)
   14b28:	009041a3 	sd	a4,16(v0)

0000000000014b2c <$LM166>:
   14b2c:	008a21a3 	sd	a1,8(v0)

0000000000014b30 <$LM167>:
   14b30:	010601a3 	sd	v1,0(a0)

0000000000014b34 <$LM168>:
   14b34:	25800013 	move	a0,s2
   14b38:	0001476f 	jal	15054 <__malloc_unlock>

0000000000014b3c <$LM169>:
   14b3c:	15c04013 	add	v0,s3,16
   14b40:	fffec867 	j	14660 <$L5>

0000000000014b44 <$L100>:
   14b44:	15402183 	ld	v0,8(s1)
   14b48:	ffff0a67 	j	14770 <$L24>

0000000000014b4c <$L41>:
   14b4c:	4a40041b 	addw	a5,a5,1

0000000000014b50 <$LVL111>:
   14b50:	12400f93 	and	v0,a5,3

0000000000014b54 <$LM172>:
   14b54:	31804013 	add	a2,a2,16

0000000000014b58 <$LM173>:
   14b58:	e080e8e3 	bnez	v0,147cc <$L48>

0000000000014b5c <$L51>:
   14b5c:	19c00f93 	and	v1,a3,3

0000000000014b60 <$LM175>:
   14b60:	12bfc013 	add	v0,a6,-16

0000000000014b64 <$LM176>:
   14b64:	08c1c863 	beqz	v1,14d48 <$L111>

0000000000014b68 <$LM177>:
   14b68:	52800183 	ld	a6,0(a6)

0000000000014b6c <$LM178>:
   14b6c:	39fffc1b 	addw	a3,a3,-1

0000000000014b70 <$LM179>:
   14b70:	fa85d863 	beq	a6,v0,14b5c <$L51>
   14b74:	15402183 	ld	v0,8(s1)

0000000000014b78 <$L50>:
   14b78:	29400493 	sll	a1,a1,0x1

0000000000014b7c <$LVL117>:
   14b7c:	e88a7b63 	bltu	v0,a1,148b8 <$L38>

0000000000014b80 <$LM181>:
   14b80:	e9407063 	beqz	a1,148b8 <$L38>

0000000000014b84 <$LM182>:
   14b84:	188a03b3 	and	v1,v0,a1
   14b88:	00c0c063 	beqz	v1,14be8 <$L77>

0000000000014b8c <$LM183>:
   14b8c:	3a400013 	move	a3,a5
   14b90:	ffff0a67 	j	147b8 <$L89>

0000000000014b94 <$L98>:
   14b94:	15c04013 	add	v0,s3,16

0000000000014b98 <$LM185>:
   14b98:	bdc0a183 	ld	s3,40(s3)

0000000000014b9c <$LM186>:
   14b9c:	39c0081b 	addw	a3,a3,2

0000000000014ba0 <$LM187>:
   14ba0:	d8aeb063 	beq	v0,s3,146f8 <$L9>
   14ba4:	fffea267 	j	1462c <$L7>

0000000000014ba8 <$L109>:
   14ba8:	1080009b 	sllw	v0,v0,0x0
   14bac:	28816c1b 	addw	a1,v0,91
   14bb0:	39400013 	move	a3,a1
   14bb4:	2940049b 	sllw	a1,a1,0x1
   14bb8:	fffebf67 	j	146b4 <$L11>

0000000000014bbc <$L110>:
   14bbc:	28801a93 	srl	a1,v0,0x6
   14bc0:	2940009b 	sllw	a1,a1,0x0
   14bc4:	2940e01b 	addw	a1,a1,56
   14bc8:	21400013 	move	a0,a1
   14bcc:	2940049b 	sllw	a1,a1,0x1
   14bd0:	ffffbd67 	j	14ac4 <$L29>

0000000000014bd4 <$L104>:
   14bd4:	edeaa063 	beq	s3,s1,14924 <$L61>

0000000000014bd8 <$L93>:
   14bd8:	bd404183 	ld	s3,16(s1)

0000000000014bdc <$LVL125>:
   14bdc:	1dc02183 	ld	v1,8(s3)
   14be0:	18fff393 	and	v1,v1,-4
   14be4:	ffff9367 	j	14a30 <$L60>

0000000000014be8 <$L77>:
   14be8:	29400493 	sll	a1,a1,0x1

0000000000014bec <$LM192>:
   14bec:	194403b3 	and	v1,a1,v0

0000000000014bf0 <$LM193>:
   14bf0:	4a40101b 	addw	a5,a5,4

0000000000014bf4 <$LM194>:
   14bf4:	f8c1e863 	beqz	v1,14be8 <$L77>

0000000000014bf8 <$LM195>:
   14bf8:	3a400013 	move	a3,a5
   14bfc:	fffeef67 	j	147b8 <$L89>

0000000000014c00 <$L14>:
   14c00:	18855593 	sltu	v1,v0,341
   14c04:	00c0b863 	beqz	v1,14c60 <$L15>

0000000000014c08 <$LM197>:
   14c08:	2d003e93 	srl	a1,s0,0xf
   14c0c:	2940009b 	sllw	a1,a1,0x0
   14c10:	2941dc1b 	addw	a1,a1,119
   14c14:	39400013 	move	a3,a1
   14c18:	2940049b 	sllw	a1,a1,0x1
   14c1c:	fffea667 	j	146b4 <$L11>

0000000000014c20 <$L112>:
   14c20:	29017e9b 	sraw	a1,a0,0x1f

0000000000014c24 <$LVL131>:
   14c24:	29407a9b 	srlw	a1,a1,0x1e
   14c28:	15402183 	ld	v0,8(s1)

0000000000014c2c <$LVL132>:
   14c2c:	2148003b 	addw	a0,a1,a0

0000000000014c30 <$LVL133>:
   14c30:	21010a9b 	sraw	a0,a0,0x2
   14c34:	28000413 	li	a1,1
   14c38:	214800b3 	sll	a0,a1,a0
   14c3c:	11040333 	or	v0,a0,v0
   14c40:	054421a3 	sd	v0,8(s1)
   14c44:	20c00013 	move	a0,v1
   14c48:	ffffab67 	j	14af4 <$L36>

0000000000014c4c <$L107>:
   14c4c:	10000413 	li	v0,1
   14c50:	060421a3 	sd	v0,8(s4)
   14c54:	be000013 	move	s3,s4

0000000000014c58 <$LVL135>:
   14c58:	18000013 	li	v1,0
   14c5c:	ffff7567 	j	14a30 <$L60>

0000000000014c60 <$L15>:
   14c60:	10955593 	sltu	v0,v0,1365
   14c64:	0080d063 	beqz	v0,14ccc <$L73>

0000000000014c68 <$LM201>:
   14c68:	2d004a93 	srl	a1,s0,0x12
   14c6c:	2940009b 	sllw	a1,a1,0x0
   14c70:	2941f01b 	addw	a1,a1,124
   14c74:	39400013 	move	a3,a1
   14c78:	2940049b 	sllw	a1,a1,0x1
   14c7c:	fffe8e67 	j	146b4 <$L11>

0000000000014c80 <$L103>:
   14c80:	dec08013 	add	s7,s7,32

0000000000014c84 <$LVL138>:
   14c84:	ffff2067 	j	14904 <$L58>

0000000000014c88 <$L30>:
   14c88:	20c15593 	sltu	a0,v1,85
   14c8c:	0100f863 	beqz	a0,14d08 <$L31>

0000000000014c90 <$LM204>:
   14c90:	28803293 	srl	a1,v0,0xc
   14c94:	2940009b 	sllw	a1,a1,0x0
   14c98:	2941b81b 	addw	a1,a1,110
   14c9c:	21400013 	move	a0,a1
   14ca0:	2940049b 	sllw	a1,a1,0x1
   14ca4:	ffff8867 	j	14ac4 <$L29>

0000000000014ca8 <$L105>:
   14ca8:	280000b7 	lui	a1,0x1
   14cac:	297ffc13 	add	a1,a1,-1
   14cb0:	288a03b3 	and	a1,v0,a1
   14cb4:	e14118e3 	bnez	a1,14940 <$L62>

0000000000014cb8 <$LM206>:
   14cb8:	15404183 	ld	v0,16(s1)

0000000000014cbc <$LM207>:
   14cbc:	26f20033 	add	a0,s7,s5

0000000000014cc0 <$LM208>:
   14cc0:	21000713 	or	a0,a0,1
   14cc4:	008821a3 	sd	a0,8(v0)
   14cc8:	ffff4f67 	j	14a04 <$L63>

0000000000014ccc <$L73>:
   14ccc:	2803f013 	li	a1,252
   14cd0:	3801f813 	li	a3,126
   14cd4:	fffe7867 	j	146b4 <$L11>

0000000000014cd8 <$L108>:
   14cd8:	25800013 	move	a0,s2
   14cdc:	2dc04013 	add	a1,s3,16
   14ce0:	fffc7f6f 	jal	13edc <_free_r>
   14ce4:	10000db7 	lui	v0,0x1b
   14ce8:	18ad4103 	lw	v1,-1200(v0)
   14cec:	ffff4667 	j	14a04 <$L63>

0000000000014cf0 <$L76>:
   14cf0:	20000413 	li	a0,1
   14cf4:	10000013 	li	v0,0

0000000000014cf8 <$LVL145>:
   14cf8:	ffff2e67 	j	149b0 <$L67>

0000000000014cfc <$L106>:
   14cfc:	10000d37 	lui	v0,0x1a
   14d00:	28b141a3 	sd	s4,720(v0)
   14d04:	ffff1667 	j	1495c <$L65>

0000000000014d08 <$L31>:
   14d08:	20c55593 	sltu	a0,v1,341
   14d0c:	01003863 	beqz	a0,14d28 <$L32>

0000000000014d10 <$LM214>:
   14d10:	28803e93 	srl	a1,v0,0xf
   14d14:	2940009b 	sllw	a1,a1,0x0
   14d18:	2941dc1b 	addw	a1,a1,119
   14d1c:	21400013 	move	a0,a1
   14d20:	2940049b 	sllw	a1,a1,0x1
   14d24:	ffff6867 	j	14ac4 <$L29>

0000000000014d28 <$L32>:
   14d28:	18d55593 	sltu	v1,v1,1365
   14d2c:	00c06063 	beqz	v1,14d5c <$L74>

0000000000014d30 <$LM216>:
   14d30:	28804a93 	srl	a1,v0,0x12
   14d34:	2940009b 	sllw	a1,a1,0x0
   14d38:	2941f01b 	addw	a1,a1,124
   14d3c:	21400013 	move	a0,a1
   14d40:	2940049b 	sllw	a1,a1,0x1
   14d44:	ffff6067 	j	14ac4 <$L29>

0000000000014d48 <$L111>:
   14d48:	15402183 	ld	v0,8(s1)
   14d4c:	197ffe13 	not	v1,a1
   14d50:	10c403b3 	and	v0,v1,v0
   14d54:	054421a3 	sd	v0,8(s1)

0000000000014d58 <$LM218>:
   14d58:	ffff8867 	j	14b78 <$L50>

0000000000014d5c <$L74>:
   14d5c:	2803f013 	li	a1,252
   14d60:	2001f813 	li	a0,126
   14d64:	ffff5867 	j	14ac4 <$L29>

0000000000014d68 <memchr>:
   14d68:	11001f93 	and	v0,a0,7

0000000000014d6c <$LM3>:
   14d6c:	2943ff93 	and	a1,a1,255

0000000000014d70 <$LM4>:
   14d70:	0081e063 	beqz	v0,14e60 <$L11>

0000000000014d74 <$LM5>:
   14d74:	10000013 	li	v0,0

0000000000014d78 <$LM6>:
   14d78:	0181b863 	beqz	a2,14e54 <$L3>

0000000000014d7c <$LM7>:
   14d7c:	19000203 	lbu	v1,0(a0)
   14d80:	11000013 	move	v0,a0
   14d84:	00cba063 	beq	v1,a1,14e54 <$L3>

0000000000014d88 <$LM8>:
   14d88:	31bffc13 	add	a2,a2,-1

0000000000014d8c <$LM9>:
   14d8c:	21400013 	move	a0,a1

0000000000014d90 <$LVL4>:
   14d90:	00000567 	j	14da4 <$L4>

0000000000014d94 <$L5>:
   14d94:	01818863 	beqz	a2,14e58 <$L14>

0000000000014d98 <$LM11>:
   14d98:	18800203 	lbu	v1,0(v0)

0000000000014d9c <$LM12>:
   14d9c:	31bffc13 	add	a2,a2,-1

0000000000014da0 <$LM13>:
   14da0:	00c96863 	beq	v1,a0,14e54 <$L3>

0000000000014da4 <$L4>:
   14da4:	10800413 	add	v0,v0,1

0000000000014da8 <$LM15>:
   14da8:	18801f93 	and	v1,v0,7
   14dac:	f8c1d0e3 	bnez	v1,14d94 <$L5>

0000000000014db0 <$L2>:
   14db0:	19802193 	sltu	v1,a2,8
   14db4:	00c0f8e3 	bnez	v1,14e30 <$L8>

0000000000014db8 <$LM17>:
   14db8:	3ff80837 	lui	a3,0xff010

0000000000014dbc <$LM18>:
   14dbc:	1940209b 	sllw	v1,a1,0x8

0000000000014dc0 <$LM19>:
   14dc0:	47f7f837 	lui	a4,0xfeff0
   14dc4:	39c40413 	add	a3,a3,257

0000000000014dc8 <$LM20>:
   14dc8:	18ca0333 	or	v1,v1,a1

0000000000014dcc <$LM21>:
   14dcc:	423bfc13 	add	a4,a4,-257
   14dd0:	39c04093 	sll	a3,a3,0x10

0000000000014dd4 <$LM22>:
   14dd4:	20c04093 	sll	a0,v1,0x10

0000000000014dd8 <$LM23>:
   14dd8:	42004093 	sll	a4,a4,0x10
   14ddc:	39c40413 	add	a3,a3,257

0000000000014de0 <$LM24>:
   14de0:	19060333 	or	v1,a0,v1

0000000000014de4 <$LM25>:
   14de4:	423bfc13 	add	a4,a4,-257
   14de8:	39c04093 	sll	a3,a3,0x10

0000000000014dec <$LM26>:
   14dec:	48c08093 	sll	a5,v1,0x20

0000000000014df0 <$LM27>:
   14df0:	42004093 	sll	a4,a4,0x10
   14df4:	39c40413 	add	a3,a3,257

0000000000014df8 <$LM28>:
   14df8:	4a460333 	or	a5,a5,v1

0000000000014dfc <$LM29>:
   14dfc:	423bfc13 	add	a4,a4,-257
   14e00:	39c01c93 	sll	a3,a3,0x7

0000000000014e04 <$L9>:
   14e04:	18800183 	ld	v1,0(v0)
   14e08:	1a460233 	xor	v1,a5,v1
   14e0c:	20d00033 	add	a0,v1,a4
   14e10:	18fffe13 	not	v1,v1
   14e14:	190603b3 	and	v1,a0,v1
   14e18:	18ce03b3 	and	v1,v1,a3
   14e1c:	00c028e3 	bnez	v1,14e30 <$L8>

0000000000014e20 <$LM30>:
   14e20:	31bfe013 	add	a2,a2,-8

0000000000014e24 <$LM31>:
   14e24:	19802193 	sltu	v1,a2,8

0000000000014e28 <$LM32>:
   14e28:	10802013 	add	v0,v0,8

0000000000014e2c <$LM33>:
   14e2c:	f8c1b063 	beqz	v1,14e04 <$L9>

0000000000014e30 <$L8>:
   14e30:	01807063 	beqz	a2,14e68 <$L15>

0000000000014e34 <$LM35>:
   14e34:	18800203 	lbu	v1,0(v0)
   14e38:	00ca3863 	beq	v1,a1,14e54 <$L3>

0000000000014e3c <$LM36>:
   14e3c:	21bffc13 	add	a0,a2,-1

0000000000014e40 <$LM37>:
   14e40:	20880033 	add	a0,v0,a0

0000000000014e44 <$L7>:
   14e44:	00882863 	beq	v0,a0,14e58 <$L14>

0000000000014e48 <$LM39>:
   14e48:	10800413 	add	v0,v0,1

0000000000014e4c <$LM40>:
   14e4c:	18800203 	lbu	v1,0(v0)
   14e50:	f8cbe8e3 	bne	v1,a1,14e44 <$L7>

0000000000014e54 <$L3>:
   14e54:	004000eb 	ret

0000000000014e58 <$L14>:
   14e58:	10000013 	li	v0,0
   14e5c:	004000eb 	ret

0000000000014e60 <$L11>:
   14e60:	11000013 	move	v0,a0
   14e64:	ffffd367 	j	14db0 <$L2>

0000000000014e68 <$L15>:
   14e68:	10000013 	li	v0,0

0000000000014e6c <$LM45>:
   14e6c:	004000eb 	ret

0000000000014e70 <memcpy>:
   14e70:	19480233 	xor	v1,a1,a0
   14e74:	18c01f93 	and	v1,v1,7

0000000000014e78 <$LM3>:
   14e78:	11000013 	move	v0,a0

0000000000014e7c <$LM4>:
   14e7c:	390c0033 	add	a3,a0,a2

0000000000014e80 <$LM5>:
   14e80:	00c080e3 	bnez	v1,14ec0 <$L2>

0000000000014e84 <$LM6>:
   14e84:	31802193 	sltu	a2,a2,8

0000000000014e88 <$LVL4>:
   14e88:	018070e3 	bnez	a2,14ec0 <$L2>

0000000000014e8c <$LM7>:
   14e8c:	19001f93 	and	v1,a0,7
   14e90:	00c160e3 	bnez	v1,14f40 <$L24>
   14e94:	19000013 	move	v1,a0

0000000000014e98 <$L6>:
   14e98:	31ffe393 	and	a2,a3,-8

0000000000014e9c <$LM9>:
   14e9c:	21bf0013 	add	a0,a2,-64

0000000000014ea0 <$LVL7>:
   14ea0:	00c88363 	bltu	v1,a0,14ee0 <$L17>

0000000000014ea4 <$L16>:
   14ea4:	21400183 	ld	a0,0(a1)

0000000000014ea8 <$LVL9>:
   14ea8:	18c02013 	add	v1,v1,8

0000000000014eac <$LVL10>:
   14eac:	29402013 	add	a1,a1,8

0000000000014eb0 <$LVL11>:
   14eb0:	f8c9e1a3 	sd	a0,-8(v1)

0000000000014eb4 <$LBE2>:
   14eb4:	f8cde363 	bltu	v1,a2,14ea4 <$L16>

0000000000014eb8 <$L10>:
   14eb8:	00ce2363 	bltu	v1,a3,14ec8 <$L15>

0000000000014ebc <$L4>:
   14ebc:	004000eb 	ret

0000000000014ec0 <$L2>:
   14ec0:	f88ffbe3 	bleu	a3,v0,14ebc <$L4>
   14ec4:	18800013 	move	v1,v0

0000000000014ec8 <$L15>:
   14ec8:	21400003 	lb	a0,0(a1)

0000000000014ecc <$LVL16>:
   14ecc:	18c00413 	add	v1,v1,1

0000000000014ed0 <$LVL17>:
   14ed0:	29400413 	add	a1,a1,1

0000000000014ed4 <$LVL18>:
   14ed4:	f8c9fc23 	sb	a0,-1(v1)

0000000000014ed8 <$LBE3>:
   14ed8:	f8cfe363 	bltu	v1,a3,14ec8 <$L15>
   14edc:	004000eb 	ret

0000000000014ee0 <$L17>:
   14ee0:	81400183 	ld	t4,0(a1)

0000000000014ee4 <$LM17>:
   14ee4:	79402183 	ld	t3,8(a1)

0000000000014ee8 <$LM18>:
   14ee8:	71404183 	ld	t2,16(a1)

0000000000014eec <$LM19>:
   14eec:	69406183 	ld	t1,24(a1)

0000000000014ef0 <$LM20>:
   14ef0:	61408183 	ld	t0,32(a1)

0000000000014ef4 <$LM21>:
   14ef4:	5940a183 	ld	a7,40(a1)

0000000000014ef8 <$LM22>:
   14ef8:	5140c183 	ld	a6,48(a1)

0000000000014efc <$LM23>:
   14efc:	4940e183 	ld	a5,56(a1)

0000000000014f00 <$LM24>:
   14f00:	41410183 	ld	a4,64(a1)

0000000000014f04 <$LM25>:
   14f04:	00e001a3 	sd	t4,0(v1)

0000000000014f08 <$LM26>:
   14f08:	00de21a3 	sd	t3,8(v1)

0000000000014f0c <$LM27>:
   14f0c:	00dc41a3 	sd	t2,16(v1)

0000000000014f10 <$LM28>:
   14f10:	00da61a3 	sd	t1,24(v1)

0000000000014f14 <$LM29>:
   14f14:	00d881a3 	sd	t0,32(v1)

0000000000014f18 <$LM30>:
   14f18:	00d6a1a3 	sd	a7,40(v1)

0000000000014f1c <$LM31>:
   14f1c:	00d4c1a3 	sd	a6,48(v1)

0000000000014f20 <$LM32>:
   14f20:	00d2e1a3 	sd	a5,56(v1)

0000000000014f24 <$LM33>:
   14f24:	00d101a3 	sd	a4,64(v1)

0000000000014f28 <$LM34>:
   14f28:	18c12013 	add	v1,v1,72

0000000000014f2c <$LVL28>:
   14f2c:	29412013 	add	a1,a1,72

0000000000014f30 <$LM35>:
   14f30:	f8c96363 	bltu	v1,a0,14ee0 <$L17>

0000000000014f34 <$LM36>:
   14f34:	f8cce0e3 	bne	v1,a2,14ea4 <$L16>

0000000000014f38 <$LM37>:
   14f38:	f8cf0be3 	bleu	a3,v1,14ebc <$L4>
   14f3c:	ffffe367 	j	14ec8 <$L15>

0000000000014f40 <$L24>:
   14f40:	19000013 	move	v1,a0

0000000000014f44 <$L7>:
   14f44:	31400003 	lb	a2,0(a1)

0000000000014f48 <$LVL33>:
   14f48:	18c00413 	add	v1,v1,1

0000000000014f4c <$LBE4>:
   14f4c:	20c01f93 	and	a0,v1,7

0000000000014f50 <$LBB5>:
   14f50:	29400413 	add	a1,a1,1

0000000000014f54 <$LVL35>:
   14f54:	f8cdfc23 	sb	a2,-1(v1)

0000000000014f58 <$LBE5>:
   14f58:	f901d8e3 	bnez	a0,14f44 <$L7>
   14f5c:	ffffcf67 	j	14e98 <$L6>

0000000000014f60 <memset>:
   14f60:	78001c13 	li	t3,7
   14f64:	11000013 	move	v0,a0
   14f68:	03ccebe3 	bleu	a2,t3,14fdc <small>
   14f6c:	71001f93 	and	t2,a0,7
   14f70:	038140e3 	bnez	t2,15010 <misaligned>

0000000000014f74 <aligned>:
   14f74:	014088e3 	bnez	a1,14fb8 <wordify>

0000000000014f78 <aligned_and_wordified>:
   14f78:	69802393 	and	t1,a2,8
   14f7c:	71bfe393 	and	t2,a2,-8
   14f80:	611c0033 	add	t0,a0,t2
   14f84:	034038e3 	bnez	t1,14fa0 <aligned8>
   14f88:	010a01a3 	sd	a1,0(a0)
   14f8c:	010a21a3 	sd	a1,8(a0)
   14f90:	21004013 	add	a0,a0,16
   14f94:	f919eb63 	bltu	a0,t0,14f88 <aligned_and_wordified+0x10>
   14f98:	038c80e3 	bne	t2,a2,14fd8 <tail>
   14f9c:	004000eb 	ret

0000000000014fa0 <aligned8>:
   14fa0:	010a01a3 	sd	a1,0(a0)
   14fa4:	010a01a3 	sd	a1,0(a0)
   14fa8:	21002013 	add	a0,a0,8
   14fac:	f919bb63 	bltu	a0,t0,14f88 <aligned_and_wordified+0x10>
   14fb0:	038c50e3 	bne	t2,a2,14fd8 <tail>
   14fb4:	004000eb 	ret

0000000000014fb8 <wordify>:
   14fb8:	2943ff93 	and	a1,a1,255
   14fbc:	61402093 	sll	t0,a1,0x8
   14fc0:	29580333 	or	a1,a1,t0
   14fc4:	61404093 	sll	t0,a1,0x10
   14fc8:	29580333 	or	a1,a1,t0
   14fcc:	61408093 	sll	t0,a1,0x20
   14fd0:	29580333 	or	a1,a1,t0
   14fd4:	ffffe967 	j	14f78 <aligned_and_wordified>

0000000000014fd8 <tail>:
   14fd8:	319d0033 	sub	a2,a2,t2

0000000000014fdc <small>:
   14fdc:	63cd0033 	sub	t0,t3,a2
   14fe0:	63000893 	sll	t0,t0,0x2
   14fe4:	6800026b 	rdnpc	t1
   14fe8:	631a0033 	add	t0,t0,t1
   14fec:	0300216b 	jr	t0,8
   14ff0:	010a1823 	sb	a1,6(a0)
   14ff4:	010a1423 	sb	a1,5(a0)
   14ff8:	010a1023 	sb	a1,4(a0)
   14ffc:	010a0c23 	sb	a1,3(a0)
   15000:	010a0823 	sb	a1,2(a0)
   15004:	010a0423 	sb	a1,1(a0)
   15008:	010a0023 	sb	a1,0(a0)
   1500c:	004000eb 	ret

0000000000015010 <misaligned>:
   15010:	63800893 	sll	t0,t2,0x2
   15014:	6800026b 	rdnpc	t1
   15018:	631a0033 	add	t0,t0,t1
   1501c:	0300116b 	jr	t0,4
   15020:	010a1823 	sb	a1,6(a0)
   15024:	010a1423 	sb	a1,5(a0)
   15028:	010a1023 	sb	a1,4(a0)
   1502c:	010a0c23 	sb	a1,3(a0)
   15030:	010a0823 	sb	a1,2(a0)
   15034:	010a0423 	sb	a1,1(a0)
   15038:	010a0023 	sb	a1,0(a0)
   1503c:	73bfe013 	add	t2,t2,-8
   15040:	211d0033 	sub	a0,a0,t2
   15044:	319c0033 	add	a2,a2,t2
   15048:	fbcd2be3 	bleu	a2,t3,14fdc <small>
   1504c:	ffffca67 	j	14f74 <aligned>

0000000000015050 <__malloc_lock>:
   15050:	004000eb 	ret

0000000000015054 <__malloc_unlock>:
   15054:	004000eb 	ret

0000000000015058 <_Balloc>:
   15058:	1901e183 	ld	v1,120(a0)

000000000001505c <$LM3>:
   1505c:	f7bf8013 	add	sp,sp,-32

0000000000015060 <$LCFI0>:
   15060:	07aa41a3 	sd	s1,16(sp)
   15064:	07a821a3 	sd	s0,8(sp)
   15068:	07ac61a3 	sd	s2,24(sp)
   1506c:	078201a3 	sd	ra,0(sp)

0000000000015070 <$LM4>:
   15070:	a1000013 	move	s0,a0
   15074:	a9400013 	move	s1,a1

0000000000015078 <$LM5>:
   15078:	00c07863 	beqz	v1,150b4 <$L8>

000000000001507c <$L2>:
   1507c:	15400c93 	sll	v0,s1,0x3
   15080:	18c40033 	add	v1,v1,v0
   15084:	10c00183 	ld	v0,0(v1)

0000000000015088 <$LVL2>:
   15088:	00809863 	beqz	v0,150d4 <$L4>

000000000001508c <$LM7>:
   1508c:	20800183 	ld	a0,0(v0)
   15090:	00c801a3 	sd	a0,0(v1)

0000000000015094 <$L5>:
   15094:	00805123 	sw	zero,20(v0)
   15098:	00804123 	sw	zero,16(v0)

000000000001509c <$L3>:
   1509c:	0f800183 	ld	ra,0(sp)
   150a0:	b7806183 	ld	s2,24(sp)
   150a4:	af804183 	ld	s1,16(sp)
   150a8:	a7802183 	ld	s0,8(sp)

00000000000150ac <$LVL5>:
   150ac:	f7808013 	add	sp,sp,32
   150b0:	004000eb 	ret

00000000000150b4 <$L8>:
   150b4:	28002013 	li	a1,8

00000000000150b8 <$LVL7>:
   150b8:	30010413 	li	a2,65
   150bc:	0008a86f 	jal	1735c <_calloc_r>

00000000000150c0 <$LVL8>:
   150c0:	18800013 	move	v1,v0
   150c4:	0505e1a3 	sd	v0,120(s0)

00000000000150c8 <$LM11>:
   150c8:	10000013 	li	v0,0

00000000000150cc <$LM12>:
   150cc:	f8c160e3 	bnez	v1,1507c <$L2>
   150d0:	fffff367 	j	1509c <$L3>

00000000000150d4 <$L4>:
   150d4:	b0000413 	li	s2,1
   150d8:	b5aa00bb 	sllw	s2,s2,s1

00000000000150dc <$LM14>:
   150dc:	35bffc1b 	addw	a2,s2,-1
   150e0:	31802013 	add	a2,a2,8
   150e4:	25000013 	move	a0,s0
   150e8:	28000413 	li	a1,1
   150ec:	31800893 	sll	a2,a2,0x2
   150f0:	00089b6f 	jal	1735c <_calloc_r>

00000000000150f4 <$LM15>:
   150f4:	f8815063 	beqz	v0,1509c <$L3>

00000000000150f8 <$LM16>:
   150f8:	00aa2123 	sw	s1,8(v0)

00000000000150fc <$LM17>:
   150fc:	00ac3123 	sw	s2,12(v0)
   15100:	ffffe567 	j	15094 <$L5>

0000000000015104 <_Bfree>:
   15104:	01404063 	beqz	a1,15124 <$L9>

0000000000015108 <$LM20>:
   15108:	11402103 	lw	v0,8(a1)
   1510c:	1901e183 	ld	v1,120(a0)
   15110:	10800c93 	sll	v0,v0,0x3
   15114:	10c40033 	add	v0,v1,v0
   15118:	18800183 	ld	v1,0(v0)
   1511c:	014601a3 	sd	v1,0(a1)

0000000000015120 <$LM21>:
   15120:	008a01a3 	sd	a1,0(v0)

0000000000015124 <$L9>:
   15124:	004000eb 	ret

0000000000015128 <__multadd>:
   15128:	f7bf4013 	add	sp,sp,-48

000000000001512c <$LCFI1>:
   1512c:	07a821a3 	sd	s0,8(sp)

0000000000015130 <$LM23>:
   15130:	a1405103 	lw	s0,20(a1)

0000000000015134 <$LM24>:
   15134:	40000837 	lui	a4,0x10

0000000000015138 <$LM25>:
   15138:	07ac61a3 	sd	s2,24(sp)
   1513c:	07aa41a3 	sd	s1,16(sp)
   15140:	07b0a1a3 	sd	s4,40(sp)
   15144:	07ae81a3 	sd	s3,32(sp)
   15148:	078201a3 	sd	ra,0(sp)

000000000001514c <$LM26>:
   1514c:	a9400013 	move	s1,a1
   15150:	b1000013 	move	s2,a0

0000000000015154 <$LM27>:
   15154:	11406013 	add	v0,a1,24

0000000000015158 <$LM28>:
   15158:	48000013 	li	a5,0

000000000001515c <$LM29>:
   1515c:	423ffc1b 	addw	a4,a4,-1

0000000000015160 <$L12>:
   15160:	28800103 	lw	a1,0(v0)

0000000000015164 <$LM31>:
   15164:	1a40041b 	addw	v1,a5,1
   15168:	48c00013 	move	a5,v1

000000000001516c <$LM32>:
   1516c:	215003b3 	and	a0,a1,a4
   15170:	210c043b 	mulw	a0,a0,a2

0000000000015174 <$LM33>:
   15174:	2940429b 	srlw	a1,a1,0x10

0000000000015178 <$LVL19>:
