
bsort100.exe:     file format elf64-littleriscv


Disassembly of section .text:

0000000000010000 <_start>:
   10000:	f7bf0013 	add	sp,sp,-64
   10004:	0003056f 	jal	10c18 <_init>
   10008:	200008b7 	lui	a0,0x11
   1000c:	2130d013 	add	a0,a0,-972
   10010:	00008c6f 	jal	10240 <atexit>
   10014:	27810183 	ld	a0,64(sp)
   10018:	2f812013 	add	a1,sp,72
   1001c:	0002eb6f 	jal	10bc8 <main>
   10020:	20800013 	move	a0,v0
   10024:	00008c6f 	jal	10254 <exit>

0000000000010028 <__do_global_dtors_aux>:
   10028:	f7bf4013 	add	sp,sp,-48
   1002c:	07a841a3 	sd	s0,16(sp)
   10030:	a00008b7 	lui	s0,0x11
   10034:	15128203 	lbu	v0,1184(s0)
   10038:	07aea1a3 	sd	s3,40(sp)
   1003c:	07ac81a3 	sd	s2,32(sp)
   10040:	07aa61a3 	sd	s1,24(sp)
   10044:	078221a3 	sd	ra,8(sp)
   10048:	0080d8e3 	bnez	v0,100b4 <$L1>
   1004c:	b80008b7 	lui	s3,0x11
   10050:	b00008b7 	lui	s2,0x11
   10054:	a80008b7 	lui	s1,0x11
   10058:	bdf50013 	add	s3,s3,-704
   1005c:	b5b52013 	add	s2,s2,-696
   10060:	b5af0033 	sub	s2,s2,s3
   10064:	1552a183 	ld	v0,1192(s1)
   10068:	b5810e93 	sra	s2,s2,0x3
   1006c:	b5bffc13 	add	s2,s2,-1
   10070:	00ac4be3 	bleu	s2,v0,10094 <$L3>

0000000000010074 <$L6>:
   10074:	10800413 	add	v0,v0,1
   10078:	18800c93 	sll	v1,v0,0x3
   1007c:	1dc60033 	add	v1,s3,v1
   10080:	18c00183 	ld	v1,0(v1)
   10084:	4d44a1a3 	sd	v0,1192(s1)
   10088:	08c0006b 	jalr	v1
   1008c:	1552a183 	ld	v0,1192(s1)
   10090:	f8adcb63 	bltu	v0,s2,10074 <$L6>

0000000000010094 <$L3>:
   10094:	10000037 	lui	v0,0x0
   10098:	10800013 	move	v0,v0
   1009c:	00802063 	beqz	v0,100ac <$L5>
   100a0:	200008b7 	lui	a0,0x11
   100a4:	21354013 	add	a0,a0,-688
   100a8:	0000006f 	jal	100a8 <$L3+0x14>

00000000000100ac <$L5>:
   100ac:	10000413 	li	v0,1
   100b0:	4d048023 	sb	v0,1184(s0)

00000000000100b4 <$L1>:
   100b4:	0f802183 	ld	ra,8(sp)
   100b8:	bf80a183 	ld	s3,40(sp)
   100bc:	b7808183 	ld	s2,32(sp)
   100c0:	af806183 	ld	s1,24(sp)
   100c4:	a7804183 	ld	s0,16(sp)
   100c8:	f780c013 	add	sp,sp,48
   100cc:	004000eb 	ret

00000000000100d0 <call___do_global_dtors_aux>:
   100d0:	f7bfc013 	add	sp,sp,-16
   100d4:	078221a3 	sd	ra,8(sp)
   100d8:	0f802183 	ld	ra,8(sp)
   100dc:	f7804013 	add	sp,sp,16
   100e0:	004000eb 	ret

00000000000100e4 <frame_dummy>:
   100e4:	10000037 	lui	v0,0x0
   100e8:	f7bfc013 	add	sp,sp,-16
   100ec:	10800013 	move	v0,v0
   100f0:	078221a3 	sd	ra,8(sp)
   100f4:	00803063 	beqz	v0,1010c <$L11>
   100f8:	200008b7 	lui	a0,0x11
   100fc:	280008b7 	lui	a1,0x11
   10100:	21354013 	add	a0,a0,-688
   10104:	2952c013 	add	a1,a1,1200
   10108:	0000006f 	jal	10108 <frame_dummy+0x24>

000000000001010c <$L11>:
   1010c:	200008b7 	lui	a0,0x11
   10110:	11356183 	ld	v0,-680(a0)
   10114:	00804063 	beqz	v0,10134 <$L10>
   10118:	98000037 	lui	t7,0x0
   1011c:	9cc00013 	move	t7,t7
   10120:	04c02863 	beqz	t7,10134 <$L10>
   10124:	0f802183 	ld	ra,8(sp)
   10128:	21356013 	add	a0,a0,-680
   1012c:	f7804013 	add	sp,sp,16
   10130:	04c0016b 	jr	t7

0000000000010134 <$L10>:
   10134:	0f802183 	ld	ra,8(sp)
   10138:	f7804013 	add	sp,sp,16
   1013c:	004000eb 	ret

0000000000010140 <call_frame_dummy>:
   10140:	f7bfc013 	add	sp,sp,-16
   10144:	078221a3 	sd	ra,8(sp)
   10148:	0f802183 	ld	ra,8(sp)
   1014c:	f7804013 	add	sp,sp,16
   10150:	004000eb 	ret

0000000000010154 <Initialize>:
   10154:	100008b7 	lui	v0,0x11
   10158:	183ffc13 	li	v1,-1
   1015c:	50876123 	sw	v1,1368(v0)
   10160:	21001013 	add	a0,a0,4
   10164:	103ffc13 	li	v0,-1
   10168:	283fac13 	li	a1,-21

000000000001016c <$L2>:
   1016c:	18bffc1b 	addw	v1,v0,-1
   10170:	01040123 	sw	v0,0(a0)
   10174:	10c00013 	move	v0,v1
   10178:	21001013 	add	a0,a0,4
   1017c:	f8cbe0e3 	bne	v1,a1,1016c <$L2>
   10180:	004000eb 	ret

0000000000010184 <BubbleSort>:
   10184:	10004c13 	li	v0,19
   10188:	21001013 	add	a0,a0,4
   1018c:	50005013 	li	a6,20

0000000000010190 <$L6>:
   10190:	48800013 	move	a5,v0
   10194:	19000013 	move	v1,a0
   10198:	28000413 	li	a1,1
   1019c:	58000413 	li	a7,1

00000000000101a0 <$L9>:
   101a0:	3140041b 	addw	a2,a1,1
   101a4:	024a5263 	blt	a5,a1,101cc <$L7>
   101a8:	38c00103 	lw	a3,0(v1)
   101ac:	40c01103 	lw	a4,4(v1)
   101b0:	29800013 	move	a1,a2
   101b4:	020e22e3 	ble	a3,a4,101c4 <$L8>
   101b8:	00d00123 	sw	a4,0(v1)
   101bc:	00ce1123 	sw	a3,4(v1)
   101c0:	58000013 	li	a7,0

00000000000101c4 <$L8>:
   101c4:	18c01013 	add	v1,v1,4
   101c8:	f995b0e3 	bne	a2,a6,101a0 <$L9>

00000000000101cc <$L7>:
   101cc:	02c018e3 	bnez	a7,101d8 <$L5>
   101d0:	10bffc1b 	addw	v0,v0,-1
   101d4:	f88178e3 	bnez	v0,10190 <$L6>

00000000000101d8 <$L5>:
   101d8:	004000eb 	ret

00000000000101dc <__do_global_ctors_aux>:
   101dc:	f7bf8013 	add	sp,sp,-32
   101e0:	07a841a3 	sd	s0,16(sp)
   101e4:	a00008b7 	lui	s0,0x11
   101e8:	a534e013 	add	s0,s0,-712
   101ec:	153fe183 	ld	v0,-8(s0)
   101f0:	183ffc13 	li	v1,-1
   101f4:	07aa61a3 	sd	s1,24(sp)
   101f8:	078221a3 	sd	ra,8(sp)
   101fc:	00863863 	beq	v0,v1,10218 <$L1>
   10200:	a53fe013 	add	s0,s0,-8
   10204:	a83ffc13 	li	s1,-1

0000000000010208 <$L3>:
   10208:	a53fe013 	add	s0,s0,-8
   1020c:	0880006b 	jalr	v0
   10210:	15000183 	ld	v0,0(s0)
   10214:	f8abe8e3 	bne	v0,s1,10208 <$L3>

0000000000010218 <$L1>:
   10218:	0f802183 	ld	ra,8(sp)
   1021c:	af806183 	ld	s1,24(sp)
   10220:	a7804183 	ld	s0,16(sp)
   10224:	f7808013 	add	sp,sp,32
   10228:	004000eb 	ret

000000000001022c <call___do_global_ctors_aux>:
   1022c:	f7bfc013 	add	sp,sp,-16
   10230:	078221a3 	sd	ra,8(sp)
   10234:	0f802183 	ld	ra,8(sp)
   10238:	f7804013 	add	sp,sp,16
   1023c:	004000eb 	ret

0000000000010240 <atexit>:
   10240:	29000013 	move	a1,a0
   10244:	30000013 	li	a2,0
   10248:	20000013 	li	a0,0

000000000001024c <$LVL1>:
   1024c:	38000013 	li	a3,0
   10250:	00000e67 	j	10288 <__register_exitproc>

0000000000010254 <exit>:
   10254:	f7bfc013 	add	sp,sp,-16

0000000000010258 <$LCFI0>:
   10258:	28000013 	li	a1,0

000000000001025c <$LM3>:
   1025c:	07a821a3 	sd	s0,8(sp)
   10260:	078201a3 	sd	ra,0(sp)

0000000000010264 <$LM4>:
   10264:	a1000013 	move	s0,a0

0000000000010268 <$LM5>:
   10268:	0000556f 	jal	103bc <__call_exitprocs>

000000000001026c <$LM6>:
   1026c:	100008b7 	lui	v0,0x11
   10270:	20b3c183 	ld	a0,-784(v0)
   10274:	11016183 	ld	v0,88(a0)
   10278:	00801063 	beqz	v0,10280 <$L2>

000000000001027c <$LM7>:
   1027c:	0880006b 	jalr	v0

0000000000010280 <$L2>:
   10280:	25000013 	move	a0,s0
   10284:	0002206f 	jal	10b04 <_exit>

0000000000010288 <__register_exitproc>:
   10288:	f7bf0013 	add	sp,sp,-64

000000000001028c <$LCFI0>:
   1028c:	100008b7 	lui	v0,0x11

0000000000010290 <$LM3>:
   10290:	07a8a1a3 	sd	s0,40(sp)

0000000000010294 <$LM4>:
   10294:	a0b3c183 	ld	s0,-784(v0)

0000000000010298 <$LM5>:
   10298:	07aac1a3 	sd	s1,48(sp)
   1029c:	07ace1a3 	sd	s2,56(sp)

00000000000102a0 <$LM6>:
   102a0:	1d07e183 	ld	v1,504(s0)

00000000000102a4 <$LM7>:
   102a4:	078281a3 	sd	ra,32(sp)

00000000000102a8 <$LM8>:
   102a8:	a9000013 	move	s1,a0

00000000000102ac <$LM9>:
   102ac:	08c00863 	beqz	v1,103b0 <$L9>

00000000000102b0 <$L2>:
   102b0:	10c02103 	lw	v0,8(v1)
   102b4:	20808113 	slt	a0,v0,32

00000000000102b8 <$LVL3>:
   102b8:	0100e8e3 	bnez	a0,1032c <$L3>

00000000000102bc <$LM11>:
   102bc:	10000037 	lui	v0,0x0
   102c0:	10800013 	move	v0,v0

00000000000102c4 <$LM12>:
   102c4:	b03ffc13 	li	s2,-1

00000000000102c8 <$LM13>:
   102c8:	008040e3 	bnez	v0,102e8 <$L10>

00000000000102cc <$L4>:
   102cc:	0f808183 	ld	ra,32(sp)
   102d0:	15800013 	move	v0,s2
   102d4:	af80c183 	ld	s1,48(sp)
   102d8:	b780e183 	ld	s2,56(sp)
   102dc:	a780a183 	ld	s0,40(sp)
   102e0:	f7810013 	add	sp,sp,64
   102e4:	004000eb 	ret

00000000000102e8 <$L10>:
   102e8:	200c6013 	li	a0,792
   102ec:	078a01a3 	sd	a1,0(sp)
   102f0:	078c21a3 	sd	a2,8(sp)
   102f4:	078e41a3 	sd	a3,16(sp)
   102f8:	0000006f 	jal	102f8 <$L10+0x10>

00000000000102fc <$LVL6>:
   102fc:	18800013 	move	v1,v0

0000000000010300 <$LM16>:
   10300:	2f800183 	ld	a1,0(sp)
   10304:	37802183 	ld	a2,8(sp)
   10308:	3f804183 	ld	a3,16(sp)
   1030c:	f8818063 	beqz	v0,102cc <$L4>

0000000000010310 <$LM17>:
   10310:	2507e183 	ld	a0,504(s0)

0000000000010314 <$LM18>:
   10314:	00802123 	sw	zero,8(v0)

0000000000010318 <$LM19>:
   10318:	10000013 	li	v0,0

000000000001031c <$LM20>:
   1031c:	00c801a3 	sd	a0,0(v1)

0000000000010320 <$LM21>:
   10320:	1d07e1a3 	sd	v1,504(s0)

0000000000010324 <$LM22>:
   10324:	30c04123 	sw	zero,784(v1)

0000000000010328 <$LM23>:
   10328:	30c05123 	sw	zero,788(v1)

000000000001032c <$L3>:
   1032c:	05407863 	beqz	s1,10368 <$L5>

0000000000010330 <$LM25>:
   10330:	48cc4103 	lw	a5,784(v1)

0000000000010334 <$LM26>:
   10334:	40808013 	add	a4,v0,32

0000000000010338 <$LM27>:
   10338:	50800c93 	sll	a6,v0,0x3

000000000001033c <$LM28>:
   1033c:	20000413 	li	a0,1
   10340:	210400bb 	sllw	a0,a0,v0

0000000000010344 <$LM29>:
   10344:	42000c93 	sll	a4,a4,0x3

0000000000010348 <$LM30>:
   10348:	50d40033 	add	a6,v1,a6

000000000001034c <$LM31>:
   1034c:	4a480333 	or	a5,a5,a0

0000000000010350 <$LM32>:
   10350:	40d00033 	add	a4,v1,a4

0000000000010354 <$LM33>:
   10354:	128c41a3 	sd	a2,272(a6)

0000000000010358 <$LM34>:
   10358:	30000813 	li	a2,2

000000000001035c <$LM35>:
   1035c:	30d24123 	sw	a5,784(v1)

0000000000010360 <$LM36>:
   10360:	120e41a3 	sd	a3,272(a4)

0000000000010364 <$LM37>:
   10364:	054c7863 	beq	s1,a2,103a0 <$L11>

0000000000010368 <$L5>:
   10368:	20800813 	add	a0,v0,2

000000000001036c <$LM39>:
   1036c:	0f808183 	ld	ra,32(sp)

0000000000010370 <$LM40>:
   10370:	21000c93 	sll	a0,a0,0x3
   10374:	1080041b 	addw	v0,v0,1

0000000000010378 <$LM41>:
   10378:	b0000013 	li	s2,0

000000000001037c <$LM42>:
   1037c:	20c80033 	add	a0,v1,a0
   10380:	00c42123 	sw	v0,8(v1)

0000000000010384 <$LM43>:
   10384:	af80c183 	ld	s1,48(sp)
   10388:	15800013 	move	v0,s2
   1038c:	a780a183 	ld	s0,40(sp)
   10390:	b780e183 	ld	s2,56(sp)

0000000000010394 <$LM44>:
   10394:	010a01a3 	sd	a1,0(a0)

0000000000010398 <$LM45>:
   10398:	f7810013 	add	sp,sp,64
   1039c:	004000eb 	ret

00000000000103a0 <$L11>:
   103a0:	30cc5103 	lw	a2,788(v1)
   103a4:	21880333 	or	a0,a2,a0
   103a8:	30c85123 	sw	a0,788(v1)
   103ac:	ffffef67 	j	10368 <$L5>

00000000000103b0 <$L9>:
   103b0:	1d080013 	add	v1,s0,512

00000000000103b4 <$LVL13>:
   103b4:	1d07e1a3 	sd	v1,504(s0)
   103b8:	ffffbe67 	j	102b0 <$L2>

00000000000103bc <__call_exitprocs>:
   103bc:	f7bec013 	add	sp,sp,-80

00000000000103c0 <$LCFI0>:
   103c0:	100008b7 	lui	v0,0x11
   103c4:	07b701a3 	sd	s7,64(sp)

00000000000103c8 <$LM2>:
   103c8:	d8b3c183 	ld	s7,-784(v0)

00000000000103cc <$LM3>:
   103cc:	07bb21a3 	sd	s9,72(sp)
   103d0:	07b4e1a3 	sd	s6,56(sp)
   103d4:	07ae81a3 	sd	s3,32(sp)
   103d8:	07ac61a3 	sd	s2,24(sp)
   103dc:	07b2c1a3 	sd	s5,48(sp)
   103e0:	07b0a1a3 	sd	s4,40(sp)
   103e4:	07aa41a3 	sd	s1,16(sp)
   103e8:	07a821a3 	sd	s0,8(sp)
   103ec:	078201a3 	sd	ra,0(sp)

00000000000103f0 <$LM4>:
   103f0:	e9000013 	move	s9,a0
   103f4:	b1400013 	move	s2,a1

00000000000103f8 <$LBB2>:
   103f8:	d0000413 	li	s6,1

00000000000103fc <$LBE2>:
   103fc:	b83ffc13 	li	s3,-1

0000000000010400 <$L23>:
   10400:	aec7e183 	ld	s1,504(s7)

0000000000010404 <$LM8>:
   10404:	05409063 	beqz	s1,1044c <$L1>

0000000000010408 <$LM9>:
   10408:	cec7e013 	add	s5,s7,504

000000000001040c <$L16>:
   1040c:	15402103 	lw	v0,8(s1)
   10410:	10bffc1b 	addw	v0,v0,-1

0000000000010414 <$LVL4>:
   10414:	a0800013 	move	s0,v0
   10418:	00805263 	bltz	v0,10440 <$L3>

000000000001041c <$L19>:
   1041c:	0580c063 	beqz	s2,1047c <$L4>

0000000000010420 <$LM12>:
   10420:	15008013 	add	v0,s0,32

0000000000010424 <$LVL6>:
   10424:	10800c93 	sll	v0,v0,0x3
   10428:	15440033 	add	v0,s1,v0
   1042c:	10844183 	ld	v0,272(v0)
   10430:	00ac9863 	beq	v0,s2,1047c <$L4>

0000000000010434 <$L5>:
   10434:	153ffc1b 	addw	v0,s0,-1

0000000000010438 <$LVL7>:
   10438:	a0800013 	move	s0,v0

000000000001043c <$LVL8>:
   1043c:	f8afc0e3 	bne	v0,s3,1041c <$L19>

0000000000010440 <$L3>:
   10440:	10000037 	lui	v0,0x0

0000000000010444 <$LVL9>:
   10444:	10800013 	move	v0,v0
   10448:	008188e3 	bnez	v0,1050c <$L25>

000000000001044c <$L1>:
   1044c:	0f800183 	ld	ra,0(sp)
   10450:	ef812183 	ld	s9,72(sp)
   10454:	df810183 	ld	s7,64(sp)
   10458:	d780e183 	ld	s6,56(sp)
   1045c:	cf80c183 	ld	s5,48(sp)
   10460:	c780a183 	ld	s4,40(sp)
   10464:	bf808183 	ld	s3,32(sp)
   10468:	b7806183 	ld	s2,24(sp)

000000000001046c <$LVL11>:
   1046c:	af804183 	ld	s1,16(sp)

0000000000010470 <$LVL12>:
   10470:	a7802183 	ld	s0,8(sp)
   10474:	f7814013 	add	sp,sp,80
   10478:	004000eb 	ret

000000000001047c <$L4>:
   1047c:	25402103 	lw	a0,8(s1)

0000000000010480 <$LM17>:
   10480:	1d000813 	add	v1,s0,2
   10484:	18c00c93 	sll	v1,v1,0x3
   10488:	1d460033 	add	v1,s1,v1

000000000001048c <$LM18>:
   1048c:	213ffc1b 	addw	a0,a0,-1

0000000000010490 <$LM19>:
   10490:	10c00183 	ld	v0,0(v1)

0000000000010494 <$LM20>:
   10494:	0128b863 	beq	a0,s0,104f0 <$L26>

0000000000010498 <$LM21>:
   10498:	00c001a3 	sd	zero,0(v1)

000000000001049c <$L7>:
   1049c:	f8813063 	beqz	v0,10434 <$L5>

00000000000104a0 <$LM23>:
   104a0:	254c4103 	lw	a0,784(s1)

00000000000104a4 <$LM24>:
   104a4:	1ea800bb 	sllw	v1,s6,s0

00000000000104a8 <$LM25>:
   104a8:	c5402103 	lw	s4,8(s1)

00000000000104ac <$LM26>:
   104ac:	210603b3 	and	a0,a0,v1
   104b0:	01007063 	beqz	a0,104e8 <$L27>

00000000000104b4 <$LM27>:
   104b4:	254c5103 	lw	a0,788(s1)
   104b8:	190603b3 	and	v1,a0,v1
   104bc:	00c078e3 	bnez	v1,104f8 <$L10>

00000000000104c0 <$LM28>:
   104c0:	1d000c93 	sll	v1,s0,0x3
   104c4:	1d460033 	add	v1,s1,v1
   104c8:	28c44183 	ld	a1,272(v1)
   104cc:	27400013 	move	a0,s9
   104d0:	0880006b 	jalr	v0

00000000000104d4 <$L9>:
   104d4:	15402103 	lw	v0,8(s1)
   104d8:	f8b050e3 	bne	v0,s4,10400 <$L23>

00000000000104dc <$LM30>:
   104dc:	16400183 	ld	v0,0(s5)
   104e0:	f8aaa863 	beq	v0,s1,10434 <$L5>
   104e4:	ffffc767 	j	10400 <$L23>

00000000000104e8 <$L27>:
   104e8:	0880006b 	jalr	v0

00000000000104ec <$LVL19>:
   104ec:	fffffa67 	j	104d4 <$L9>

00000000000104f0 <$L26>:
   104f0:	05482123 	sw	a0,8(s1)
   104f4:	ffffea67 	j	1049c <$L7>

00000000000104f8 <$L10>:
   104f8:	1d000c93 	sll	v1,s0,0x3
   104fc:	1d460033 	add	v1,s1,v1
   10500:	20c44183 	ld	a0,272(v1)
   10504:	0880006b 	jalr	v0

0000000000010508 <$LVL22>:
   10508:	fffff367 	j	104d4 <$L9>

000000000001050c <$L25>:
   1050c:	15402103 	lw	v0,8(s1)
   10510:	008048e3 	bnez	v0,10534 <$L13>

0000000000010514 <$LM35>:
   10514:	15400183 	ld	v0,0(s1)
   10518:	00805863 	beqz	v0,10544 <$L17>

000000000001051c <$LM36>:
   1051c:	25400013 	move	a0,s1

0000000000010520 <$LM37>:
   10520:	064401a3 	sd	v0,0(s5)

0000000000010524 <$LM38>:
   10524:	0000006f 	jal	10524 <$LM38>

0000000000010528 <$LM39>:
   10528:	ae400183 	ld	s1,0(s5)

000000000001052c <$L15>:
   1052c:	f541c0e3 	bnez	s1,1040c <$L16>
   10530:	ffffc767 	j	1044c <$L1>

0000000000010534 <$L13>:
   10534:	15400183 	ld	v0,0(s1)

0000000000010538 <$L14>:
   10538:	cd400013 	move	s5,s1

000000000001053c <$LM43>:
   1053c:	a8800013 	move	s1,v0

0000000000010540 <$LVL27>:
   10540:	fffffb67 	j	1052c <$L15>

0000000000010544 <$L17>:
   10544:	10000013 	li	v0,0
   10548:	fffffc67 	j	10538 <$L14>

000000000001054c <open>:
   1054c:	f7bf8013 	add	sp,sp,-32

0000000000010550 <$LCFI0>:
   10550:	07ac61a3 	sd	s2,24(sp)
   10554:	07aa41a3 	sd	s1,16(sp)
   10558:	07a821a3 	sd	s0,8(sp)
   1055c:	a9400013 	move	s1,a1
   10560:	a1800013 	move	s0,a2
   10564:	b1000013 	move	s2,a0
   10568:	078201a3 	sd	ra,0(sp)

000000000001056c <$LM2>:
   1056c:	0001756f 	jal	10b40 <strlen>

0000000000010570 <$LVL1>:
   10570:	28800413 	add	a1,v0,1

0000000000010574 <$LBB12>:
   10574:	25800013 	move	a0,s2

0000000000010578 <$LBE12>:
   10578:	35400013 	move	a2,s1

000000000001057c <$LVL4>:
   1057c:	3d000013 	move	a3,s0

0000000000010580 <$LBB16>:
   10580:	10001413 	li	v0,5

0000000000010584 <$LM6>:
   10584:	00000077 	syscall

0000000000010588 <$LM7>:
   10588:	a8c00013 	move	s1,v1

000000000001058c <$LM8>:
   1058c:	a0800013 	move	s0,v0

0000000000010590 <$LBE16>:
   10590:	0001696f 	jal	10b34 <__errno>

0000000000010594 <$LBE18>:
   10594:	0f800183 	ld	ra,0(sp)

0000000000010598 <$LM11>:
   10598:	a500009b 	sllw	s0,s0,0x0

000000000001059c <$LBB19>:
   1059c:	00aa0123 	sw	s1,0(v0)

00000000000105a0 <$LBE19>:
   105a0:	b7806183 	ld	s2,24(sp)

00000000000105a4 <$LVL12>:
   105a4:	15000013 	move	v0,s0
   105a8:	af804183 	ld	s1,16(sp)

00000000000105ac <$LVL13>:
   105ac:	a7802183 	ld	s0,8(sp)
   105b0:	f7808013 	add	sp,sp,32
   105b4:	004000eb 	ret

00000000000105b8 <lseek>:
   105b8:	f7bf8013 	add	sp,sp,-32

00000000000105bc <$LCFI1>:
   105bc:	07aa61a3 	sd	s1,24(sp)
   105c0:	07a841a3 	sd	s0,16(sp)
   105c4:	078221a3 	sd	ra,8(sp)

00000000000105c8 <$LBB26>:
   105c8:	38000013 	li	a3,0

00000000000105cc <$LM16>:
   105cc:	10004c13 	li	v0,19

00000000000105d0 <$LM17>:
   105d0:	00000077 	syscall

00000000000105d4 <$LM18>:
   105d4:	a0800013 	move	s0,v0

00000000000105d8 <$LM19>:
   105d8:	a8c00013 	move	s1,v1

00000000000105dc <$LBE28>:
   105dc:	0001566f 	jal	10b34 <__errno>

00000000000105e0 <$LBE26>:
   105e0:	0f802183 	ld	ra,8(sp)

00000000000105e4 <$LBB30>:
   105e4:	00aa0123 	sw	s1,0(v0)

00000000000105e8 <$LBE30>:
   105e8:	15000013 	move	v0,s0
   105ec:	af806183 	ld	s1,24(sp)

00000000000105f0 <$LVL21>:
   105f0:	a7804183 	ld	s0,16(sp)

00000000000105f4 <$LVL22>:
   105f4:	f7808013 	add	sp,sp,32
   105f8:	004000eb 	ret

00000000000105fc <read>:
   105fc:	f7bf8013 	add	sp,sp,-32

0000000000010600 <$LCFI2>:
   10600:	07aa61a3 	sd	s1,24(sp)
   10604:	07a841a3 	sd	s0,16(sp)
   10608:	078221a3 	sd	ra,8(sp)

000000000001060c <$LBB36>:
   1060c:	38000013 	li	a3,0

0000000000010610 <$LM26>:
   10610:	10000c13 	li	v0,3

0000000000010614 <$LM27>:
   10614:	00000077 	syscall

0000000000010618 <$LM28>:
   10618:	a8c00013 	move	s1,v1

000000000001061c <$LM29>:
   1061c:	a0800013 	move	s0,v0

0000000000010620 <$LBE38>:
   10620:	0001456f 	jal	10b34 <__errno>

0000000000010624 <$LBE36>:
   10624:	0f802183 	ld	ra,8(sp)

0000000000010628 <$LM32>:
   10628:	a500009b 	sllw	s0,s0,0x0

000000000001062c <$LBB40>:
   1062c:	00aa0123 	sw	s1,0(v0)

0000000000010630 <$LBE40>:
   10630:	15000013 	move	v0,s0
   10634:	af806183 	ld	s1,24(sp)

0000000000010638 <$LVL30>:
   10638:	a7804183 	ld	s0,16(sp)
   1063c:	f7808013 	add	sp,sp,32
   10640:	004000eb 	ret

0000000000010644 <write>:
   10644:	f7bf8013 	add	sp,sp,-32

0000000000010648 <$LCFI3>:
   10648:	07aa61a3 	sd	s1,24(sp)
   1064c:	07a841a3 	sd	s0,16(sp)
   10650:	078221a3 	sd	ra,8(sp)

0000000000010654 <$LBB46>:
   10654:	38000013 	li	a3,0

0000000000010658 <$LM37>:
   10658:	10001013 	li	v0,4

000000000001065c <$LM38>:
   1065c:	00000077 	syscall

0000000000010660 <$LM39>:
   10660:	a8c00013 	move	s1,v1

0000000000010664 <$LM40>:
   10664:	a0800013 	move	s0,v0

0000000000010668 <$LBE48>:
   10668:	0001336f 	jal	10b34 <__errno>

000000000001066c <$LBE46>:
   1066c:	0f802183 	ld	ra,8(sp)

0000000000010670 <$LM43>:
   10670:	a500009b 	sllw	s0,s0,0x0

0000000000010674 <$LBB50>:
   10674:	00aa0123 	sw	s1,0(v0)

0000000000010678 <$LBE50>:
   10678:	15000013 	move	v0,s0
   1067c:	af806183 	ld	s1,24(sp)

0000000000010680 <$LVL38>:
   10680:	a7804183 	ld	s0,16(sp)
   10684:	f7808013 	add	sp,sp,32
   10688:	004000eb 	ret

000000000001068c <fstat>:
   1068c:	f7bf8013 	add	sp,sp,-32

0000000000010690 <$LCFI4>:
   10690:	07aa61a3 	sd	s1,24(sp)
   10694:	07a841a3 	sd	s0,16(sp)
   10698:	078221a3 	sd	ra,8(sp)

000000000001069c <$LBB56>:
   1069c:	30000013 	li	a2,0

00000000000106a0 <$LM48>:
   106a0:	38000013 	li	a3,0

00000000000106a4 <$LM49>:
   106a4:	10007013 	li	v0,28

00000000000106a8 <$LM50>:
   106a8:	00000077 	syscall

00000000000106ac <$LM51>:
   106ac:	a8c00013 	move	s1,v1

00000000000106b0 <$LM52>:
   106b0:	a0800013 	move	s0,v0

00000000000106b4 <$LBE58>:
   106b4:	0001206f 	jal	10b34 <__errno>

00000000000106b8 <$LBE56>:
   106b8:	0f802183 	ld	ra,8(sp)

00000000000106bc <$LM55>:
   106bc:	a500009b 	sllw	s0,s0,0x0

00000000000106c0 <$LBB60>:
   106c0:	00aa0123 	sw	s1,0(v0)

00000000000106c4 <$LBE60>:
   106c4:	15000013 	move	v0,s0
   106c8:	af806183 	ld	s1,24(sp)

00000000000106cc <$LVL47>:
   106cc:	a7804183 	ld	s0,16(sp)
   106d0:	f7808013 	add	sp,sp,32
   106d4:	004000eb 	ret

00000000000106d8 <stat>:
   106d8:	f7bf8013 	add	sp,sp,-32

00000000000106dc <$LCFI5>:
   106dc:	07aa61a3 	sd	s1,24(sp)
   106e0:	07a841a3 	sd	s0,16(sp)
   106e4:	a9000013 	move	s1,a0
   106e8:	a1400013 	move	s0,a1
   106ec:	078221a3 	sd	ra,8(sp)

00000000000106f0 <$LM59>:
   106f0:	0001146f 	jal	10b40 <strlen>

00000000000106f4 <$LVL49>:
   106f4:	28800413 	add	a1,v0,1

00000000000106f8 <$LBB66>:
   106f8:	25400013 	move	a0,s1

00000000000106fc <$LM61>:
   106fc:	35000013 	move	a2,s0

0000000000010700 <$LM62>:
   10700:	38000013 	li	a3,0

0000000000010704 <$LM63>:
   10704:	10004813 	li	v0,18

0000000000010708 <$LM64>:
   10708:	00000077 	syscall

000000000001070c <$LM65>:
   1070c:	a8c00013 	move	s1,v1

0000000000010710 <$LM66>:
   10710:	a0800013 	move	s0,v0

0000000000010714 <$LBE68>:
   10714:	0001086f 	jal	10b34 <__errno>

0000000000010718 <$LBE66>:
   10718:	0f802183 	ld	ra,8(sp)

000000000001071c <$LM69>:
   1071c:	a500009b 	sllw	s0,s0,0x0

0000000000010720 <$LBB70>:
   10720:	00aa0123 	sw	s1,0(v0)

0000000000010724 <$LBE70>:
   10724:	15000013 	move	v0,s0
   10728:	af806183 	ld	s1,24(sp)

000000000001072c <$LVL60>:
   1072c:	a7804183 	ld	s0,16(sp)
   10730:	f7808013 	add	sp,sp,32
   10734:	004000eb 	ret

0000000000010738 <lstat>:
   10738:	f7bf8013 	add	sp,sp,-32

000000000001073c <$LCFI6>:
   1073c:	07aa61a3 	sd	s1,24(sp)
   10740:	07a841a3 	sd	s0,16(sp)
   10744:	a9000013 	move	s1,a0
   10748:	a1400013 	move	s0,a1
   1074c:	078221a3 	sd	ra,8(sp)

0000000000010750 <$LM73>:
   10750:	0000fc6f 	jal	10b40 <strlen>

0000000000010754 <$LVL62>:
   10754:	28800413 	add	a1,v0,1

0000000000010758 <$LBB76>:
   10758:	25400013 	move	a0,s1

000000000001075c <$LM75>:
   1075c:	35000013 	move	a2,s0

0000000000010760 <$LM76>:
   10760:	38000013 	li	a3,0

0000000000010764 <$LM77>:
   10764:	10015013 	li	v0,84

0000000000010768 <$LM78>:
   10768:	00000077 	syscall

000000000001076c <$LM79>:
   1076c:	a8c00013 	move	s1,v1

0000000000010770 <$LM80>:
   10770:	a0800013 	move	s0,v0

0000000000010774 <$LBE78>:
   10774:	0000f06f 	jal	10b34 <__errno>

0000000000010778 <$LBE76>:
   10778:	0f802183 	ld	ra,8(sp)

000000000001077c <$LM83>:
   1077c:	a500009b 	sllw	s0,s0,0x0

0000000000010780 <$LBB80>:
   10780:	00aa0123 	sw	s1,0(v0)

0000000000010784 <$LBE80>:
   10784:	15000013 	move	v0,s0
   10788:	af806183 	ld	s1,24(sp)

000000000001078c <$LVL73>:
   1078c:	a7804183 	ld	s0,16(sp)
   10790:	f7808013 	add	sp,sp,32
   10794:	004000eb 	ret

0000000000010798 <close>:
   10798:	f7bf8013 	add	sp,sp,-32

000000000001079c <$LCFI7>:
   1079c:	07aa61a3 	sd	s1,24(sp)
   107a0:	07a841a3 	sd	s0,16(sp)
   107a4:	078221a3 	sd	ra,8(sp)

00000000000107a8 <$LBB86>:
   107a8:	28000013 	li	a1,0

00000000000107ac <$LM88>:
   107ac:	30000013 	li	a2,0

00000000000107b0 <$LM89>:
   107b0:	38000013 	li	a3,0

00000000000107b4 <$LM90>:
   107b4:	10001813 	li	v0,6

00000000000107b8 <$LM91>:
   107b8:	00000077 	syscall

00000000000107bc <$LM92>:
   107bc:	a8c00013 	move	s1,v1

00000000000107c0 <$LM93>:
   107c0:	a0800013 	move	s0,v0

00000000000107c4 <$LBE88>:
   107c4:	0000dc6f 	jal	10b34 <__errno>

00000000000107c8 <$LBE86>:
   107c8:	0f802183 	ld	ra,8(sp)

00000000000107cc <$LM96>:
   107cc:	a500009b 	sllw	s0,s0,0x0

00000000000107d0 <$LBB90>:
   107d0:	00aa0123 	sw	s1,0(v0)

00000000000107d4 <$LBE90>:
   107d4:	15000013 	move	v0,s0
   107d8:	af806183 	ld	s1,24(sp)

00000000000107dc <$LVL83>:
   107dc:	a7804183 	ld	s0,16(sp)
   107e0:	f7808013 	add	sp,sp,32
   107e4:	004000eb 	ret

00000000000107e8 <link>:
   107e8:	f7bf8013 	add	sp,sp,-32

00000000000107ec <$LCFI8>:
   107ec:	07a821a3 	sd	s0,8(sp)
   107f0:	a1400013 	move	s0,a1
   107f4:	07ac61a3 	sd	s2,24(sp)
   107f8:	07aa41a3 	sd	s1,16(sp)
   107fc:	b1000013 	move	s2,a0
   10800:	078201a3 	sd	ra,0(sp)

0000000000010804 <$LM100>:
   10804:	0000cf6f 	jal	10b40 <strlen>

0000000000010808 <$LVL85>:
   10808:	25000013 	move	a0,s0
   1080c:	a8800013 	move	s1,v0
   10810:	0000cc6f 	jal	10b40 <strlen>

0000000000010814 <$LVL86>:
   10814:	38800413 	add	a3,v0,1

0000000000010818 <$LBB96>:
   10818:	25800013 	move	a0,s2

000000000001081c <$LBE96>:
   1081c:	2d400413 	add	a1,s1,1

0000000000010820 <$LBB100>:
   10820:	35000013 	move	a2,s0

0000000000010824 <$LM104>:
   10824:	10002413 	li	v0,9

0000000000010828 <$LM105>:
   10828:	00000077 	syscall

000000000001082c <$LM106>:
   1082c:	a8c00013 	move	s1,v1

0000000000010830 <$LM107>:
   10830:	a0800013 	move	s0,v0

0000000000010834 <$LBE100>:
   10834:	0000c06f 	jal	10b34 <__errno>

0000000000010838 <$LBE102>:
   10838:	0f800183 	ld	ra,0(sp)

000000000001083c <$LM110>:
   1083c:	a500009b 	sllw	s0,s0,0x0

0000000000010840 <$LBB103>:
   10840:	00aa0123 	sw	s1,0(v0)

0000000000010844 <$LBE103>:
   10844:	b7806183 	ld	s2,24(sp)

0000000000010848 <$LVL97>:
   10848:	15000013 	move	v0,s0
   1084c:	af804183 	ld	s1,16(sp)

0000000000010850 <$LVL98>:
   10850:	a7802183 	ld	s0,8(sp)
   10854:	f7808013 	add	sp,sp,32
   10858:	004000eb 	ret

000000000001085c <unlink>:
   1085c:	f7bf8013 	add	sp,sp,-32

0000000000010860 <$LCFI9>:
   10860:	07a841a3 	sd	s0,16(sp)
   10864:	07aa61a3 	sd	s1,24(sp)
   10868:	a1000013 	move	s0,a0
   1086c:	078221a3 	sd	ra,8(sp)

0000000000010870 <$LM114>:
   10870:	0000b46f 	jal	10b40 <strlen>

0000000000010874 <$LVL100>:
   10874:	28800413 	add	a1,v0,1

0000000000010878 <$LBB110>:
   10878:	25000013 	move	a0,s0

000000000001087c <$LM116>:
   1087c:	30000013 	li	a2,0

0000000000010880 <$LM117>:
   10880:	38000013 	li	a3,0

0000000000010884 <$LM118>:
   10884:	10002813 	li	v0,10

0000000000010888 <$LM119>:
   10888:	00000077 	syscall

000000000001088c <$LM120>:
   1088c:	a8c00013 	move	s1,v1

0000000000010890 <$LM121>:
   10890:	a0800013 	move	s0,v0

0000000000010894 <$LBE112>:
   10894:	0000a86f 	jal	10b34 <__errno>

0000000000010898 <$LBE110>:
   10898:	0f802183 	ld	ra,8(sp)

000000000001089c <$LM124>:
   1089c:	a500009b 	sllw	s0,s0,0x0

00000000000108a0 <$LBB114>:
   108a0:	00aa0123 	sw	s1,0(v0)

00000000000108a4 <$LBE114>:
   108a4:	15000013 	move	v0,s0
   108a8:	af806183 	ld	s1,24(sp)

00000000000108ac <$LVL110>:
   108ac:	a7804183 	ld	s0,16(sp)
   108b0:	f7808013 	add	sp,sp,32
   108b4:	004000eb 	ret

00000000000108b8 <execve>:
   108b8:	f7bfc013 	add	sp,sp,-16

00000000000108bc <$LCFI10>:
   108bc:	078221a3 	sd	ra,8(sp)

00000000000108c0 <$LM128>:
   108c0:	00009d6f 	jal	10b34 <__errno>

00000000000108c4 <$LM129>:
   108c4:	0f802183 	ld	ra,8(sp)

00000000000108c8 <$LM130>:
   108c8:	18003013 	li	v1,12
   108cc:	00860123 	sw	v1,0(v0)

00000000000108d0 <$LM131>:
   108d0:	f7804013 	add	sp,sp,16
   108d4:	103ffc13 	li	v0,-1
   108d8:	004000eb 	ret

00000000000108dc <fork>:
   108dc:	f7bfc013 	add	sp,sp,-16

00000000000108e0 <$LCFI11>:
   108e0:	078221a3 	sd	ra,8(sp)

00000000000108e4 <$LM133>:
   108e4:	0000946f 	jal	10b34 <__errno>

00000000000108e8 <$LM134>:
   108e8:	0f802183 	ld	ra,8(sp)

00000000000108ec <$LM135>:
   108ec:	18002c13 	li	v1,11
   108f0:	00860123 	sw	v1,0(v0)

00000000000108f4 <$LM136>:
   108f4:	f7804013 	add	sp,sp,16
   108f8:	103ffc13 	li	v0,-1
   108fc:	004000eb 	ret

0000000000010900 <getpid>:
   10900:	10000413 	li	v0,1
   10904:	004000eb 	ret

0000000000010908 <kill>:
   10908:	f7bfc013 	add	sp,sp,-16

000000000001090c <$LCFI12>:
   1090c:	078221a3 	sd	ra,8(sp)

0000000000010910 <$LM140>:
   10910:	0000896f 	jal	10b34 <__errno>

0000000000010914 <$LM141>:
   10914:	0f802183 	ld	ra,8(sp)

0000000000010918 <$LM142>:
   10918:	18005813 	li	v1,22
   1091c:	00860123 	sw	v1,0(v0)

0000000000010920 <$LM143>:
   10920:	f7804013 	add	sp,sp,16
   10924:	103ffc13 	li	v0,-1
   10928:	004000eb 	ret

000000000001092c <wait>:
   1092c:	f7bfc013 	add	sp,sp,-16

0000000000010930 <$LCFI13>:
   10930:	078221a3 	sd	ra,8(sp)

0000000000010934 <$LM145>:
   10934:	0000806f 	jal	10b34 <__errno>

0000000000010938 <$LM146>:
   10938:	0f802183 	ld	ra,8(sp)

000000000001093c <$LM147>:
   1093c:	18002813 	li	v1,10
   10940:	00860123 	sw	v1,0(v0)

0000000000010944 <$LM148>:
   10944:	f7804013 	add	sp,sp,16
   10948:	103ffc13 	li	v0,-1
   1094c:	004000eb 	ret

0000000000010950 <isatty>:
   10950:	f7bd8013 	add	sp,sp,-160

0000000000010954 <$LCFI14>:
   10954:	2f800013 	move	a1,sp

0000000000010958 <$LM151>:
   10958:	0f8261a3 	sd	ra,152(sp)

000000000001095c <$LM152>:
   1095c:	ffff4c6f 	jal	1068c <fstat>

0000000000010960 <$LM153>:
   10960:	203ffc13 	li	a0,-1
   10964:	183ffc13 	li	v1,-1
   10968:	00882063 	beq	v0,a0,10978 <$L17>

000000000001096c <$LM154>:
   1096c:	1f803103 	lw	v1,12(sp)
   10970:	18c03693 	srl	v1,v1,0xd
   10974:	18c00793 	and	v1,v1,1

0000000000010978 <$L17>:
   10978:	0f826183 	ld	ra,152(sp)
   1097c:	10c00013 	move	v0,v1

0000000000010980 <$LVL119>:
   10980:	f7828013 	add	sp,sp,160
   10984:	004000eb 	ret

0000000000010988 <times>:
   10988:	100008b7 	lui	v0,0x11
   1098c:	18938183 	ld	v1,1248(v0)
   10990:	00c058e3 	bnez	v1,109bc <$L23>

0000000000010994 <$LBB116>:
   10994:	18938013 	add	v1,v0,1248
   10998:	488181a3 	sd	zero,1248(v0)
   1099c:	10000013 	li	v0,0

00000000000109a0 <$LBE116>:
   109a0:	010401a3 	sd	v0,0(a0)

00000000000109a4 <$LBB118>:
   109a4:	00c021a3 	sd	zero,8(v1)

00000000000109a8 <$LBE118>:
   109a8:	010041a3 	sd	zero,16(a0)
   109ac:	010061a3 	sd	zero,24(a0)
   109b0:	010021a3 	sd	zero,8(a0)

00000000000109b4 <$LM162>:
   109b4:	103ffc13 	li	v0,-1
   109b8:	004000eb 	ret

00000000000109bc <$L23>:
   109bc:	18070033 	neg	v1,v1
   109c0:	30c02093 	sll	a2,v1,0x8
   109c4:	28c00c93 	sll	a1,v1,0x3
   109c8:	298b0033 	sub	a1,a2,a1
   109cc:	31401893 	sll	a2,a1,0x6
   109d0:	10938013 	add	v0,v0,1248
   109d4:	298b0033 	sub	a1,a2,a1
   109d8:	30802183 	ld	a2,8(v0)
   109dc:	19460033 	add	v1,a1,v1
   109e0:	10c01893 	sll	v0,v1,0x6
   109e4:	108d0033 	sub	v0,v0,a2

00000000000109e8 <$LM164>:
   109e8:	010401a3 	sd	v0,0(a0)

00000000000109ec <$LM165>:
   109ec:	010041a3 	sd	zero,16(a0)
   109f0:	010061a3 	sd	zero,24(a0)
   109f4:	010021a3 	sd	zero,8(a0)

00000000000109f8 <$LM166>:
   109f8:	103ffc13 	li	v0,-1
   109fc:	004000eb 	ret

0000000000010a00 <gettimeofday>:
   10a00:	010021a3 	sd	zero,8(a0)
   10a04:	010001a3 	sd	zero,0(a0)

0000000000010a08 <$LM169>:
   10a08:	10000013 	li	v0,0
   10a0c:	004000eb 	ret

0000000000010a10 <ftime>:
   10a10:	010020a3 	sh	zero,8(a0)
   10a14:	010001a3 	sd	zero,0(a0)

0000000000010a18 <$LM172>:
   10a18:	10000013 	li	v0,0
   10a1c:	004000eb 	ret

0000000000010a20 <utime>:
   10a20:	103ffc13 	li	v0,-1
   10a24:	004000eb 	ret

0000000000010a28 <chown>:
   10a28:	103ffc13 	li	v0,-1
   10a2c:	004000eb 	ret

0000000000010a30 <chmod>:
   10a30:	103ffc13 	li	v0,-1
   10a34:	004000eb 	ret

0000000000010a38 <chdir>:
   10a38:	103ffc13 	li	v0,-1
   10a3c:	004000eb 	ret

0000000000010a40 <getcwd>:
   10a40:	10000013 	li	v0,0
   10a44:	004000eb 	ret

0000000000010a48 <sysconf>:
   10a48:	10000813 	li	v0,2
   10a4c:	01041863 	beq	a0,v0,10a58 <$L33>
   10a50:	103ffc13 	li	v0,-1
   10a54:	004000eb 	ret

0000000000010a58 <$L33>:
   10a58:	10007a37 	lui	v0,0xf4
   10a5c:	10890013 	add	v0,v0,576

0000000000010a60 <$LM185>:
   10a60:	004000eb 	ret

0000000000010a64 <sbrk>:
   10a64:	f7bf4013 	add	sp,sp,-48

0000000000010a68 <$LCFI15>:
   10a68:	07aa61a3 	sd	s1,24(sp)

0000000000010a6c <$LM187>:
   10a6c:	a80008b7 	lui	s1,0x11
   10a70:	1553c183 	ld	v0,1264(s1)

0000000000010a74 <$LM188>:
   10a74:	07aea1a3 	sd	s3,40(sp)
   10a78:	07ac81a3 	sd	s2,32(sp)
   10a7c:	07a841a3 	sd	s0,16(sp)
   10a80:	078221a3 	sd	ra,8(sp)

0000000000010a84 <$LM189>:
   10a84:	0080e063 	beqz	v0,10af4 <$L40>

0000000000010a88 <$L35>:
   10a88:	a0000013 	li	s0,0
   10a8c:	010058e3 	bnez	a0,10ab8 <$L41>

0000000000010a90 <$L36>:
   10a90:	10a80033 	add	v0,v0,s0
   10a94:	4d45c1a3 	sd	v0,1264(s1)

0000000000010a98 <$LM192>:
   10a98:	10a90033 	sub	v0,v0,s0

0000000000010a9c <$L37>:
   10a9c:	0f802183 	ld	ra,8(sp)
   10aa0:	bf80a183 	ld	s3,40(sp)
   10aa4:	b7808183 	ld	s2,32(sp)
   10aa8:	af806183 	ld	s1,24(sp)
   10aac:	a7804183 	ld	s0,16(sp)
   10ab0:	f780c013 	add	sp,sp,48
   10ab4:	004000eb 	ret

0000000000010ab8 <$L41>:
   10ab8:	a1000013 	move	s0,a0

0000000000010abc <$LBB124>:
   10abc:	28000013 	li	a1,0

0000000000010ac0 <$LBE124>:
   10ac0:	20880033 	add	a0,v0,a0

0000000000010ac4 <$LBB128>:
   10ac4:	30000013 	li	a2,0

0000000000010ac8 <$LM198>:
   10ac8:	38000013 	li	a3,0

0000000000010acc <$LM199>:
   10acc:	10004413 	li	v0,17

0000000000010ad0 <$LM200>:
   10ad0:	00000077 	syscall

0000000000010ad4 <$LM201>:
   10ad4:	b8c00013 	move	s3,v1

0000000000010ad8 <$LM202>:
   10ad8:	b0800013 	move	s2,v0

0000000000010adc <$LBE128>:
   10adc:	0000166f 	jal	10b34 <__errno>

0000000000010ae0 <$LVL144>:
   10ae0:	00ae0123 	sw	s3,0(v0)

0000000000010ae4 <$LBE130>:
   10ae4:	103ffc13 	li	v0,-1

0000000000010ae8 <$LM205>:
   10ae8:	fd8168e3 	bnez	s2,10a9c <$L37>

0000000000010aec <$LM206>:
   10aec:	1553c183 	ld	v0,1264(s1)
   10af0:	ffffe867 	j	10a90 <$L36>

0000000000010af4 <$L40>:
   10af4:	100008b7 	lui	v0,0x11
   10af8:	10957013 	add	v0,v0,1372
   10afc:	4d45c1a3 	sd	v0,1264(s1)
   10b00:	ffffe267 	j	10a88 <$L35>

0000000000010b04 <_exit>:
   10b04:	f7bf8013 	add	sp,sp,-32

0000000000010b08 <$LCFI16>:
   10b08:	078261a3 	sd	ra,24(sp)

0000000000010b0c <$LBB136>:
   10b0c:	28000013 	li	a1,0

0000000000010b10 <$LM210>:
   10b10:	30000013 	li	a2,0

0000000000010b14 <$LM211>:
   10b14:	38000013 	li	a3,0

0000000000010b18 <$LM212>:
   10b18:	10000413 	li	v0,1

0000000000010b1c <$LM213>:
   10b1c:	00000077 	syscall

0000000000010b20 <$LBE138>:
   10b20:	078601a3 	sd	v1,0(sp)
   10b24:	0000046f 	jal	10b34 <__errno>

0000000000010b28 <$LVL152>:
   10b28:	1f800183 	ld	v1,0(sp)
   10b2c:	00860123 	sw	v1,0(v0)

0000000000010b30 <$L43>:
   10b30:	00000067 	j	10b30 <$L43>

0000000000010b34 <__errno>:
   10b34:	100008b7 	lui	v0,0x11

0000000000010b38 <$LM3>:
   10b38:	10b58183 	ld	v0,-672(v0)
   10b3c:	004000eb 	ret

0000000000010b40 <strlen>:
   10b40:	11001f93 	and	v0,a0,7
   10b44:	19000013 	move	v1,a0
   10b48:	0080d0e3 	bnez	v0,10bb0 <$L5>

0000000000010b4c <$L3>:
   10b4c:	13fbfc37 	lui	v0,0x7f7f8
   10b50:	10bdfc13 	add	v0,v0,-129

0000000000010b54 <$LBE5>:
   10b54:	28c00183 	ld	a1,0(v1)

0000000000010b58 <$LBB7>:
   10b58:	30808093 	sll	a2,v0,0x20
   10b5c:	11840333 	or	v0,a2,v0

0000000000010b60 <$LBE7>:
   10b60:	308a03b3 	and	a2,v0,a1
   10b64:	31840033 	add	a2,a2,v0
   10b68:	288a0333 	or	a1,v0,a1
   10b6c:	294c0333 	or	a1,a1,a2
   10b70:	303ffc13 	li	a2,-1
   10b74:	014c48e3 	bne	a1,a2,10b98 <$L10>
   10b78:	383ffc13 	li	a3,-1

0000000000010b7c <$L8>:
   10b7c:	18c02013 	add	v1,v1,8

0000000000010b80 <$LM8>:
   10b80:	28c00183 	ld	a1,0(v1)
   10b84:	314403b3 	and	a2,a1,v0
   10b88:	31840033 	add	a2,a2,v0
   10b8c:	29440333 	or	a1,a1,v0
   10b90:	294c0333 	or	a1,a1,a2
   10b94:	f94fd063 	beq	a1,a3,10b7c <$L8>

0000000000010b98 <$L10>:
   10b98:	10c00003 	lb	v0,0(v1)
   10b9c:	18c00413 	add	v1,v1,1

0000000000010ba0 <$LVL7>:
   10ba0:	f881f0e3 	bnez	v0,10b98 <$L10>

0000000000010ba4 <$L4>:
   10ba4:	18c90033 	sub	v1,v1,a0

0000000000010ba8 <$LM11>:
   10ba8:	10fffc13 	add	v0,v1,-1
   10bac:	004000eb 	ret

0000000000010bb0 <$L5>:
   10bb0:	10c01f93 	and	v0,v1,7
   10bb4:	f8813063 	beqz	v0,10b4c <$L3>

0000000000010bb8 <$LBB9>:
   10bb8:	10c00003 	lb	v0,0(v1)

0000000000010bbc <$LM14>:
   10bbc:	18c00413 	add	v1,v1,1

0000000000010bc0 <$LM15>:
   10bc0:	f881e0e3 	bnez	v0,10bb0 <$L5>
   10bc4:	fffff867 	j	10ba4 <$L4>

0000000000010bc8 <main>:
   10bc8:	183ffc13 	li	v1,-1
   10bcc:	100008b7 	lui	v0,0x11
   10bd0:	f7bfc013 	add	sp,sp,-16
   10bd4:	200008b7 	lui	a0,0x11
   10bd8:	50876123 	sw	v1,1368(v0)
   10bdc:	078221a3 	sd	ra,8(sp)
   10be0:	19140013 	add	v1,a0,1280
   10be4:	103ffc13 	li	v0,-1
   10be8:	303fac13 	li	a2,-21

0000000000010bec <$L13>:
   10bec:	28bffc1b 	addw	a1,v0,-1
   10bf0:	00c41123 	sw	v0,4(v1)
   10bf4:	11400013 	move	v0,a1
   10bf8:	18c01013 	add	v1,v1,4
   10bfc:	f94de0e3 	bne	a1,a2,10bec <$L13>
   10c00:	21140013 	add	a0,a0,1280
   10c04:	fffd606f 	jal	10184 <BubbleSort>
   10c08:	0f802183 	ld	ra,8(sp)
   10c0c:	10000013 	li	v0,0
   10c10:	f7804013 	add	sp,sp,16
   10c14:	004000eb 	ret

Disassembly of section .init:

0000000000010c18 <_init>:
   10c18:	f7bf4013 	add	sp,sp,-48
   10c1c:	0782a1a3 	sd	ra,40(sp)
   10c20:	fffd316f 	jal	100e4 <frame_dummy>
   10c24:	fffd6e6f 	jal	101dc <__do_global_ctors_aux>
   10c28:	0f80a183 	ld	ra,40(sp)
   10c2c:	f780c013 	add	sp,sp,48
   10c30:	004000eb 	ret

Disassembly of section .fini:

0000000000010c34 <_fini>:
   10c34:	f7bf4013 	add	sp,sp,-48
   10c38:	0782a1a3 	sd	ra,40(sp)
   10c3c:	fffcfb6f 	jal	10028 <__do_global_dtors_aux>
   10c40:	0f80a183 	ld	ra,40(sp)
   10c44:	f780c013 	add	sp,sp,48
   10c48:	004000eb 	ret

Disassembly of section .rodata:

0000000000010c50 <rvc_rs1_regmap>:
   10c50:	03021514 	0x1514
   10c54:	07060504 	0x504

0000000000010c58 <rvc_rs2_regmap>:
   10c58:	03021514 	0x1514
   10c5c:	00060504 	0x504

0000000000010c60 <riscv_rm>:
   10c60:	00010cf8 	0xcf8
   10c64:	00000000 	unimp
   10c68:	00010d00 	0xd00
   10c6c:	00000000 	unimp
   10c70:	00010d08 	0xd08
   10c74:	00000000 	unimp
   10c78:	00010d10 	0xd10
   10c7c:	00000000 	unimp
   10c80:	00010d18 	0xd18
	...
   10c98:	00010d20 	0xd20
   10c9c:	00000000 	unimp

0000000000010ca0 <rvc_rs1_regmap>:
   10ca0:	03021514 	0x1514
   10ca4:	07060504 	0x504

0000000000010ca8 <rvc_rs2_regmap>:
   10ca8:	03021514 	0x1514
   10cac:	00060504 	0x504

0000000000010cb0 <riscv_rm>:
   10cb0:	00010cf8 	0xcf8
   10cb4:	00000000 	unimp
   10cb8:	00010d00 	0xd00
   10cbc:	00000000 	unimp
   10cc0:	00010d08 	0xd08
   10cc4:	00000000 	unimp
   10cc8:	00010d10 	0xd10
   10ccc:	00000000 	unimp
   10cd0:	00010d18 	0xd18
	...
   10ce8:	00010d20 	0xd20
   10cec:	00000000 	unimp

0000000000010cf0 <_global_impure_ptr>:
   10cf0:	00010d68 	0xd68
   10cf4:	00000000 	unimp

0000000000010cf8 <$LC0>:
   10cf8:	00656e72 	0x6e72
   10cfc:	00000000 	unimp

0000000000010d00 <$LC1>:
   10d00:	007a7472 	0x7472
   10d04:	00000000 	unimp

0000000000010d08 <$LC2>:
   10d08:	006e6472 	0x6472
   10d0c:	00000000 	unimp

0000000000010d10 <$LC3>:
   10d10:	00707572 	0x7572
   10d14:	00000000 	unimp

0000000000010d18 <$LC4>:
   10d18:	006d6d72 	0x6d72
   10d1c:	00000000 	unimp

0000000000010d20 <$LC5>:
   10d20:	006e7964 	0x7964
   10d24:	00000000 	unimp

0000000000010d28 <$LC0>:
   10d28:	00000043 	fmadd.s	ft0,ft0,ft0,ft0,rne
   10d2c:	00000000 	unimp

Disassembly of section .ctors:

0000000000010d30 <__CTOR_LIST__>:
   10d30:	ffffffff 	0xffffffff
   10d34:	ffffffff 	0xffffffff

0000000000010d38 <__CTOR_END__>:
	...

Disassembly of section .dtors:

0000000000010d40 <__DTOR_LIST__>:
   10d40:	ffffffff 	0xffffffff
   10d44:	ffffffff 	0xffffffff

0000000000010d48 <__DTOR_END__>:
	...

Disassembly of section .eh_frame:

0000000000010d50 <__EH_FRAME_BEGIN__>:
   10d50:	00000000 	unimp

Disassembly of section .jcr:

0000000000010d58 <__JCR_END__>:
	...

Disassembly of section .data:

0000000000010d60 <_impure_ptr>:
   10d60:	00010d68 	0xd68
   10d64:	00000000 	unimp

0000000000010d68 <impure_data>:
	...
   10d70:	000112a0 	0x12a0
   10d74:	00000000 	unimp
   10d78:	00011348 	0x1348
   10d7c:	00000000 	unimp
   10d80:	000113f0 	0x13f0
	...
   10db0:	00010d28 	0xd28
	...
   10e50:	00000001 	0x1
   10e54:	00000000 	unimp
   10e58:	abcd330e 	0x330e
   10e5c:	e66d1234 	0x1234
   10e60:	0005deec 	0xdeec
   10e64:	0000000b 	vlb	vzero,zero
	...

Disassembly of section .sdata:

0000000000011498 <__dso_handle>:
	...

Disassembly of section .bss:

00000000000114a0 <completed.2425>:
	...

00000000000114a8 <dtor_idx.2427>:
	...

00000000000114b0 <object.2440>:
	...

00000000000114e0 <t0.2037>:
	...

00000000000114f0 <heap_end.2075>:
	...

00000000000114f8 <Seed>:
	...

0000000000011500 <Array>:
	...

0000000000011558 <factor>:
   11558:	00000000 	unimp

Disassembly of section .MIPS.options:

0000000000000000 <.MIPS.options>:
   0:	00002801 	0x2801
   4:	00000000 	unimp
   8:	40000036 	0x36
	...
  28:	00002801 	0x2801
  2c:	00000000 	unimp
  30:	40000002 	0x2
	...
  50:	00002801 	0x2801
  54:	00000000 	unimp
  58:	40f8003e 	0x3e
	...
  78:	00002801 	0x2801
  7c:	00000000 	unimp
  80:	40000ffe 	0xffe
	...
  a0:	00002801 	0x2801
  a4:	00000000 	unimp
  a8:	4030000e 	0xe
	...
  c8:	00002801 	0x2801
  cc:	00000000 	unimp
  d0:	40000002 	0x2
	...
  f0:	00002801 	0x2801
  f4:	00000000 	unimp
  f8:	000000f0 	0xf0
	...
 118:	00002801 	0x2801
 11c:	00000000 	unimp
 120:	40100036 	0x36
	...
 140:	00002801 	0x2801
	...
 168:	00002801 	0x2801
 16c:	00000000 	unimp
 170:	407007fe 	0x7fe
	...
 190:	00002801 	0x2801
 194:	00000000 	unimp
 198:	6ff0003e 	0x3e
	...
 1b8:	00002801 	0x2801
 1bc:	00000000 	unimp
 1c0:	40f000fe 	0xfe
	...
 1e0:	00002801 	0x2801
 1e4:	00000000 	unimp
 1e8:	00000006 	0x6
	...
 208:	00002801 	0x2801
 20c:	00000000 	unimp
 210:	000000fe 	0xfe
	...

Disassembly of section .pdr:

0000000000000000 <.pdr>:
   0:	00010000 	unimp
	...
  20:	00010154 	0x154
	...
  38:	0000001e 	0x1e
  3c:	00000001 	0x1
  40:	00010184 	0x184
	...
  58:	0000001e 	0x1e
  5c:	00000001 	0x1
  60:	00010bc8 	0xbc8
  64:	00000002 	0x2
  68:	fffffff8 	0xfff8
	...
  74:	00000010 	0x10
  78:	0000001e 	0x1e
  7c:	00000001 	0x1
  80:	00010240 	0x240
	...
  98:	0000001e 	0x1e
  9c:	00000001 	0x1
  a0:	00010254 	0x254
  a4:	00100002 	0x2
  a8:	fffffff8 	0xfff8
	...
  b4:	00000010 	0x10
  b8:	0000001e 	0x1e
  bc:	00000001 	0x1
  c0:	00010288 	0x288
  c4:	00700002 	0x2
  c8:	fffffff8 	0xfff8
	...
  d4:	00000040 	0x40
  d8:	0000001e 	0x1e
  dc:	00000001 	0x1
  e0:	000103bc 	0x3bc
  e4:	2ff00002 	0x2
  e8:	fffffff8 	0xfff8
	...
  f4:	00000050 	0x50
  f8:	0000001e 	0x1e
  fc:	00000001 	0x1
 100:	0001054c 	0x54c
 104:	00700002 	0x2
 108:	fffffff8 	0xfff8
	...
 114:	00000020 	0x20
 118:	0000001e 	0x1e
 11c:	00000001 	0x1
 120:	000105b8 	0x5b8
 124:	00300002 	0x2
 128:	fffffff8 	0xfff8
	...
 134:	00000020 	0x20
 138:	0000001e 	0x1e
 13c:	00000001 	0x1
 140:	000105fc 	0x5fc
 144:	00300002 	0x2
 148:	fffffff8 	0xfff8
	...
 154:	00000020 	0x20
 158:	0000001e 	0x1e
 15c:	00000001 	0x1
 160:	00010644 	0x644
 164:	00300002 	0x2
 168:	fffffff8 	0xfff8
	...
 174:	00000020 	0x20
 178:	0000001e 	0x1e
 17c:	00000001 	0x1
 180:	0001068c 	0x68c
 184:	00300002 	0x2
 188:	fffffff8 	0xfff8
	...
 194:	00000020 	0x20
 198:	0000001e 	0x1e
 19c:	00000001 	0x1
 1a0:	000106d8 	0x6d8
 1a4:	00300002 	0x2
 1a8:	fffffff8 	0xfff8
	...
 1b4:	00000020 	0x20
 1b8:	0000001e 	0x1e
 1bc:	00000001 	0x1
 1c0:	00010738 	0x738
 1c4:	00300002 	0x2
 1c8:	fffffff8 	0xfff8
	...
 1d4:	00000020 	0x20
 1d8:	0000001e 	0x1e
 1dc:	00000001 	0x1
 1e0:	00010798 	0x798
 1e4:	00300002 	0x2
 1e8:	fffffff8 	0xfff8
	...
 1f4:	00000020 	0x20
 1f8:	0000001e 	0x1e
 1fc:	00000001 	0x1
 200:	000107e8 	0x7e8
 204:	00700002 	0x2
 208:	fffffff8 	0xfff8
	...
 214:	00000020 	0x20
 218:	0000001e 	0x1e
 21c:	00000001 	0x1
 220:	0001085c 	0x85c
 224:	00300002 	0x2
 228:	fffffff8 	0xfff8
	...
 234:	00000020 	0x20
 238:	0000001e 	0x1e
 23c:	00000001 	0x1
 240:	000108b8 	0x8b8
 244:	00000002 	0x2
 248:	fffffff8 	0xfff8
	...
 254:	00000010 	0x10
 258:	0000001e 	0x1e
 25c:	00000001 	0x1
 260:	000108dc 	0x8dc
 264:	00000002 	0x2
 268:	fffffff8 	0xfff8
	...
 274:	00000010 	0x10
 278:	0000001e 	0x1e
 27c:	00000001 	0x1
 280:	00010900 	0x900
	...
 298:	0000001e 	0x1e
 29c:	00000001 	0x1
 2a0:	00010908 	0x908
 2a4:	00000002 	0x2
 2a8:	fffffff8 	0xfff8
	...
 2b4:	00000010 	0x10
 2b8:	0000001e 	0x1e
 2bc:	00000001 	0x1
 2c0:	0001092c 	0x92c
 2c4:	00000002 	0x2
 2c8:	fffffff8 	0xfff8
	...
 2d4:	00000010 	0x10
 2d8:	0000001e 	0x1e
 2dc:	00000001 	0x1
 2e0:	00010950 	0x950
 2e4:	00000002 	0x2
 2e8:	fffffff8 	0xfff8
	...
 2f4:	000000a0 	0xa0
 2f8:	0000001e 	0x1e
 2fc:	00000001 	0x1
 300:	00010988 	0x988
	...
 318:	0000001e 	0x1e
 31c:	00000001 	0x1
 320:	00010a00 	0xa00
	...
 338:	0000001e 	0x1e
 33c:	00000001 	0x1
 340:	00010a10 	0xa10
	...
 358:	0000001e 	0x1e
 35c:	00000001 	0x1
 360:	00010a20 	0xa20
	...
 378:	0000001e 	0x1e
 37c:	00000001 	0x1
 380:	00010a28 	0xa28
	...
 398:	0000001e 	0x1e
 39c:	00000001 	0x1
 3a0:	00010a30 	0xa30
	...
 3b8:	0000001e 	0x1e
 3bc:	00000001 	0x1
 3c0:	00010a38 	0xa38
	...
 3d8:	0000001e 	0x1e
 3dc:	00000001 	0x1
 3e0:	00010a40 	0xa40
	...
 3f8:	0000001e 	0x1e
 3fc:	00000001 	0x1
 400:	00010a48 	0xa48
	...
 418:	0000001e 	0x1e
 41c:	00000001 	0x1
 420:	00010a64 	0xa64
 424:	00f00002 	0x2
 428:	fffffff8 	0xfff8
	...
 434:	00000030 	0x30
 438:	0000001e 	0x1e
 43c:	00000001 	0x1
 440:	00010b04 	0xb04
 444:	00000002 	0x2
 448:	fffffff8 	0xfff8
	...
 454:	00000020 	0x20
 458:	0000001e 	0x1e
 45c:	00000001 	0x1
 460:	00010b34 	0xb34
	...
 478:	0000001e 	0x1e
 47c:	00000001 	0x1
 480:	00010b40 	0xb40
	...
 498:	0000001e 	0x1e
 49c:	00000001 	0x1

Disassembly of section .comment:

0000000000000000 <.comment>:
   0:	3a434347 	0x3a434347
   4:	4e472820 	0x2820
   8:	34202955 	0x2955
   c:	312e362e 	0x362e
	...

Disassembly of section .debug_info:

0000000000000000 <$Ldebug_info0>:
       0:	000000cd 	0xcd
       4:	00000002 	0x2
       8:	01080000 	unimp
       c:	000000c9 	0xc9
      10:	0000f401 	0xf401
      14:	00003000 	0x3000
      18:	01024000 	0x4000
      1c:	00000000 	unimp
      20:	01025400 	0x5400
	...
      2c:	07080200 	0x200
      30:	0000009d 	0x9d
      34:	69050403 	lb	t1,321(a0)
      38:	0200746e 	0x746e
      3c:	00b10601 	0x601
      40:	01020000 	unimp
      44:	0000af08 	0xaf08
      48:	05020200 	0x200
      4c:	000000ea 	0xea
      50:	0e070202 	0x202
      54:	02000000 	unimp
      58:	00a20704 	0x704
      5c:	08020000 	unimp
      60:	00000505 	0x505
      64:	07080200 	0x200
      68:	00000098 	0x98
      6c:	00050802 	0x802
      70:	04000000 	unimp
      74:	73080501 	0x501
      78:	02000000 	unimp
      7c:	00b80601 	0x601
      80:	21060000 	unimp
      84:	04000000 	unimp
      88:	00a10502 	0x502
      8c:	bd070000 	unimp
      90:	00000000 	unimp
      94:	0000d507 	flw	ft0,53(zero)
      98:	e1070100 	0x100
      9c:	02000000 	unimp
      a0:	c2010800 	0x800
      a4:	03000000 	unimp
      a8:	00340140 	0x140
      ac:	02400000 	unimp
      b0:	00000001 	0x1
      b4:	02540000 	unimp
      b8:	00000001 	0x1
      bc:	8e020000 	unimp
      c0:	6e660900 	0x900
      c4:	753d0100 	0x100
	...

00000000000000d1 <$Ldebug_info0>:
      d1:	0000098d 	0x98d
      d5:	00780002 	0x2
      d9:	01080000 	unimp
      dd:	000000c9 	0xc9
      e1:	00017301 	0x7301
      e5:	00003000 	0x3000
      e9:	01025400 	0x5400
      ed:	00000000 	unimp
      f1:	01028800 	0x8800
      f5:	00000000 	unimp
      f9:	0000fe00 	0xfe00
      fd:	07080200 	0x200
     101:	0000009d 	0x9d
     105:	69050403 	lb	t1,321(a0)
     109:	0200746e 	0x746e
     10d:	00b10601 	0x601
     111:	01020000 	unimp
     115:	0000af08 	0xaf08
     119:	05020200 	0x200
     11d:	000000ea 	0xea
     121:	0e070202 	0x202
     125:	02000000 	unimp
     129:	00a20704 	0x704
     12d:	08020000 	unimp
     131:	00000505 	0x505
     135:	07080200 	0x200
     139:	00000098 	0x98
     13d:	00040e04 	0xe04
     141:	651e0200 	0x200
     145:	02000000 	unimp
     149:	00000508 	0x508
     14d:	4d040000 	unimp
     151:	03000003 	lb	zero,0(t0)
     155:	00003407 	0x3407
     159:	02f30500 	0x500
     15d:	61040000 	unimp
     161:	00005701 	0x5701
     165:	05040600 	0x600
     169:	0000b446 	0xb446
     16d:	02ed0700 	0x700
     171:	48050000 	unimp
     175:	00000089 	0x89
     179:	00029f07 	0x29f07
     17d:	b4490500 	0x500
     181:	00000000 	unimp
     185:	00004208 	0x4208
     189:	0000c400 	0xc400
     18d:	002d0900 	0x900
     191:	00030000 	unimp
     195:	4305080a 	0x80a
     199:	000000e9 	0xe9
     19d:	0003f80b 	vlsegstb	vzero,zero,ra,32
     1a1:	34450500 	0x500
     1a5:	02000000 	unimp
     1a9:	000b0023 	sb	a1,64(zero)
     1ad:	05000004 	0x4
     1b1:	0000954a 	0x954a
     1b5:	04230200 	0x200
     1b9:	038b0400 	0x400
     1bd:	4b050000 	unimp
     1c1:	000000c4 	0xc4
     1c5:	00027104 	0x7104
     1c9:	7e4f0500 	0x500
     1cd:	0c000000 	unimp
     1d1:	04400408 	0x408
     1d5:	18060000 	unimp
     1d9:	00000057 	0x57
     1dd:	0002820d 	0x820d
     1e1:	2c062000 	0x2000
     1e5:	0000016b 	jr	zero
     1e9:	0003ac0b 	0x3ac0b
     1ed:	6b2e0600 	0x600
     1f1:	02000001 	0x1
     1f5:	5f0e0023 	sb	a3,1408(s8)
     1f9:	2f06006b 	jalr	a1,s8,384
     1fd:	00000034 	0x34
     201:	0b082302 	0x2302
     205:	000003e3 	bleu	zero,zero,205 <$LASF117+0x1>
     209:	00342f06 	0x2f06
     20d:	23020000 	unimp
     211:	026b0b0c 	0xb0c
     215:	2f060000 	unimp
     219:	00000034 	0x34
     21d:	0b102302 	0x2302
     221:	0000048c 	0x48c
     225:	00342f06 	0x2f06
     229:	23020000 	unimp
     22d:	785f0e14 	0xe14
     231:	71300600 	0x600
     235:	02000001 	0x1
     239:	0f001823 	sb	zero,134(s8)
     23d:	00010c08 	0xc08
     241:	01010800 	0x800
     245:	01810000 	unimp
     249:	2d090000 	unimp
     24d:	00000000 	unimp
     251:	029a0d00 	0xd00
     255:	06240000 	unimp
     259:	00020c34 	0xc34
     25d:	01d70b00 	0xb00
     261:	36060000 	unimp
     265:	00000034 	0x34
     269:	0b002302 	0x2302
     26d:	00000416 	0x416
     271:	00343706 	0x3706
     275:	23020000 	unimp
     279:	01ec0b04 	0xb04
     27d:	38060000 	unimp
     281:	00000034 	0x34
     285:	0b082302 	0x2302
     289:	00000505 	0x505
     28d:	00343906 	0x3906
     291:	23020000 	unimp
     295:	03200b0c 	0xb0c
     299:	3a060000 	unimp
     29d:	00000034 	0x34
     2a1:	0b102302 	0x2302
     2a5:	0000030f 	0x30f
     2a9:	00343b06 	0x3b06
     2ad:	23020000 	unimp
     2b1:	04910b14 	0xb14
     2b5:	3c060000 	unimp
     2b9:	00000034 	0x34
     2bd:	0b182302 	0x2302
     2c1:	0000036d 	0x36d
     2c5:	00343d06 	0x3d06
     2c9:	23020000 	unimp
     2cd:	04cc0b1c 	0xb1c
     2d1:	3e060000 	unimp
     2d5:	00000034 	0x34
     2d9:	00202302 	0x2302
     2dd:	0001fb10 	0xfb10
     2e1:	06020800 	0x800
     2e5:	00025547 	0x25547
     2e9:	025e0b00 	0xb00
     2ed:	48060000 	unimp
     2f1:	00000255 	0x255
     2f5:	0b002302 	0x2302
     2f9:	00000134 	0x134
     2fd:	02554906 	0x4906
     301:	23030000 	unimp
     305:	320b0280 	0x280
     309:	06000004 	0x4
     30d:	0001014b 	0x1014b
     311:	80230300 	0x300
     315:	02200b04 	0xb04
     319:	4e060000 	unimp
     31d:	00000101 	0x101
     321:	04842303 	lwu	zero,264(t6)
     325:	00ff0800 	0x800
     329:	02650000 	unimp
     32d:	2d090000 	unimp
     331:	1f000000 	unimp
     335:	00c11000 	0x1000
     339:	03180000 	unimp
     33d:	02ac5906 	0x5906
     341:	ac0b0000 	unimp
     345:	06000003 	lb	zero,0(s4)
     349:	0002ac5a 	0xac5a
     34d:	00230200 	0x200
     351:	0003c40b 	0x3c40b
     355:	345b0600 	0x600
     359:	02000000 	unimp
     35d:	660b0823 	sb	a1,1602(s4)
     361:	06000002 	0x2
     365:	0002b25d 	0xb25d
     369:	10230200 	0x200
     36d:	0001fb0b 	vlsegstwu	vzero,zero,zero,32
     371:	0c5e0600 	0x600
     375:	03000002 	0x2
     379:	00029023 	sb	ra,36(zero)
     37d:	0265080f 	vssegstb	vzero,a5,t6,17
     381:	c4080000 	unimp
     385:	c2000002 	0x2
     389:	09000002 	0x2
     38d:	0000002d 	0x2d
     391:	0111001f 	0x111001f
     395:	02c2080f 	vssegstb	vzero,a7,ra,1
     399:	770d0000 	unimp
     39d:	10000003 	lb	v0,0(zero)
     3a1:	02f36906 	0x6906
     3a5:	e60b0000 	unimp
     3a9:	06000001 	0x1
     3ad:	0002f36a 	0xf36a
     3b1:	00230200 	0x200
     3b5:	0007ba0b 	vlsegstbu	vzero,zero,v1,28
     3b9:	346b0600 	0x600
     3bd:	02000000 	unimp
     3c1:	0f000823 	sb	zero,130(s8)
     3c5:	00004208 	0x4208
     3c9:	03960d00 	0xd00
     3cd:	06a80000 	unimp
     3d1:	000459a9 	0x59a9
     3d5:	705f0e00 	0xe00
     3d9:	f3aa0600 	0x600
     3dd:	02000002 	0x2
     3e1:	5f0e0023 	sb	a3,1408(s8)
     3e5:	ab060072 	0x72
     3e9:	00000034 	0x34
     3ed:	0e082302 	0x2302
     3f1:	0600775f 	0x600775f
     3f5:	000034ac 	0x34ac
     3f9:	0c230200 	0x200
     3fd:	0002190b 	vlsegstw	vzero,zero,ra,2
     401:	49ad0600 	0x600
     405:	02000000 	unimp
     409:	b60b1023 	sb	a1,-1212(s4)
     40d:	06000002 	0x2
     411:	000049ae 	0x49ae
     415:	12230200 	0x200
     419:	66625f0e 	0x5f0e
     41d:	caaf0600 	0x600
     421:	02000002 	0x2
     425:	b10b1823 	sb	a1,-1210(a0)
     429:	06000001 	0x1
     42d:	000034b0 	0x34b0
     431:	28230200 	0x200
     435:	0002090b 	vlsegstw	vzero,zero,ra,1
     439:	ffb70600 	0x600
     43d:	02000000 	unimp
     441:	8a0b3023 	sb	a1,-1844(a4)
     445:	06000002 	0x2
     449:	0005ecb9 	0xecb9
     44d:	38230200 	0x200
     451:	0003080b 	vlsegstb	vzero,zero,ra,17
     455:	1cbb0600 	0x600
     459:	02000006 	0x6
     45d:	080b4023 	sb	a1,208(zero)
     461:	06000004 	0x4
     465:	000641bd 	0x41bd
     469:	48230200 	0x200
     46d:	0004e60b 	0x4e60b
     471:	5cbe0600 	0x600
     475:	02000006 	0x6
     479:	5f0e5023 	sb	a3,1428(s8)
     47d:	06006275 	0x6275
     481:	0002cac1 	0xcac1
     485:	58230200 	0x200
     489:	70755f0e 	0x5f0e
     48d:	f3c20600 	0x600
     491:	02000002 	0x2
     495:	5f0e6823 	sb	a3,1434(s8)
     499:	06007275 	0x7275
     49d:	000034c3 	fmadd.d	ft0,ft0,ft0,fv1,rdn
     4a1:	70230200 	0x200
     4a5:	0001e00b 	0x1e00b
     4a9:	62c60600 	0x600
     4ad:	02000006 	0x6
     4b1:	be0b7423 	sb	a1,-1059(s4)
     4b5:	06000004 	0x4
     4b9:	000672c7 	fmsub.d	ft0,ft0,fv1,fa3,rtz
     4bd:	77230200 	0x200
     4c1:	626c5f0e 	0x5f0e
     4c5:	caca0600 	0x600
     4c9:	02000002 	0x2
     4cd:	2e0b7823 	sb	a1,734(s4)
     4d1:	06000008 	0x8
     4d5:	000034cd 	0x34cd
     4d9:	88230300 	0x300
     4dd:	02370b01 	0xb01
     4e1:	ce060000 	unimp
     4e5:	00000034 	0x34
     4e9:	018c2303 	lwu	zero,776(a2)
     4ed:	0005150b 	0x5150b
     4f1:	78d10600 	0x600
     4f5:	03000004 	0x4
     4f9:	0b019023 	sb	zero,228(t0)
     4fd:	000002fa 	0x2fa
     501:	00f4d506 	0xd506
     505:	23030000 	unimp
     509:	9e0b0198 	0x198
     50d:	06000003 	lb	zero,0(s4)
     511:	0000e9d7 	0xe9d7
     515:	9c230300 	0x300
     519:	03000b01 	0xb01
     51d:	d8060000 	unimp
     521:	00000034 	0x34
     525:	01a42303 	lwu	zero,-1784(a2)
     529:	34011200 	0x1200
     52d:	78000000 	unimp
     531:	13000004 	0x4
     535:	00000478 	0x478
     539:	0000ff13 	or	zero,zero,63
     53d:	05df1300 	0x1300
     541:	34130000 	unimp
     545:	00000000 	unimp
     549:	047e080f 	vssegstb	vzero,t5,tp,1
     54d:	eb140000 	unimp
     551:	30000003 	lb	a2,0(zero)
     555:	02430607 	0x2430607
     559:	000005df 	0x5df
     55d:	00098f15 	0x8f15
     561:	02450600 	0x600
     565:	00000034 	0x34
     569:	15002302 	0x2302
     56d:	00000228 	0x228
     571:	cf024a06 	0x4a06
     575:	02000006 	0x6
     579:	a6150823 	sb	a6,-1470(s4)
     57d:	06000002 	0x2
     581:	06cf024a 	0x24a
     585:	23020000 	unimp
     589:	027a1510 	0x1510
     58d:	4a060000 	unimp
     591:	0006cf02 	0xcf02
     595:	18230200 	0x200
     599:	0003bf15 	0xbf15
     59d:	024c0600 	0x600
     5a1:	00000034 	0x34
     5a5:	15202302 	0x2302
     5a9:	00000148 	0x148
     5ad:	ee024d06 	0x4d06
     5b1:	02000008 	0x8
     5b5:	68152423 	sb	a6,1737(zero)
     5b9:	06000004 	0x4
     5bd:	0034024f 	fnmadd.s	ft0,ft0,fs6,ft0,rtz
     5c1:	23020000 	unimp
     5c5:	03c91540 	0x1540
     5c9:	50060000 	unimp
     5cd:	00061102 	0x1102
     5d1:	48230200 	0x200
     5d5:	00032915 	0x2915
     5d9:	02520600 	0x600
     5dd:	00000034 	0x34
     5e1:	15502302 	0x2302
     5e5:	000003d9 	0x3d9
     5e9:	0a025406 	0x5406
     5ed:	02000009 	0x9
     5f1:	e5155823 	sb	a6,-426(s0)
     5f5:	06000002 	0x2
     5f9:	016b0257 	0x16b0257
     5fd:	23020000 	unimp
     601:	02901560 	0x1560
     605:	58060000 	unimp
     609:	00003402 	0x3402
     60d:	68230200 	0x200
     611:	00050015 	0x15
     615:	02590600 	0x600
     619:	0000016b 	jr	zero
     61d:	15702302 	0x2302
     621:	00000343 	0x343
     625:	10025a06 	0x5a06
     629:	02000009 	0x9
     62d:	ae157823 	sb	a6,-1314(s4)
     631:	06000002 	0x2
     635:	0034025d 	0x25d
     639:	23030000 	unimp
     63d:	2f150180 	0x180
     641:	06000002 	0x2
     645:	05df025e 	0x25e
     649:	23030000 	unimp
     64d:	5f150188 	0x188
     651:	06000003 	lb	zero,0(s4)
     655:	08cb0281 	0x281
     659:	23030000 	unimp
     65d:	c1150190 	0x190
     661:	06000000 	unimp
     665:	02ac0284 	0x284
     669:	23030000 	unimp
     66d:	c31503f8 	0x3f8
     671:	06000002 	0x2
     675:	02650285 	0x285
     679:	23030000 	unimp
     67d:	b4150480 	0x480
     681:	06000004 	0x4
     685:	09220288 	0x288
     689:	23030000 	unimp
     68d:	11150a98 	0xa98
     691:	06000002 	0x2
     695:	068e028d 	0x28d
     699:	23030000 	unimp
     69d:	f6150aa0 	0xaa0
     6a1:	06000001 	0x1
     6a5:	092e028e 	0x28e
     6a9:	23030000 	unimp
     6ad:	0f000ab8 	0xab8
     6b1:	0005e508 	0xe508
     6b5:	06010200 	0x200
     6b9:	000000b8 	0xb8
     6bd:	0459080f 	vssegstb	vzero,t5,t0,17
     6c1:	01120000 	unimp
     6c5:	00000034 	0x34
     6c9:	00000611 	0x611
     6cd:	00047813 	li	zero,286
     6d1:	00ff1300 	0x1300
     6d5:	11130000 	unimp
     6d9:	13000006 	0x6
     6dd:	00000034 	0x34
     6e1:	17080f00 	0xf00
     6e5:	16000006 	0x6
     6e9:	000005e5 	0x5e5
     6ed:	05f2080f 	vssegstb	vzero,s3,s5,1
     6f1:	01120000 	unimp
     6f5:	0000006c 	0x6c
     6f9:	00000641 	0x641
     6fd:	00047813 	li	zero,286
     701:	00ff1300 	0x1300
     705:	6c130000 	unimp
     709:	13000000 	unimp
     70d:	00000034 	0x34
     711:	22080f00 	0xf00
     715:	12000006 	0x6
     719:	00003401 	0x3401
     71d:	00065c00 	0x5c00
     721:	04781300 	0x1300
     725:	ff130000 	unimp
     729:	00000000 	unimp
     72d:	0647080f 	vssegstb	vzero,s5,v1,17
     731:	42080000 	unimp
     735:	72000000 	unimp
     739:	09000006 	0x6
     73d:	0000002d 	0x2d
     741:	42080002 	0x2
     745:	82000000 	unimp
     749:	09000006 	0x6
     74d:	0000002d 	0x2d
     751:	84050000 	unimp
     755:	06000003 	lb	zero,0(s4)
     759:	02f90111 	0x111
     75d:	9b170000 	unimp
     761:	18000004 	0x4
     765:	c9011506 	0x1506
     769:	15000006 	0x6
     76d:	000003ac 	0x3ac
     771:	c9011706 	0x1706
     775:	02000006 	0x6
     779:	bc150023 	sb	a6,-1088(t4)
     77d:	06000002 	0x2
     781:	00340118 	0x118
     785:	23020000 	unimp
     789:	037e1508 	0x1508
     78d:	19060000 	unimp
     791:	0006cf01 	0xcf01
     795:	10230200 	0x200
     799:	8e080f00 	0xf00
     79d:	0f000006 	0x6
     7a1:	00068208 	0x8208
     7a5:	01401700 	0x1700
     7a9:	060e0000 	unimp
     7ad:	07100131 	0x131
     7b1:	f2150000 	unimp
     7b5:	06000003 	lb	zero,0(s4)
     7b9:	07100132 	0x132
     7bd:	23020000 	unimp
     7c1:	041f1500 	0x1500
     7c5:	33060000 	unimp
     7c9:	00071001 	0x1001
     7cd:	06230200 	0x200
     7d1:	00043b15 	0x3b15
     7d5:	01340600 	0x600
     7d9:	00000050 	0x50
     7dd:	000c2302 	0x2302
     7e1:	00005008 	0x5008
     7e5:	00072000 	0x2000
     7e9:	002d0900 	0x900
     7ed:	00020000 	unimp
     7f1:	6206d818 	0xd818
     7f5:	00085102 	0x5102
     7f9:	047f1500 	0x1500
     7fd:	64060000 	unimp
     801:	00005702 	0x5702
     805:	00230200 	0x200
     809:	00042515 	0x2515
     80d:	02650600 	0x600
     811:	000005df 	0x5df
     815:	15082302 	0x2302
     819:	000002d8 	0x2d8
     81d:	51026606 	0x6606
     821:	02000008 	0x8
     825:	d7151023 	sb	a6,-700(s8)
     829:	06000004 	0x4
     82d:	01810267 	j	60c35 <_end+0x4f6d9>
     831:	23020000 	unimp
     835:	0334152c 	0x152c
     839:	68060000 	unimp
     83d:	00003402 	0x3402
     841:	50230200 	0x200
     845:	0003a715 	0xa715
     849:	02690600 	0x600
     84d:	00000065 	0x65
     851:	15582302 	0x2302
     855:	000004ed 	0x4ed
     859:	d5026a06 	0x6a06
     85d:	02000006 	0x6
     861:	b2156023 	sb	a6,-1192(a4)
     865:	06000003 	lb	zero,0(s4)
     869:	00e9026b 	0xe9026b
     86d:	23020000 	unimp
     871:	04f21570 	0x1570
     875:	6c060000 	unimp
     879:	0000e902 	0xe902
     87d:	78230200 	0x200
     881:	0001c915 	0xc915
     885:	026d0600 	0x600
     889:	000000e9 	0xe9
     88d:	01802303 	lwu	zero,8(a2)
     891:	0004aa15 	0xaa15
     895:	026e0600 	0x600
     899:	00000861 	0x861
     89d:	01882303 	lwu	zero,520(a2)
     8a1:	0002cc15 	0xcc15
     8a5:	026f0600 	0x600
     8a9:	00000871 	0x871
     8ad:	01902303 	lwu	zero,1032(a2)
     8b1:	00044815 	0x4815
     8b5:	02700600 	0x600
     8b9:	00000034 	0x34
     8bd:	01a82303 	lwu	zero,-1528(a2)
     8c1:	00025015 	0x5015
     8c5:	02710600 	0x600
     8c9:	000000e9 	0xe9
     8cd:	01ac2303 	lwu	zero,-1272(a2)
     8d1:	0001ba15 	0xba15
     8d5:	02720600 	0x600
     8d9:	000000e9 	0xe9
     8dd:	01b42303 	lwu	zero,-760(a2)
     8e1:	00023f15 	0x3f15
     8e5:	02730600 	0x600
     8e9:	000000e9 	0xe9
     8ed:	01bc2303 	lwu	zero,-248(a2)
     8f1:	00015315 	0x5315
     8f5:	02740600 	0x600
     8f9:	000000e9 	0xe9
     8fd:	01c42303 	lwu	zero,264(a3)
     901:	00016215 	0x6215
     905:	02750600 	0x600
     909:	000000e9 	0xe9
     90d:	01cc2303 	lwu	zero,776(a3)
     911:	00036415 	0x6415
     915:	02760600 	0x600
     919:	00000034 	0x34
     91d:	01d42303 	lwu	zero,1288(a3)
     921:	05e50800 	0x800
     925:	08610000 	unimp
     929:	2d090000 	unimp
     92d:	19000000 	unimp
     931:	05e50800 	0x800
     935:	08710000 	unimp
     939:	2d090000 	unimp
     93d:	07000000 	unimp
     941:	05e50800 	0x800
     945:	08810000 	unimp
     949:	2d090000 	unimp
     94d:	17000000 	unimp
     951:	01681900 	0x1900
     955:	ab027b06 	0x7b06
     959:	15000008 	0x8
     95d:	00000319 	0x319
     961:	ab027e06 	0x7e06
     965:	02000008 	0x8
     969:	a1150023 	sb	a6,-1472(a0)
     96d:	06000004 	0x4
     971:	08bb027f 	0x8bb027f
     975:	23030000 	unimp
     979:	080001f0 	0x1f0
     97d:	000002f3 	vsetvl	zero,zero
     981:	000008bb 	0x8bb
     985:	00002d09 	0x2d09
     989:	08001d00 	0x1d00
     98d:	00000057 	0x57
     991:	000008cb 	fnmsub.d	ft0,ft0,ft0,ft0,rmm
     995:	00002d09 	0x2d09
     999:	1a001d00 	0x1d00
     99d:	60060168 	0x168
     9a1:	0008ee02 	0xee02
     9a5:	03eb1b00 	0x1b00
     9a9:	77060000 	unimp
     9ad:	00072002 	0x2002
     9b1:	04c41b00 	0x1b00
     9b5:	80060000 	unimp
     9b9:	00088102 	0x8102
     9bd:	e5080000 	unimp
     9c1:	fe000005 	0x5
     9c5:	09000008 	0x8
     9c9:	0000002d 	0x2d
     9cd:	011c0018 	0x18
     9d1:	0000090a 	0x90a
     9d5:	00047813 	li	zero,286
     9d9:	080f0000 	unimp
     9dd:	000008fe 	0x8fe
     9e1:	016b080f 	vssegstb	vzero,a1,s1,17
     9e5:	011c0000 	unimp
     9e9:	00000922 	0x922
     9ed:	00003413 	li	zero,13
     9f1:	080f0000 	unimp
     9f5:	00000928 	0x928
     9f9:	0916080f 	vssegstb	vra,a0,a7,1
     9fd:	82080000 	unimp
     a01:	3e000006 	0x6
     a05:	09000009 	0x9
     a09:	0000002d 	0x2d
     a0d:	011d0002 	0x2
     a11:	000006d4 	0x6d4
     a15:	54015007 	0x54015007
     a19:	00000102 	0x102
     a1d:	88000000 	unimp
     a21:	00000102 	0x102
     a25:	36000000 	unimp
     a29:	6f000000 	unimp
     a2d:	1e000009 	0x9
     a31:	0000047a 	0x47a
     a35:	00343a01 	0x3a01
     a39:	006e0000 	unimp
     a3d:	1f000000 	unimp
     a41:	00000455 	0x455
     a45:	7d033206 	0x3206
     a49:	01000009 	0x9
     a4d:	04781601 	0x1601
     a51:	551f0000 	unimp
     a55:	06000004 	0x4
     a59:	097d0332 	0x332
     a5d:	01010000 	unimp
	...

0000000000000a62 <$Ldebug_info0>:
     a62:	00000983 	ld	zero,2(zero)
     a66:	02020002 	0x2
     a6a:	01080000 	unimp
     a6e:	000000c9 	0xc9
     a72:	00058201 	0x8201
     a76:	00051b00 	0x1b00
     a7a:	01028800 	0x8800
     a7e:	00000000 	unimp
     a82:	01028800 	0x8800
     a86:	00000000 	unimp
     a8a:	0003ac00 	0xac00
     a8e:	06010200 	0x200
     a92:	000000b1 	0xb1
     a96:	af080102 	0x102
     a9a:	02000000 	unimp
     a9e:	00ea0502 	0x502
     aa2:	02020000 	unimp
     aa6:	00000e07 	0xe07
     aaa:	05040300 	0x300
     aae:	00746e69 	0x6e69
     ab2:	a2070402 	0x402
     ab6:	02000000 	unimp
     aba:	00050508 	0x508
     abe:	08020000 	unimp
     ac2:	00009d07 	flw	ft0,39(zero)
     ac6:	07080200 	0x200
     aca:	00000098 	0x98
     ace:	00040e04 	0xe04
     ad2:	651e0100 	0x100
     ad6:	02000000 	unimp
     ada:	00000508 	0x508
     ade:	4d040000 	unimp
     ae2:	02000003 	lb	zero,0(a4)
     ae6:	00004907 	flw	ft0,18(zero)
     aea:	02f30500 	0x500
     aee:	61030000 	unimp
     af2:	00005001 	0x5001
     af6:	04040600 	0x600
     afa:	0000b446 	0xb446
     afe:	02ed0700 	0x700
     b02:	48040000 	unimp
     b06:	00000089 	0x89
     b0a:	00029f07 	0x29f07
     b0e:	b4490400 	0x400
     b12:	00000000 	unimp
     b16:	00003408 	0x3408
     b1a:	0000c400 	0xc400
     b1e:	005e0900 	0x900
     b22:	00030000 	unimp
     b26:	4304080a 	0x80a
     b2a:	000000e9 	0xe9
     b2e:	0003f80b 	vlsegstb	vzero,zero,ra,32
     b32:	49450400 	0x400
     b36:	02000000 	unimp
     b3a:	000b0023 	sb	a1,64(zero)
     b3e:	04000004 	0x4
     b42:	0000954a 	0x954a
     b46:	04230200 	0x200
     b4a:	038b0400 	0x400
     b4e:	4b040000 	unimp
     b52:	000000c4 	0xc4
     b56:	00027104 	0x7104
     b5a:	7e4f0400 	0x400
     b5e:	0c000000 	unimp
     b62:	04400408 	0x408
     b66:	18050000 	unimp
     b6a:	00000050 	0x50
     b6e:	0002820d 	0x820d
     b72:	2c052000 	0x2000
     b76:	0000016b 	jr	zero
     b7a:	0003ac0b 	0x3ac0b
     b7e:	6b2e0500 	0x500
     b82:	02000001 	0x1
     b86:	5f0e0023 	sb	a3,1408(s8)
     b8a:	2f05006b 	jalr	a1,s8,320
     b8e:	00000049 	0x49
     b92:	0b082302 	0x2302
     b96:	000003e3 	bleu	zero,zero,b96 <$LLST37+0x22>
     b9a:	00492f05 	0x2f05
     b9e:	23020000 	unimp
     ba2:	026b0b0c 	0xb0c
     ba6:	2f050000 	unimp
     baa:	00000049 	0x49
     bae:	0b102302 	0x2302
     bb2:	0000048c 	0x48c
     bb6:	00492f05 	0x2f05
     bba:	23020000 	unimp
     bbe:	785f0e14 	0xe14
     bc2:	71300500 	0x500
     bc6:	02000001 	0x1
     bca:	0f001823 	sb	zero,134(s8)
     bce:	00010c08 	0xc08
     bd2:	01010800 	0x800
     bd6:	01810000 	unimp
     bda:	5e090000 	unimp
     bde:	00000000 	unimp
     be2:	029a0d00 	0xd00
     be6:	05240000 	unimp
     bea:	00020c34 	0xc34
     bee:	01d70b00 	0xb00
     bf2:	36050000 	unimp
     bf6:	00000049 	0x49
     bfa:	0b002302 	0x2302
     bfe:	00000416 	0x416
     c02:	00493705 	0x3705
     c06:	23020000 	unimp
     c0a:	01ec0b04 	0xb04
     c0e:	38050000 	unimp
     c12:	00000049 	0x49
     c16:	0b082302 	0x2302
     c1a:	00000505 	0x505
     c1e:	00493905 	0x3905
     c22:	23020000 	unimp
     c26:	03200b0c 	0xb0c
     c2a:	3a050000 	unimp
     c2e:	00000049 	0x49
     c32:	0b102302 	0x2302
     c36:	0000030f 	0x30f
     c3a:	00493b05 	0x3b05
     c3e:	23020000 	unimp
     c42:	04910b14 	0xb14
     c46:	3c050000 	unimp
     c4a:	00000049 	0x49
     c4e:	0b182302 	0x2302
     c52:	0000036d 	0x36d
     c56:	00493d05 	0x3d05
     c5a:	23020000 	unimp
     c5e:	04cc0b1c 	0xb1c
     c62:	3e050000 	unimp
     c66:	00000049 	0x49
     c6a:	00202302 	0x2302
     c6e:	0001fb10 	0xfb10
     c72:	05020800 	0x800
     c76:	00025547 	0x25547
     c7a:	025e0b00 	0xb00
     c7e:	48050000 	unimp
     c82:	00000255 	0x255
     c86:	0b002302 	0x2302
     c8a:	00000134 	0x134
     c8e:	02554905 	0x4905
     c92:	23030000 	unimp
     c96:	320b0280 	0x280
     c9a:	05000004 	0x4
     c9e:	0001014b 	0x1014b
     ca2:	80230300 	0x300
     ca6:	02200b04 	0xb04
     caa:	4e050000 	unimp
     cae:	00000101 	0x101
     cb2:	04842303 	lwu	zero,264(t6)
     cb6:	00ff0800 	0x800
     cba:	02650000 	unimp
     cbe:	5e090000 	unimp
     cc2:	1f000000 	unimp
     cc6:	00c11000 	0x1000
     cca:	03180000 	unimp
     cce:	02ac5905 	0x5905
     cd2:	ac0b0000 	unimp
     cd6:	05000003 	lb	zero,0(s0)
     cda:	0002ac5a 	0xac5a
     cde:	00230200 	0x200
     ce2:	0003c40b 	0x3c40b
     ce6:	495b0500 	0x500
     cea:	02000000 	unimp
     cee:	660b0823 	sb	a1,1602(s4)
     cf2:	05000002 	0x2
     cf6:	0002b25d 	0xb25d
     cfa:	10230200 	0x200
     cfe:	0001fb0b 	vlsegstwu	vzero,zero,zero,32
     d02:	0c5e0500 	0x500
     d06:	03000002 	0x2
     d0a:	00029023 	sb	ra,36(zero)
     d0e:	0265080f 	vssegstb	vzero,a5,t6,17
     d12:	c4080000 	unimp
     d16:	c2000002 	0x2
     d1a:	09000002 	0x2
     d1e:	0000005e 	0x5e
     d22:	0111001f 	0x111001f
     d26:	02c2080f 	vssegstb	vzero,a7,ra,1
     d2a:	770d0000 	unimp
     d2e:	10000003 	lb	v0,0(zero)
     d32:	02f36905 	0x6905
     d36:	e60b0000 	unimp
     d3a:	05000001 	0x1
     d3e:	0002f36a 	0xf36a
     d42:	00230200 	0x200
     d46:	0007ba0b 	vlsegstbu	vzero,zero,v1,28
     d4a:	496b0500 	0x500
     d4e:	02000000 	unimp
     d52:	0f000823 	sb	zero,130(s8)
     d56:	00003408 	0x3408
     d5a:	03960d00 	0xd00
     d5e:	05a80000 	unimp
     d62:	000459a9 	0x59a9
     d66:	705f0e00 	0xe00
     d6a:	f3aa0500 	0x500
     d6e:	02000002 	0x2
     d72:	5f0e0023 	sb	a3,1408(s8)
     d76:	ab050072 	0x72
     d7a:	00000049 	0x49
     d7e:	0e082302 	0x2302
     d82:	0500775f 	0x500775f
     d86:	000049ac 	0x49ac
     d8a:	0c230200 	0x200
     d8e:	0002190b 	vlsegstw	vzero,zero,ra,2
     d92:	3bad0500 	0x500
     d96:	02000000 	unimp
     d9a:	b60b1023 	sb	a1,-1212(s4)
     d9e:	05000002 	0x2
     da2:	00003bae 	0x3bae
     da6:	12230200 	0x200
     daa:	66625f0e 	0x5f0e
     dae:	caaf0500 	0x500
     db2:	02000002 	0x2
     db6:	b10b1823 	sb	a1,-1210(a0)
     dba:	05000001 	0x1
     dbe:	000049b0 	0x49b0
     dc2:	28230200 	0x200
     dc6:	0002090b 	vlsegstw	vzero,zero,ra,1
     dca:	ffb70500 	0x500
     dce:	02000000 	unimp
     dd2:	8a0b3023 	sb	a1,-1844(a4)
     dd6:	05000002 	0x2
     dda:	0005ecb9 	0xecb9
     dde:	38230200 	0x200
     de2:	0003080b 	vlsegstb	vzero,zero,ra,17
     de6:	1cbb0500 	0x500
     dea:	02000006 	0x6
     dee:	080b4023 	sb	a1,208(zero)
     df2:	05000004 	0x4
     df6:	000641bd 	0x41bd
     dfa:	48230200 	0x200
     dfe:	0004e60b 	0x4e60b
     e02:	5cbe0500 	0x500
     e06:	02000006 	0x6
     e0a:	5f0e5023 	sb	a3,1428(s8)
     e0e:	05006275 	0x6275
     e12:	0002cac1 	0xcac1
     e16:	58230200 	0x200
     e1a:	70755f0e 	0x5f0e
     e1e:	f3c20500 	0x500
     e22:	02000002 	0x2
     e26:	5f0e6823 	sb	a3,1434(s8)
     e2a:	05007275 	0x7275
     e2e:	000049c3 	0x49c3
     e32:	70230200 	0x200
     e36:	0001e00b 	0x1e00b
     e3a:	62c60500 	0x500
     e3e:	02000006 	0x6
     e42:	be0b7423 	sb	a1,-1059(s4)
     e46:	05000004 	0x4
     e4a:	000672c7 	fmsub.d	ft0,ft0,fv1,fa3,rtz
     e4e:	77230200 	0x200
     e52:	626c5f0e 	0x5f0e
     e56:	caca0500 	0x500
     e5a:	02000002 	0x2
     e5e:	2e0b7823 	sb	a1,734(s4)
     e62:	05000008 	0x8
     e66:	000049cd 	0x49cd
     e6a:	88230300 	0x300
     e6e:	02370b01 	0xb01
     e72:	ce050000 	unimp
     e76:	00000049 	0x49
     e7a:	018c2303 	lwu	zero,776(a2)
     e7e:	0005150b 	0x5150b
     e82:	78d10500 	0x500
     e86:	03000004 	0x4
     e8a:	0b019023 	sb	zero,228(t0)
     e8e:	000002fa 	0x2fa
     e92:	00f4d505 	0xd505
     e96:	23030000 	unimp
     e9a:	9e0b0198 	0x198
     e9e:	05000003 	lb	zero,0(s0)
     ea2:	0000e9d7 	0xe9d7
     ea6:	9c230300 	0x300
     eaa:	03000b01 	0xb01
     eae:	d8050000 	unimp
     eb2:	00000049 	0x49
     eb6:	01a42303 	lwu	zero,-1784(a2)
     eba:	49011200 	0x1200
     ebe:	78000000 	unimp
     ec2:	13000004 	0x4
     ec6:	00000478 	0x478
     eca:	0000ff13 	or	zero,zero,63
     ece:	05df1300 	0x1300
     ed2:	49130000 	unimp
     ed6:	00000000 	unimp
     eda:	047e080f 	vssegstb	vzero,t5,tp,1
     ede:	eb140000 	unimp
     ee2:	30000003 	lb	a2,0(zero)
     ee6:	02430507 	flw	ft0,193(a5)
     eea:	000005df 	0x5df
     eee:	00098f15 	0x8f15
     ef2:	02450500 	0x500
     ef6:	00000049 	0x49
     efa:	15002302 	0x2302
     efe:	00000228 	0x228
     f02:	cf024a05 	0x4a05
     f06:	02000006 	0x6
     f0a:	a6150823 	sb	a6,-1470(s4)
     f0e:	05000002 	0x2
     f12:	06cf024a 	0x24a
     f16:	23020000 	unimp
     f1a:	027a1510 	0x1510
     f1e:	4a050000 	unimp
     f22:	0006cf02 	0xcf02
     f26:	18230200 	0x200
     f2a:	0003bf15 	0xbf15
     f2e:	024c0500 	0x500
     f32:	00000049 	0x49
     f36:	15202302 	0x2302
     f3a:	00000148 	0x148
     f3e:	ee024d05 	0x4d05
     f42:	02000008 	0x8
     f46:	68152423 	sb	a6,1737(zero)
     f4a:	05000004 	0x4
     f4e:	0049024f 	fnmadd.s	ft0,ft1,fa0,ft6,rtz
     f52:	23020000 	unimp
     f56:	03c91540 	0x1540
     f5a:	50050000 	unimp
     f5e:	00061102 	0x1102
     f62:	48230200 	0x200
     f66:	00032915 	0x2915
     f6a:	02520500 	0x500
     f6e:	00000049 	0x49
     f72:	15502302 	0x2302
     f76:	000003d9 	0x3d9
     f7a:	0a025405 	0x5405
     f7e:	02000009 	0x9
     f82:	e5155823 	sb	a6,-426(s0)
     f86:	05000002 	0x2
     f8a:	016b0257 	0x16b0257
     f8e:	23020000 	unimp
     f92:	02901560 	0x1560
     f96:	58050000 	unimp
     f9a:	00004902 	0x4902
     f9e:	68230200 	0x200
     fa2:	00050015 	0x15
     fa6:	02590500 	0x500
     faa:	0000016b 	jr	zero
     fae:	15702302 	0x2302
     fb2:	00000343 	0x343
     fb6:	10025a05 	0x5a05
     fba:	02000009 	0x9
     fbe:	ae157823 	sb	a6,-1314(s4)
     fc2:	05000002 	0x2
     fc6:	0049025d 	0x25d
     fca:	23030000 	unimp
     fce:	2f150180 	0x180
     fd2:	05000002 	0x2
     fd6:	05df025e 	0x25e
     fda:	23030000 	unimp
     fde:	5f150188 	0x188
     fe2:	05000003 	lb	zero,0(s0)
     fe6:	08cb0281 	0x281
     fea:	23030000 	unimp
     fee:	c1150190 	0x190
     ff2:	05000000 	unimp
     ff6:	02ac0284 	0x284
     ffa:	23030000 	unimp
     ffe:	c31503f8 	0x3f8
    1002:	05000002 	0x2
    1006:	02650285 	0x285
    100a:	23030000 	unimp
    100e:	b4150480 	0x480
    1012:	05000004 	0x4
    1016:	09220288 	0x288
    101a:	23030000 	unimp
    101e:	11150a98 	0xa98
    1022:	05000002 	0x2
    1026:	068e028d 	0x28d
    102a:	23030000 	unimp
    102e:	f6150aa0 	0xaa0
    1032:	05000001 	0x1
    1036:	092e028e 	0x28e
    103a:	23030000 	unimp
    103e:	0f000ab8 	0xab8
    1042:	0005e508 	0xe508
    1046:	06010200 	0x200
    104a:	000000b8 	0xb8
    104e:	0459080f 	vssegstb	vzero,t5,t0,17
    1052:	01120000 	unimp
    1056:	00000049 	0x49
    105a:	00000611 	0x611
    105e:	00047813 	li	zero,286
    1062:	00ff1300 	0x1300
    1066:	11130000 	unimp
    106a:	13000006 	0x6
    106e:	00000049 	0x49
    1072:	17080f00 	0xf00
    1076:	16000006 	0x6
    107a:	000005e5 	0x5e5
    107e:	05f2080f 	vssegstb	vzero,s3,s5,1
    1082:	01120000 	unimp
    1086:	0000006c 	0x6c
    108a:	00000641 	0x641
    108e:	00047813 	li	zero,286
    1092:	00ff1300 	0x1300
    1096:	6c130000 	unimp
    109a:	13000000 	unimp
    109e:	00000049 	0x49
    10a2:	22080f00 	0xf00
    10a6:	12000006 	0x6
    10aa:	00004901 	0x4901
    10ae:	00065c00 	0x5c00
    10b2:	04781300 	0x1300
    10b6:	ff130000 	unimp
    10ba:	00000000 	unimp
    10be:	0647080f 	vssegstb	vzero,s5,v1,17
    10c2:	34080000 	unimp
    10c6:	72000000 	unimp
    10ca:	09000006 	0x6
    10ce:	0000005e 	0x5e
    10d2:	34080002 	0x2
    10d6:	82000000 	unimp
    10da:	09000006 	0x6
    10de:	0000005e 	0x5e
    10e2:	84050000 	unimp
    10e6:	05000003 	lb	zero,0(s0)
    10ea:	02f90111 	0x111
    10ee:	9b170000 	unimp
    10f2:	18000004 	0x4
    10f6:	c9011505 	0x1505
    10fa:	15000006 	0x6
    10fe:	000003ac 	0x3ac
    1102:	c9011705 	0x1705
    1106:	02000006 	0x6
    110a:	bc150023 	sb	a6,-1088(t4)
    110e:	05000002 	0x2
    1112:	00490118 	0x118
    1116:	23020000 	unimp
    111a:	037e1508 	0x1508
    111e:	19050000 	unimp
    1122:	0006cf01 	0xcf01
    1126:	10230200 	0x200
    112a:	8e080f00 	0xf00
    112e:	0f000006 	0x6
    1132:	00068208 	0x8208
    1136:	01401700 	0x1700
    113a:	050e0000 	unimp
    113e:	07100131 	0x131
    1142:	f2150000 	unimp
    1146:	05000003 	lb	zero,0(s0)
    114a:	07100132 	0x132
    114e:	23020000 	unimp
    1152:	041f1500 	0x1500
    1156:	33050000 	unimp
    115a:	00071001 	0x1001
    115e:	06230200 	0x200
    1162:	00043b15 	0x3b15
    1166:	01340500 	0x500
    116a:	00000042 	0x42
    116e:	000c2302 	0x2302
    1172:	00004208 	0x4208
    1176:	00072000 	0x2000
    117a:	005e0900 	0x900
    117e:	00020000 	unimp
    1182:	6205d818 	0xd818
    1186:	00085102 	0x5102
    118a:	047f1500 	0x1500
    118e:	64050000 	unimp
    1192:	00005002 	0x5002
    1196:	00230200 	0x200
    119a:	00042515 	0x2515
    119e:	02650500 	0x500
    11a2:	000005df 	0x5df
    11a6:	15082302 	0x2302
    11aa:	000002d8 	0x2d8
    11ae:	51026605 	0x6605
    11b2:	02000008 	0x8
    11b6:	d7151023 	sb	a6,-700(s8)
    11ba:	05000004 	0x4
    11be:	01810267 	j	615c6 <_end+0x5006a>
    11c2:	23020000 	unimp
    11c6:	0334152c 	0x152c
    11ca:	68050000 	unimp
    11ce:	00004902 	0x4902
    11d2:	50230200 	0x200
    11d6:	0003a715 	0xa715
    11da:	02690500 	0x500
    11de:	00000065 	0x65
    11e2:	15582302 	0x2302
    11e6:	000004ed 	0x4ed
    11ea:	d5026a05 	0x6a05
    11ee:	02000006 	0x6
    11f2:	b2156023 	sb	a6,-1192(a4)
    11f6:	05000003 	lb	zero,0(s0)
    11fa:	00e9026b 	0xe9026b
    11fe:	23020000 	unimp
    1202:	04f21570 	0x1570
    1206:	6c050000 	unimp
    120a:	0000e902 	0xe902
    120e:	78230200 	0x200
    1212:	0001c915 	0xc915
    1216:	026d0500 	0x500
    121a:	000000e9 	0xe9
    121e:	01802303 	lwu	zero,8(a2)
    1222:	0004aa15 	0xaa15
    1226:	026e0500 	0x500
    122a:	00000861 	0x861
    122e:	01882303 	lwu	zero,520(a2)
    1232:	0002cc15 	0xcc15
    1236:	026f0500 	0x500
    123a:	00000871 	0x871
    123e:	01902303 	lwu	zero,1032(a2)
    1242:	00044815 	0x4815
    1246:	02700500 	0x500
    124a:	00000049 	0x49
    124e:	01a82303 	lwu	zero,-1528(a2)
    1252:	00025015 	0x5015
    1256:	02710500 	0x500
    125a:	000000e9 	0xe9
    125e:	01ac2303 	lwu	zero,-1272(a2)
    1262:	0001ba15 	0xba15
    1266:	02720500 	0x500
    126a:	000000e9 	0xe9
    126e:	01b42303 	lwu	zero,-760(a2)
    1272:	00023f15 	0x3f15
    1276:	02730500 	0x500
    127a:	000000e9 	0xe9
    127e:	01bc2303 	lwu	zero,-248(a2)
    1282:	00015315 	0x5315
    1286:	02740500 	0x500
    128a:	000000e9 	0xe9
    128e:	01c42303 	lwu	zero,264(a3)
    1292:	00016215 	0x6215
    1296:	02750500 	0x500
    129a:	000000e9 	0xe9
    129e:	01cc2303 	lwu	zero,776(a3)
    12a2:	00036415 	0x6415
    12a6:	02760500 	0x500
    12aa:	00000049 	0x49
    12ae:	01d42303 	lwu	zero,1288(a3)
    12b2:	05e50800 	0x800
    12b6:	08610000 	unimp
    12ba:	5e090000 	unimp
    12be:	19000000 	unimp
    12c2:	05e50800 	0x800
    12c6:	08710000 	unimp
    12ca:	5e090000 	unimp
    12ce:	07000000 	unimp
    12d2:	05e50800 	0x800
    12d6:	08810000 	unimp
    12da:	5e090000 	unimp
    12de:	17000000 	unimp
    12e2:	01681900 	0x1900
    12e6:	ab027b05 	0x7b05
    12ea:	15000008 	0x8
    12ee:	00000319 	0x319
    12f2:	ab027e05 	0x7e05
    12f6:	02000008 	0x8
    12fa:	a1150023 	sb	a6,-1472(a0)
    12fe:	05000004 	0x4
    1302:	08bb027f 	0x8bb027f
    1306:	23030000 	unimp
    130a:	080001f0 	0x1f0
    130e:	000002f3 	vsetvl	zero,zero
    1312:	000008bb 	0x8bb
    1316:	00005e09 	0x5e09
    131a:	08001d00 	0x1d00
    131e:	00000050 	0x50
    1322:	000008cb 	fnmsub.d	ft0,ft0,ft0,ft0,rmm
    1326:	00005e09 	0x5e09
    132a:	1a001d00 	0x1d00
    132e:	60050168 	0x168
    1332:	0008ee02 	0xee02
    1336:	03eb1b00 	0x1b00
    133a:	77050000 	unimp
    133e:	00072002 	0x2002
    1342:	04c41b00 	0x1b00
    1346:	80050000 	unimp
    134a:	00088102 	0x8102
    134e:	e5080000 	unimp
    1352:	fe000005 	0x5
    1356:	09000008 	0x8
    135a:	0000005e 	0x5e
    135e:	011c0018 	0x18
    1362:	0000090a 	0x90a
    1366:	00047813 	li	zero,286
    136a:	080f0000 	unimp
    136e:	000008fe 	0x8fe
    1372:	016b080f 	vssegstb	vzero,a1,s1,17
    1376:	011c0000 	unimp
    137a:	00000922 	0x922
    137e:	00004913 	slt	zero,zero,18
    1382:	080f0000 	unimp
    1386:	00000928 	0x928
    138a:	0916080f 	vssegstb	vra,a0,a7,1
    138e:	82080000 	unimp
    1392:	3e000006 	0x6
    1396:	09000009 	0x9
    139a:	0000005e 	0x5e
    139e:	0f1d0002 	0x2
    13a2:	06000005 	0x5
    13a6:	00047e17 	0x47e17
    13aa:	68030900 	0x900
    13ae:	0000010d 	0x10d
    13b2:	1e000000 	unimp
    13b6:	0000045c 	0x45c
    13ba:	78033105 	0x3105
    13be:	01000004 	0x4
    13c2:	0d600309 	0x309
    13c6:	00000001 	0x1
    13ca:	551e0000 	unimp
    13ce:	05000004 	0x4
    13d2:	09810332 	0x332
    13d6:	09010000 	unimp
    13da:	010cf003 	lb	zero,828(a0)
    13de:	00000000 	unimp
    13e2:	04781600 	0x1600
    13e6:	08000000 	unimp

00000000000013e9 <$Ldebug_info0>:
    13e9:	00000a08 	0xa08
    13ed:	03750002 	0x2
    13f1:	01080000 	unimp
    13f5:	000000c9 	0xc9
    13f9:	0005c101 	0xc101
    13fd:	00003000 	0x3000
    1401:	01028800 	0x8800
    1405:	00000000 	unimp
    1409:	0103bc00 	0xbc00
    140d:	00000000 	unimp
    1411:	00058000 	0x8000
    1415:	05080200 	0x200
    1419:	00000005 	0x5
    141d:	9d070802 	0x802
    1421:	03000000 	unimp
    1425:	6e690504 	0x504
    1429:	01020074 	0x74
    142d:	0000b106 	0xb106
    1431:	08010200 	0x200
    1435:	000000af 	fence.i
    1439:	ea050202 	0x202
    143d:	02000000 	unimp
    1441:	000e0702 	0x702
    1445:	04020000 	unimp
    1449:	0000a207 	0xa207
    144d:	07080200 	0x200
    1451:	00000098 	0x98
    1455:	00040e04 	0xe04
    1459:	651e0200 	0x200
    145d:	02000000 	unimp
    1461:	00000508 	0x508
    1465:	4d040000 	unimp
    1469:	03000003 	lb	zero,0(t0)
    146d:	00003b07 	0x3b07
    1471:	02f30500 	0x500
    1475:	61040000 	unimp
    1479:	00005e01 	0x5e01
    147d:	05040600 	0x600
    1481:	0000b446 	0xb446
    1485:	02ed0700 	0x700
    1489:	48050000 	unimp
    148d:	00000089 	0x89
    1491:	00029f07 	0x29f07
    1495:	b4490500 	0x500
    1499:	00000000 	unimp
    149d:	00004908 	0x4908
    14a1:	0000c400 	0xc400
    14a5:	00340900 	0x900
    14a9:	00030000 	unimp
    14ad:	4305080a 	0x80a
    14b1:	000000e9 	0xe9
    14b5:	0003f80b 	vlsegstb	vzero,zero,ra,32
    14b9:	3b450500 	0x500
    14bd:	02000000 	unimp
    14c1:	000b0023 	sb	a1,64(zero)
    14c5:	05000004 	0x4
    14c9:	0000954a 	0x954a
    14cd:	04230200 	0x200
    14d1:	038b0400 	0x400
    14d5:	4b050000 	unimp
    14d9:	000000c4 	0xc4
    14dd:	00027104 	0x7104
    14e1:	7e4f0500 	0x500
    14e5:	0c000000 	unimp
    14e9:	04400408 	0x408
    14ed:	18060000 	unimp
    14f1:	0000005e 	0x5e
    14f5:	0002820d 	0x820d
    14f9:	2c062000 	0x2000
    14fd:	0000016b 	jr	zero
    1501:	0003ac0b 	0x3ac0b
    1505:	6b2e0600 	0x600
    1509:	02000001 	0x1
    150d:	5f0e0023 	sb	a3,1408(s8)
    1511:	2f06006b 	jalr	a1,s8,384
    1515:	0000003b 	addw	zero,zero,zero
    1519:	0b082302 	0x2302
    151d:	000003e3 	bleu	zero,zero,151d <$LLST102>
    1521:	003b2f06 	0x2f06
    1525:	23020000 	unimp
    1529:	026b0b0c 	0xb0c
    152d:	2f060000 	unimp
    1531:	0000003b 	addw	zero,zero,zero
    1535:	0b102302 	0x2302
    1539:	0000048c 	0x48c
    153d:	003b2f06 	0x2f06
    1541:	23020000 	unimp
    1545:	785f0e14 	0xe14
    1549:	71300600 	0x600
    154d:	02000001 	0x1
    1551:	0f001823 	sb	zero,134(s8)
    1555:	00010c08 	0xc08
    1559:	01010800 	0x800
    155d:	01810000 	unimp
    1561:	34090000 	unimp
    1565:	00000000 	unimp
    1569:	029a0d00 	0xd00
    156d:	06240000 	unimp
    1571:	00020c34 	0xc34
    1575:	01d70b00 	0xb00
    1579:	36060000 	unimp
    157d:	0000003b 	addw	zero,zero,zero
    1581:	0b002302 	0x2302
    1585:	00000416 	0x416
    1589:	003b3706 	0x3706
    158d:	23020000 	unimp
    1591:	01ec0b04 	0xb04
    1595:	38060000 	unimp
    1599:	0000003b 	addw	zero,zero,zero
    159d:	0b082302 	0x2302
    15a1:	00000505 	0x505
    15a5:	003b3906 	0x3906
    15a9:	23020000 	unimp
    15ad:	03200b0c 	0xb0c
    15b1:	3a060000 	unimp
    15b5:	0000003b 	addw	zero,zero,zero
    15b9:	0b102302 	0x2302
    15bd:	0000030f 	0x30f
    15c1:	003b3b06 	0x3b06
    15c5:	23020000 	unimp
    15c9:	04910b14 	0xb14
    15cd:	3c060000 	unimp
    15d1:	0000003b 	addw	zero,zero,zero
    15d5:	0b182302 	0x2302
    15d9:	0000036d 	0x36d
    15dd:	003b3d06 	0x3d06
    15e1:	23020000 	unimp
    15e5:	04cc0b1c 	0xb1c
    15e9:	3e060000 	unimp
    15ed:	0000003b 	addw	zero,zero,zero
    15f1:	00202302 	0x2302
    15f5:	0001fb10 	0xfb10
    15f9:	06020800 	0x800
    15fd:	00025547 	0x25547
    1601:	025e0b00 	0xb00
    1605:	48060000 	unimp
    1609:	00000255 	0x255
    160d:	0b002302 	0x2302
    1611:	00000134 	0x134
    1615:	02554906 	0x4906
    1619:	23030000 	unimp
    161d:	320b0280 	0x280
    1621:	06000004 	0x4
    1625:	0001014b 	0x1014b
    1629:	80230300 	0x300
    162d:	02200b04 	0xb04
    1631:	4e060000 	unimp
    1635:	00000101 	0x101
    1639:	04842303 	lwu	zero,264(t6)
    163d:	00ff0800 	0x800
    1641:	02650000 	unimp
    1645:	34090000 	unimp
    1649:	1f000000 	unimp
    164d:	00c11000 	0x1000
    1651:	03180000 	unimp
    1655:	02ac5906 	0x5906
    1659:	ac0b0000 	unimp
    165d:	06000003 	lb	zero,0(s4)
    1661:	0002ac5a 	0xac5a
    1665:	00230200 	0x200
    1669:	0003c40b 	0x3c40b
    166d:	3b5b0600 	0x600
    1671:	02000000 	unimp
    1675:	660b0823 	sb	a1,1602(s4)
    1679:	06000002 	0x2
    167d:	0002b25d 	0xb25d
    1681:	10230200 	0x200
    1685:	0001fb0b 	vlsegstwu	vzero,zero,zero,32
    1689:	0c5e0600 	0x600
    168d:	03000002 	0x2
    1691:	00029023 	sb	ra,36(zero)
    1695:	0265080f 	vssegstb	vzero,a5,t6,17
    1699:	c4080000 	unimp
    169d:	c2000002 	0x2
    16a1:	09000002 	0x2
    16a5:	00000034 	0x34
    16a9:	0111001f 	0x111001f
    16ad:	02c2080f 	vssegstb	vzero,a7,ra,1
    16b1:	770d0000 	unimp
    16b5:	10000003 	lb	v0,0(zero)
    16b9:	02f36906 	0x6906
    16bd:	e60b0000 	unimp
    16c1:	06000001 	0x1
    16c5:	0002f36a 	0xf36a
    16c9:	00230200 	0x200
    16cd:	0007ba0b 	vlsegstbu	vzero,zero,v1,28
    16d1:	3b6b0600 	0x600
    16d5:	02000000 	unimp
    16d9:	0f000823 	sb	zero,130(s8)
    16dd:	00004908 	0x4908
    16e1:	03960d00 	0xd00
    16e5:	06a80000 	unimp
    16e9:	000459a9 	0x59a9
    16ed:	705f0e00 	0xe00
    16f1:	f3aa0600 	0x600
    16f5:	02000002 	0x2
    16f9:	5f0e0023 	sb	a3,1408(s8)
    16fd:	ab060072 	0x72
    1701:	0000003b 	addw	zero,zero,zero
    1705:	0e082302 	0x2302
    1709:	0600775f 	0x600775f
    170d:	00003bac 	0x3bac
    1711:	0c230200 	0x200
    1715:	0002190b 	vlsegstw	vzero,zero,ra,2
    1719:	50ad0600 	0x600
    171d:	02000000 	unimp
    1721:	b60b1023 	sb	a1,-1212(s4)
    1725:	06000002 	0x2
    1729:	000050ae 	0x50ae
    172d:	12230200 	0x200
    1731:	66625f0e 	0x5f0e
    1735:	caaf0600 	0x600
    1739:	02000002 	0x2
    173d:	b10b1823 	sb	a1,-1210(a0)
    1741:	06000001 	0x1
    1745:	00003bb0 	0x3bb0
    1749:	28230200 	0x200
    174d:	0002090b 	vlsegstw	vzero,zero,ra,1
    1751:	ffb70600 	0x600
    1755:	02000000 	unimp
    1759:	8a0b3023 	sb	a1,-1844(a4)
    175d:	06000002 	0x2
    1761:	0005ecb9 	0xecb9
    1765:	38230200 	0x200
    1769:	0003080b 	vlsegstb	vzero,zero,ra,17
    176d:	1cbb0600 	0x600
    1771:	02000006 	0x6
    1775:	080b4023 	sb	a1,208(zero)
    1779:	06000004 	0x4
    177d:	000641bd 	0x41bd
    1781:	48230200 	0x200
    1785:	0004e60b 	0x4e60b
    1789:	5cbe0600 	0x600
    178d:	02000006 	0x6
    1791:	5f0e5023 	sb	a3,1428(s8)
    1795:	06006275 	0x6275
    1799:	0002cac1 	0xcac1
    179d:	58230200 	0x200
    17a1:	70755f0e 	0x5f0e
    17a5:	f3c20600 	0x600
    17a9:	02000002 	0x2
    17ad:	5f0e6823 	sb	a3,1434(s8)
    17b1:	06007275 	0x7275
    17b5:	00003bc3 	0x3bc3
    17b9:	70230200 	0x200
    17bd:	0001e00b 	0x1e00b
    17c1:	62c60600 	0x600
    17c5:	02000006 	0x6
    17c9:	be0b7423 	sb	a1,-1059(s4)
    17cd:	06000004 	0x4
    17d1:	000672c7 	fmsub.d	ft0,ft0,fv1,fa3,rtz
    17d5:	77230200 	0x200
    17d9:	626c5f0e 	0x5f0e
    17dd:	caca0600 	0x600
    17e1:	02000002 	0x2
    17e5:	2e0b7823 	sb	a1,734(s4)
    17e9:	06000008 	0x8
    17ed:	00003bcd 	0x3bcd
    17f1:	88230300 	0x300
    17f5:	02370b01 	0xb01
    17f9:	ce060000 	unimp
    17fd:	0000003b 	addw	zero,zero,zero
    1801:	018c2303 	lwu	zero,776(a2)
    1805:	0005150b 	0x5150b
    1809:	78d10600 	0x600
    180d:	03000004 	0x4
    1811:	0b019023 	sb	zero,228(t0)
    1815:	000002fa 	0x2fa
    1819:	00f4d506 	0xd506
    181d:	23030000 	unimp
    1821:	9e0b0198 	0x198
    1825:	06000003 	lb	zero,0(s4)
    1829:	0000e9d7 	0xe9d7
    182d:	9c230300 	0x300
    1831:	03000b01 	0xb01
    1835:	d8060000 	unimp
    1839:	0000003b 	addw	zero,zero,zero
    183d:	01a42303 	lwu	zero,-1784(a2)
    1841:	3b011200 	0x1200
    1845:	78000000 	unimp
    1849:	13000004 	0x4
    184d:	00000478 	0x478
    1851:	0000ff13 	or	zero,zero,63
    1855:	05df1300 	0x1300
    1859:	3b130000 	unimp
    185d:	00000000 	unimp
    1861:	047e080f 	vssegstb	vzero,t5,tp,1
    1865:	eb140000 	unimp
    1869:	30000003 	lb	a2,0(zero)
    186d:	02430607 	0x2430607
    1871:	000005df 	0x5df
    1875:	00098f15 	0x8f15
    1879:	02450600 	0x600
    187d:	0000003b 	addw	zero,zero,zero
    1881:	15002302 	0x2302
    1885:	00000228 	0x228
    1889:	cf024a06 	0x4a06
    188d:	02000006 	0x6
    1891:	a6150823 	sb	a6,-1470(s4)
    1895:	06000002 	0x2
    1899:	06cf024a 	0x24a
    189d:	23020000 	unimp
    18a1:	027a1510 	0x1510
    18a5:	4a060000 	unimp
    18a9:	0006cf02 	0xcf02
    18ad:	18230200 	0x200
    18b1:	0003bf15 	0xbf15
    18b5:	024c0600 	0x600
    18b9:	0000003b 	addw	zero,zero,zero
    18bd:	15202302 	0x2302
    18c1:	00000148 	0x148
    18c5:	ee024d06 	0x4d06
    18c9:	02000008 	0x8
    18cd:	68152423 	sb	a6,1737(zero)
    18d1:	06000004 	0x4
    18d5:	003b024f 	fnmadd.s	ft0,ft0,fs9,ft6,rtz
    18d9:	23020000 	unimp
    18dd:	03c91540 	0x1540
    18e1:	50060000 	unimp
    18e5:	00061102 	0x1102
    18e9:	48230200 	0x200
    18ed:	00032915 	0x2915
    18f1:	02520600 	0x600
    18f5:	0000003b 	addw	zero,zero,zero
    18f9:	15502302 	0x2302
    18fd:	000003d9 	0x3d9
    1901:	0a025406 	0x5406
    1905:	02000009 	0x9
    1909:	e5155823 	sb	a6,-426(s0)
    190d:	06000002 	0x2
    1911:	016b0257 	0x16b0257
    1915:	23020000 	unimp
    1919:	02901560 	0x1560
    191d:	58060000 	unimp
    1921:	00003b02 	0x3b02
    1925:	68230200 	0x200
    1929:	00050015 	0x15
    192d:	02590600 	0x600
    1931:	0000016b 	jr	zero
    1935:	15702302 	0x2302
    1939:	00000343 	0x343
    193d:	10025a06 	0x5a06
    1941:	02000009 	0x9
    1945:	ae157823 	sb	a6,-1314(s4)
    1949:	06000002 	0x2
    194d:	003b025d 	0x25d
    1951:	23030000 	unimp
    1955:	2f150180 	0x180
    1959:	06000002 	0x2
    195d:	05df025e 	0x25e
    1961:	23030000 	unimp
    1965:	5f150188 	0x188
    1969:	06000003 	lb	zero,0(s4)
    196d:	08cb0281 	0x281
    1971:	23030000 	unimp
    1975:	c1150190 	0x190
    1979:	06000000 	unimp
    197d:	02ac0284 	0x284
    1981:	23030000 	unimp
    1985:	c31503f8 	0x3f8
    1989:	06000002 	0x2
    198d:	02650285 	0x285
    1991:	23030000 	unimp
    1995:	b4150480 	0x480
    1999:	06000004 	0x4
    199d:	09220288 	0x288
    19a1:	23030000 	unimp
    19a5:	11150a98 	0xa98
    19a9:	06000002 	0x2
    19ad:	068e028d 	0x28d
    19b1:	23030000 	unimp
    19b5:	f6150aa0 	0xaa0
    19b9:	06000001 	0x1
    19bd:	092e028e 	0x28e
    19c1:	23030000 	unimp
    19c5:	0f000ab8 	0xab8
    19c9:	0005e508 	0xe508
    19cd:	06010200 	0x200
    19d1:	000000b8 	0xb8
    19d5:	0459080f 	vssegstb	vzero,t5,t0,17
    19d9:	01120000 	unimp
    19dd:	0000003b 	addw	zero,zero,zero
    19e1:	00000611 	0x611
    19e5:	00047813 	li	zero,286
    19e9:	00ff1300 	0x1300
    19ed:	11130000 	unimp
    19f1:	13000006 	0x6
    19f5:	0000003b 	addw	zero,zero,zero
    19f9:	17080f00 	0xf00
    19fd:	16000006 	0x6
    1a01:	000005e5 	0x5e5
    1a05:	05f2080f 	vssegstb	vzero,s3,s5,1
    1a09:	01120000 	unimp
    1a0d:	0000006c 	0x6c
    1a11:	00000641 	0x641
    1a15:	00047813 	li	zero,286
    1a19:	00ff1300 	0x1300
    1a1d:	6c130000 	unimp
    1a21:	13000000 	unimp
    1a25:	0000003b 	addw	zero,zero,zero
    1a29:	22080f00 	0xf00
    1a2d:	12000006 	0x6
    1a31:	00003b01 	0x3b01
    1a35:	00065c00 	0x5c00
    1a39:	04781300 	0x1300
    1a3d:	ff130000 	unimp
    1a41:	00000000 	unimp
    1a45:	0647080f 	vssegstb	vzero,s5,v1,17
    1a49:	49080000 	unimp
    1a4d:	72000000 	unimp
    1a51:	09000006 	0x6
    1a55:	00000034 	0x34
    1a59:	49080002 	0x2
    1a5d:	82000000 	unimp
    1a61:	09000006 	0x6
    1a65:	00000034 	0x34
    1a69:	84050000 	unimp
    1a6d:	06000003 	lb	zero,0(s4)
    1a71:	02f90111 	0x111
    1a75:	9b170000 	unimp
    1a79:	18000004 	0x4
    1a7d:	c9011506 	0x1506
    1a81:	15000006 	0x6
    1a85:	000003ac 	0x3ac
    1a89:	c9011706 	0x1706
    1a8d:	02000006 	0x6
    1a91:	bc150023 	sb	a6,-1088(t4)
    1a95:	06000002 	0x2
    1a99:	003b0118 	0x118
    1a9d:	23020000 	unimp
    1aa1:	037e1508 	0x1508
    1aa5:	19060000 	unimp
    1aa9:	0006cf01 	0xcf01
    1aad:	10230200 	0x200
    1ab1:	8e080f00 	0xf00
    1ab5:	0f000006 	0x6
    1ab9:	00068208 	0x8208
    1abd:	01401700 	0x1700
    1ac1:	060e0000 	unimp
    1ac5:	07100131 	0x131
    1ac9:	f2150000 	unimp
    1acd:	06000003 	lb	zero,0(s4)
    1ad1:	07100132 	0x132
    1ad5:	23020000 	unimp
    1ad9:	041f1500 	0x1500
    1add:	33060000 	unimp
    1ae1:	00071001 	0x1001
    1ae5:	06230200 	0x200
    1ae9:	00043b15 	0x3b15
    1aed:	01340600 	0x600
    1af1:	00000057 	0x57
    1af5:	000c2302 	0x2302
    1af9:	00005708 	0x5708
    1afd:	00072000 	0x2000
    1b01:	00340900 	0x900
    1b05:	00020000 	unimp
    1b09:	6206d818 	0xd818
    1b0d:	00085102 	0x5102
    1b11:	047f1500 	0x1500
    1b15:	64060000 	unimp
    1b19:	00005e02 	0x5e02
    1b1d:	00230200 	0x200
    1b21:	00042515 	0x2515
    1b25:	02650600 	0x600
    1b29:	000005df 	0x5df
    1b2d:	15082302 	0x2302
    1b31:	000002d8 	0x2d8
    1b35:	51026606 	0x6606
    1b39:	02000008 	0x8
    1b3d:	d7151023 	sb	a6,-700(s8)
    1b41:	06000004 	0x4
    1b45:	01810267 	j	61f4d <_end+0x509f1>
    1b49:	23020000 	unimp
    1b4d:	0334152c 	0x152c
    1b51:	68060000 	unimp
    1b55:	00003b02 	0x3b02
    1b59:	50230200 	0x200
    1b5d:	0003a715 	0xa715
    1b61:	02690600 	0x600
    1b65:	00000065 	0x65
    1b69:	15582302 	0x2302
    1b6d:	000004ed 	0x4ed
    1b71:	d5026a06 	0x6a06
    1b75:	02000006 	0x6
    1b79:	b2156023 	sb	a6,-1192(a4)
    1b7d:	06000003 	lb	zero,0(s4)
    1b81:	00e9026b 	0xe9026b
    1b85:	23020000 	unimp
    1b89:	04f21570 	0x1570
    1b8d:	6c060000 	unimp
    1b91:	0000e902 	0xe902
    1b95:	78230200 	0x200
    1b99:	0001c915 	0xc915
    1b9d:	026d0600 	0x600
    1ba1:	000000e9 	0xe9
    1ba5:	01802303 	lwu	zero,8(a2)
    1ba9:	0004aa15 	0xaa15
    1bad:	026e0600 	0x600
    1bb1:	00000861 	0x861
    1bb5:	01882303 	lwu	zero,520(a2)
    1bb9:	0002cc15 	0xcc15
    1bbd:	026f0600 	0x600
    1bc1:	00000871 	0x871
    1bc5:	01902303 	lwu	zero,1032(a2)
    1bc9:	00044815 	0x4815
    1bcd:	02700600 	0x600
    1bd1:	0000003b 	addw	zero,zero,zero
    1bd5:	01a82303 	lwu	zero,-1528(a2)
    1bd9:	00025015 	0x5015
    1bdd:	02710600 	0x600
    1be1:	000000e9 	0xe9
    1be5:	01ac2303 	lwu	zero,-1272(a2)
    1be9:	0001ba15 	0xba15
    1bed:	02720600 	0x600
    1bf1:	000000e9 	0xe9
    1bf5:	01b42303 	lwu	zero,-760(a2)
    1bf9:	00023f15 	0x3f15
    1bfd:	02730600 	0x600
    1c01:	000000e9 	0xe9
    1c05:	01bc2303 	lwu	zero,-248(a2)
    1c09:	00015315 	0x5315
    1c0d:	02740600 	0x600
    1c11:	000000e9 	0xe9
    1c15:	01c42303 	lwu	zero,264(a3)
    1c19:	00016215 	0x6215
    1c1d:	02750600 	0x600
    1c21:	000000e9 	0xe9
    1c25:	01cc2303 	lwu	zero,776(a3)
    1c29:	00036415 	0x6415
    1c2d:	02760600 	0x600
    1c31:	0000003b 	addw	zero,zero,zero
    1c35:	01d42303 	lwu	zero,1288(a3)
    1c39:	05e50800 	0x800
    1c3d:	08610000 	unimp
    1c41:	34090000 	unimp
    1c45:	19000000 	unimp
    1c49:	05e50800 	0x800
    1c4d:	08710000 	unimp
    1c51:	34090000 	unimp
    1c55:	07000000 	unimp
    1c59:	05e50800 	0x800
    1c5d:	08810000 	unimp
    1c61:	34090000 	unimp
    1c65:	17000000 	unimp
    1c69:	01681900 	0x1900
    1c6d:	ab027b06 	0x7b06
    1c71:	15000008 	0x8
    1c75:	00000319 	0x319
    1c79:	ab027e06 	0x7e06
    1c7d:	02000008 	0x8
    1c81:	a1150023 	sb	a6,-1472(a0)
    1c85:	06000004 	0x4
    1c89:	08bb027f 	0x8bb027f
    1c8d:	23030000 	unimp
    1c91:	080001f0 	0x1f0
    1c95:	000002f3 	vsetvl	zero,zero
    1c99:	000008bb 	0x8bb
    1c9d:	00003409 	0x3409
    1ca1:	08001d00 	0x1d00
    1ca5:	0000005e 	0x5e
    1ca9:	000008cb 	fnmsub.d	ft0,ft0,ft0,ft0,rmm
    1cad:	00003409 	0x3409
    1cb1:	1a001d00 	0x1d00
    1cb5:	60060168 	0x168
    1cb9:	0008ee02 	0xee02
    1cbd:	03eb1b00 	0x1b00
    1cc1:	77060000 	unimp
    1cc5:	00072002 	0x2002
    1cc9:	04c41b00 	0x1b00
    1ccd:	80060000 	unimp
    1cd1:	00088102 	0x8102
    1cd5:	e5080000 	unimp
    1cd9:	fe000005 	0x5
    1cdd:	09000008 	0x8
    1ce1:	00000034 	0x34
    1ce5:	011c0018 	0x18
    1ce9:	0000090a 	0x90a
    1ced:	00047813 	li	zero,286
    1cf1:	080f0000 	unimp
    1cf5:	000008fe 	0x8fe
    1cf9:	016b080f 	vssegstb	vzero,a1,s1,17
    1cfd:	011c0000 	unimp
    1d01:	00000922 	0x922
    1d05:	00003b13 	or	zero,zero,14
    1d09:	080f0000 	unimp
    1d0d:	00000928 	0x928
    1d11:	0916080f 	vssegstb	vra,a0,a7,1
    1d15:	82080000 	unimp
    1d19:	3e000006 	0x6
    1d1d:	09000009 	0x9
    1d21:	00000034 	0x34
    1d25:	211d0002 	0x2
    1d29:	04000000 	unimp
    1d2d:	095d0507 	flw	ft1,1857(a1)
    1d31:	bd1e0000 	unimp
    1d35:	00000000 	unimp
    1d39:	0000d51e 	0xd51e
    1d3d:	e11e0100 	0x100
    1d41:	02000000 	unimp
    1d45:	08011f00 	0x1f00
    1d49:	01000006 	0x6
    1d4d:	003b0113 	slt	zero,zero,-320
    1d51:	02880000 	unimp
    1d55:	00000001 	0x1
    1d59:	03bc0000 	unimp
    1d5d:	00000001 	0x1
    1d61:	00910000 	unimp
    1d65:	09e40000 	unimp
    1d69:	03200000 	unimp
    1d6d:	01000006 	0x6
    1d71:	00003b13 	or	zero,zero,14
    1d75:	0000ca00 	0xca00
    1d79:	6e662100 	0x2100
    1d7d:	c4130100 	0x100
    1d81:	00000002 	0x2
    1d85:	21000001 	0x1
    1d89:	00677261 	0x7261
    1d8d:	00ff1301 	0x1301
    1d91:	01490000 	unimp
    1d95:	64210000 	unimp
    1d99:	ff130100 	0x100
    1d9d:	92000000 	unimp
    1da1:	22000001 	0x1
    1da5:	00000204 	0x204
    1da9:	09e41a01 	0x1a01
    1dad:	01db0000 	unimp
    1db1:	70230000 	unimp
    1db5:	ac1b0100 	0x100
    1db9:	17000002 	0x2
    1dbd:	24000002 	0x2
    1dc1:	000002fb 	cflush
    1dc5:	003b1e01 	0x1e01
    1dc9:	00000000 	unimp
    1dcd:	020c080f 	vssegstb	vzero,a4,a2,1
    1dd1:	55250000 	unimp
    1dd5:	06000004 	0x4
    1dd9:	09f80332 	0x332
    1ddd:	01010000 	unimp
    1de1:	00047816 	0x7816
    1de5:	04552500 	0x2500
    1de9:	32060000 	unimp
    1ded:	0009f803 	lb	zero,638(zero)
    1df1:	00010100 	0x100

0000000000001df5 <$Ldebug_info0>:
    1df5:	00000a15 	0xa15
    1df9:	05550002 	0x2
    1dfd:	01080000 	unimp
    1e01:	000000c9 	0xc9
    1e05:	00061c01 	0x1c01
    1e09:	00003000 	0x3000
    1e0d:	0103bc00 	0xbc00
    1e11:	00000000 	unimp
    1e15:	01054c00 	0x4c00
    1e19:	00000000 	unimp
    1e1d:	00099b00 	0x9b00
    1e21:	07080200 	0x200
    1e25:	0000009d 	0x9d
    1e29:	69050403 	lb	t1,321(a0)
    1e2d:	0200746e 	0x746e
    1e31:	00b10601 	0x601
    1e35:	01020000 	unimp
    1e39:	0000af08 	0xaf08
    1e3d:	05020200 	0x200
    1e41:	000000ea 	0xea
    1e45:	0e070202 	0x202
    1e49:	02000000 	unimp
    1e4d:	00a20704 	0x704
    1e51:	08020000 	unimp
    1e55:	00000505 	0x505
    1e59:	07080200 	0x200
    1e5d:	00000098 	0x98
    1e61:	00040e04 	0xe04
    1e65:	651e0200 	0x200
    1e69:	02000000 	unimp
    1e6d:	00000508 	0x508
    1e71:	4d040000 	unimp
    1e75:	03000003 	lb	zero,0(t0)
    1e79:	00003407 	0x3407
    1e7d:	02f30500 	0x500
    1e81:	61040000 	unimp
    1e85:	00005701 	0x5701
    1e89:	05040600 	0x600
    1e8d:	0000b446 	0xb446
    1e91:	02ed0700 	0x700
    1e95:	48050000 	unimp
    1e99:	00000089 	0x89
    1e9d:	00029f07 	0x29f07
    1ea1:	b4490500 	0x500
    1ea5:	00000000 	unimp
    1ea9:	00004208 	0x4208
    1ead:	0000c400 	0xc400
    1eb1:	002d0900 	0x900
    1eb5:	00030000 	unimp
    1eb9:	4305080a 	0x80a
    1ebd:	000000e9 	0xe9
    1ec1:	0003f80b 	vlsegstb	vzero,zero,ra,32
    1ec5:	34450500 	0x500
    1ec9:	02000000 	unimp
    1ecd:	000b0023 	sb	a1,64(zero)
    1ed1:	05000004 	0x4
    1ed5:	0000954a 	0x954a
    1ed9:	04230200 	0x200
    1edd:	038b0400 	0x400
    1ee1:	4b050000 	unimp
    1ee5:	000000c4 	0xc4
    1ee9:	00027104 	0x7104
    1eed:	7e4f0500 	0x500
    1ef1:	0c000000 	unimp
    1ef5:	04400408 	0x408
    1ef9:	18060000 	unimp
    1efd:	00000057 	0x57
    1f01:	0002820d 	0x820d
    1f05:	2c062000 	0x2000
    1f09:	0000016b 	jr	zero
    1f0d:	0003ac0b 	0x3ac0b
    1f11:	6b2e0600 	0x600
    1f15:	02000001 	0x1
    1f19:	5f0e0023 	sb	a3,1408(s8)
    1f1d:	2f06006b 	jalr	a1,s8,384
    1f21:	00000034 	0x34
    1f25:	0b082302 	0x2302
    1f29:	000003e3 	bleu	zero,zero,1f29 <$LLST167+0x1e>
    1f2d:	00342f06 	0x2f06
    1f31:	23020000 	unimp
    1f35:	026b0b0c 	0xb0c
    1f39:	2f060000 	unimp
    1f3d:	00000034 	0x34
    1f41:	0b102302 	0x2302
    1f45:	0000048c 	0x48c
    1f49:	00342f06 	0x2f06
    1f4d:	23020000 	unimp
    1f51:	785f0e14 	0xe14
    1f55:	71300600 	0x600
    1f59:	02000001 	0x1
    1f5d:	0f001823 	sb	zero,134(s8)
    1f61:	00010c08 	0xc08
    1f65:	01010800 	0x800
    1f69:	01810000 	unimp
    1f6d:	2d090000 	unimp
    1f71:	00000000 	unimp
    1f75:	029a0d00 	0xd00
    1f79:	06240000 	unimp
    1f7d:	00020c34 	0xc34
    1f81:	01d70b00 	0xb00
    1f85:	36060000 	unimp
    1f89:	00000034 	0x34
    1f8d:	0b002302 	0x2302
    1f91:	00000416 	0x416
    1f95:	00343706 	0x3706
    1f99:	23020000 	unimp
    1f9d:	01ec0b04 	0xb04
    1fa1:	38060000 	unimp
    1fa5:	00000034 	0x34
    1fa9:	0b082302 	0x2302
    1fad:	00000505 	0x505
    1fb1:	00343906 	0x3906
    1fb5:	23020000 	unimp
    1fb9:	03200b0c 	0xb0c
    1fbd:	3a060000 	unimp
    1fc1:	00000034 	0x34
    1fc5:	0b102302 	0x2302
    1fc9:	0000030f 	0x30f
    1fcd:	00343b06 	0x3b06
    1fd1:	23020000 	unimp
    1fd5:	04910b14 	0xb14
    1fd9:	3c060000 	unimp
    1fdd:	00000034 	0x34
    1fe1:	0b182302 	0x2302
    1fe5:	0000036d 	0x36d
    1fe9:	00343d06 	0x3d06
    1fed:	23020000 	unimp
    1ff1:	04cc0b1c 	0xb1c
    1ff5:	3e060000 	unimp
    1ff9:	00000034 	0x34
    1ffd:	00202302 	0x2302
    2001:	0001fb10 	0xfb10
    2005:	06020800 	0x800
    2009:	00025547 	0x25547
    200d:	025e0b00 	0xb00
    2011:	48060000 	unimp
    2015:	00000255 	0x255
    2019:	0b002302 	0x2302
    201d:	00000134 	0x134
    2021:	02554906 	0x4906
    2025:	23030000 	unimp
    2029:	320b0280 	0x280
    202d:	06000004 	0x4
    2031:	0001014b 	0x1014b
    2035:	80230300 	0x300
    2039:	02200b04 	0xb04
    203d:	4e060000 	unimp
    2041:	00000101 	0x101
    2045:	04842303 	lwu	zero,264(t6)
    2049:	00ff0800 	0x800
    204d:	02650000 	unimp
    2051:	2d090000 	unimp
    2055:	1f000000 	unimp
    2059:	00c11000 	0x1000
    205d:	03180000 	unimp
    2061:	02ac5906 	0x5906
    2065:	ac0b0000 	unimp
    2069:	06000003 	lb	zero,0(s4)
    206d:	0002ac5a 	0xac5a
    2071:	00230200 	0x200
    2075:	0003c40b 	0x3c40b
    2079:	345b0600 	0x600
    207d:	02000000 	unimp
    2081:	660b0823 	sb	a1,1602(s4)
    2085:	06000002 	0x2
    2089:	0002b25d 	0xb25d
    208d:	10230200 	0x200
    2091:	0001fb0b 	vlsegstwu	vzero,zero,zero,32
    2095:	0c5e0600 	0x600
    2099:	03000002 	0x2
    209d:	00029023 	sb	ra,36(zero)
    20a1:	0265080f 	vssegstb	vzero,a5,t6,17
    20a5:	c4080000 	unimp
    20a9:	c2000002 	0x2
    20ad:	09000002 	0x2
    20b1:	0000002d 	0x2d
    20b5:	0111001f 	0x111001f
    20b9:	02c2080f 	vssegstb	vzero,a7,ra,1
    20bd:	770d0000 	unimp
    20c1:	10000003 	lb	v0,0(zero)
    20c5:	02f36906 	0x6906
    20c9:	e60b0000 	unimp
    20cd:	06000001 	0x1
    20d1:	0002f36a 	0xf36a
    20d5:	00230200 	0x200
    20d9:	0007ba0b 	vlsegstbu	vzero,zero,v1,28
    20dd:	346b0600 	0x600
    20e1:	02000000 	unimp
    20e5:	0f000823 	sb	zero,130(s8)
    20e9:	00004208 	0x4208
    20ed:	03960d00 	0xd00
    20f1:	06a80000 	unimp
    20f5:	000459a9 	0x59a9
    20f9:	705f0e00 	0xe00
    20fd:	f3aa0600 	0x600
    2101:	02000002 	0x2
    2105:	5f0e0023 	sb	a3,1408(s8)
    2109:	ab060072 	0x72
    210d:	00000034 	0x34
    2111:	0e082302 	0x2302
    2115:	0600775f 	0x600775f
    2119:	000034ac 	0x34ac
    211d:	0c230200 	0x200
    2121:	0002190b 	vlsegstw	vzero,zero,ra,2
    2125:	49ad0600 	0x600
    2129:	02000000 	unimp
    212d:	b60b1023 	sb	a1,-1212(s4)
    2131:	06000002 	0x2
    2135:	000049ae 	0x49ae
    2139:	12230200 	0x200
    213d:	66625f0e 	0x5f0e
    2141:	caaf0600 	0x600
    2145:	02000002 	0x2
    2149:	b10b1823 	sb	a1,-1210(a0)
    214d:	06000001 	0x1
    2151:	000034b0 	0x34b0
    2155:	28230200 	0x200
    2159:	0002090b 	vlsegstw	vzero,zero,ra,1
    215d:	ffb70600 	0x600
    2161:	02000000 	unimp
    2165:	8a0b3023 	sb	a1,-1844(a4)
    2169:	06000002 	0x2
    216d:	0005ecb9 	0xecb9
    2171:	38230200 	0x200
    2175:	0003080b 	vlsegstb	vzero,zero,ra,17
    2179:	1cbb0600 	0x600
    217d:	02000006 	0x6
    2181:	080b4023 	sb	a1,208(zero)
    2185:	06000004 	0x4
    2189:	000641bd 	0x41bd
    218d:	48230200 	0x200
    2191:	0004e60b 	0x4e60b
    2195:	5cbe0600 	0x600
    2199:	02000006 	0x6
    219d:	5f0e5023 	sb	a3,1428(s8)
    21a1:	06006275 	0x6275
    21a5:	0002cac1 	0xcac1
    21a9:	58230200 	0x200
    21ad:	70755f0e 	0x5f0e
    21b1:	f3c20600 	0x600
    21b5:	02000002 	0x2
    21b9:	5f0e6823 	sb	a3,1434(s8)
    21bd:	06007275 	0x7275
    21c1:	000034c3 	fmadd.d	ft0,ft0,ft0,fv1,rdn
    21c5:	70230200 	0x200
    21c9:	0001e00b 	0x1e00b
    21cd:	62c60600 	0x600
    21d1:	02000006 	0x6
    21d5:	be0b7423 	sb	a1,-1059(s4)
    21d9:	06000004 	0x4
    21dd:	000672c7 	fmsub.d	ft0,ft0,fv1,fa3,rtz
    21e1:	77230200 	0x200
    21e5:	626c5f0e 	0x5f0e
    21e9:	caca0600 	0x600
    21ed:	02000002 	0x2
    21f1:	2e0b7823 	sb	a1,734(s4)
    21f5:	06000008 	0x8
    21f9:	000034cd 	0x34cd
    21fd:	88230300 	0x300
    2201:	02370b01 	0xb01
    2205:	ce060000 	unimp
    2209:	00000034 	0x34
    220d:	018c2303 	lwu	zero,776(a2)
    2211:	0005150b 	0x5150b
    2215:	78d10600 	0x600
    2219:	03000004 	0x4
    221d:	0b019023 	sb	zero,228(t0)
    2221:	000002fa 	0x2fa
    2225:	00f4d506 	0xd506
    2229:	23030000 	unimp
    222d:	9e0b0198 	0x198
    2231:	06000003 	lb	zero,0(s4)
    2235:	0000e9d7 	0xe9d7
    2239:	9c230300 	0x300
    223d:	03000b01 	0xb01
    2241:	d8060000 	unimp
    2245:	00000034 	0x34
    2249:	01a42303 	lwu	zero,-1784(a2)
    224d:	34011200 	0x1200
    2251:	78000000 	unimp
    2255:	13000004 	0x4
    2259:	00000478 	0x478
    225d:	0000ff13 	or	zero,zero,63
    2261:	05df1300 	0x1300
    2265:	34130000 	unimp
    2269:	00000000 	unimp
    226d:	047e080f 	vssegstb	vzero,t5,tp,1
    2271:	eb140000 	unimp
    2275:	30000003 	lb	a2,0(zero)
    2279:	02430607 	0x2430607
    227d:	000005df 	0x5df
    2281:	00098f15 	0x8f15
    2285:	02450600 	0x600
    2289:	00000034 	0x34
    228d:	15002302 	0x2302
    2291:	00000228 	0x228
    2295:	cf024a06 	0x4a06
    2299:	02000006 	0x6
    229d:	a6150823 	sb	a6,-1470(s4)
    22a1:	06000002 	0x2
    22a5:	06cf024a 	0x24a
    22a9:	23020000 	unimp
    22ad:	027a1510 	0x1510
    22b1:	4a060000 	unimp
    22b5:	0006cf02 	0xcf02
    22b9:	18230200 	0x200
    22bd:	0003bf15 	0xbf15
    22c1:	024c0600 	0x600
    22c5:	00000034 	0x34
    22c9:	15202302 	0x2302
    22cd:	00000148 	0x148
    22d1:	ee024d06 	0x4d06
    22d5:	02000008 	0x8
    22d9:	68152423 	sb	a6,1737(zero)
    22dd:	06000004 	0x4
    22e1:	0034024f 	fnmadd.s	ft0,ft0,fs6,ft0,rtz
    22e5:	23020000 	unimp
    22e9:	03c91540 	0x1540
    22ed:	50060000 	unimp
    22f1:	00061102 	0x1102
    22f5:	48230200 	0x200
    22f9:	00032915 	0x2915
    22fd:	02520600 	0x600
    2301:	00000034 	0x34
    2305:	15502302 	0x2302
    2309:	000003d9 	0x3d9
    230d:	0a025406 	0x5406
    2311:	02000009 	0x9
    2315:	e5155823 	sb	a6,-426(s0)
    2319:	06000002 	0x2
    231d:	016b0257 	0x16b0257
    2321:	23020000 	unimp
    2325:	02901560 	0x1560
    2329:	58060000 	unimp
    232d:	00003402 	0x3402
    2331:	68230200 	0x200
    2335:	00050015 	0x15
    2339:	02590600 	0x600
    233d:	0000016b 	jr	zero
    2341:	15702302 	0x2302
    2345:	00000343 	0x343
    2349:	10025a06 	0x5a06
    234d:	02000009 	0x9
    2351:	ae157823 	sb	a6,-1314(s4)
    2355:	06000002 	0x2
    2359:	0034025d 	0x25d
    235d:	23030000 	unimp
    2361:	2f150180 	0x180
    2365:	06000002 	0x2
    2369:	05df025e 	0x25e
    236d:	23030000 	unimp
    2371:	5f150188 	0x188
    2375:	06000003 	lb	zero,0(s4)
    2379:	08cb0281 	0x281
    237d:	23030000 	unimp
    2381:	c1150190 	0x190
    2385:	06000000 	unimp
    2389:	02ac0284 	0x284
    238d:	23030000 	unimp
    2391:	c31503f8 	0x3f8
    2395:	06000002 	0x2
    2399:	02650285 	0x285
    239d:	23030000 	unimp
    23a1:	b4150480 	0x480
    23a5:	06000004 	0x4
    23a9:	09220288 	0x288
    23ad:	23030000 	unimp
    23b1:	11150a98 	0xa98
    23b5:	06000002 	0x2
    23b9:	068e028d 	0x28d
    23bd:	23030000 	unimp
    23c1:	f6150aa0 	0xaa0
    23c5:	06000001 	0x1
    23c9:	092e028e 	0x28e
    23cd:	23030000 	unimp
    23d1:	0f000ab8 	0xab8
    23d5:	0005e508 	0xe508
    23d9:	06010200 	0x200
    23dd:	000000b8 	0xb8
    23e1:	0459080f 	vssegstb	vzero,t5,t0,17
    23e5:	01120000 	unimp
    23e9:	00000034 	0x34
    23ed:	00000611 	0x611
    23f1:	00047813 	li	zero,286
    23f5:	00ff1300 	0x1300
    23f9:	11130000 	unimp
    23fd:	13000006 	0x6
    2401:	00000034 	0x34
    2405:	17080f00 	0xf00
    2409:	16000006 	0x6
    240d:	000005e5 	0x5e5
    2411:	05f2080f 	vssegstb	vzero,s3,s5,1
    2415:	01120000 	unimp
    2419:	0000006c 	0x6c
    241d:	00000641 	0x641
    2421:	00047813 	li	zero,286
    2425:	00ff1300 	0x1300
    2429:	6c130000 	unimp
    242d:	13000000 	unimp
    2431:	00000034 	0x34
    2435:	22080f00 	0xf00
    2439:	12000006 	0x6
    243d:	00003401 	0x3401
    2441:	00065c00 	0x5c00
    2445:	04781300 	0x1300
    2449:	ff130000 	unimp
    244d:	00000000 	unimp
    2451:	0647080f 	vssegstb	vzero,s5,v1,17
    2455:	42080000 	unimp
    2459:	72000000 	unimp
    245d:	09000006 	0x6
    2461:	0000002d 	0x2d
    2465:	42080002 	0x2
    2469:	82000000 	unimp
    246d:	09000006 	0x6
    2471:	0000002d 	0x2d
    2475:	84050000 	unimp
    2479:	06000003 	lb	zero,0(s4)
    247d:	02f90111 	0x111
    2481:	9b170000 	unimp
    2485:	18000004 	0x4
    2489:	c9011506 	0x1506
    248d:	15000006 	0x6
    2491:	000003ac 	0x3ac
    2495:	c9011706 	0x1706
    2499:	02000006 	0x6
    249d:	bc150023 	sb	a6,-1088(t4)
    24a1:	06000002 	0x2
    24a5:	00340118 	0x118
    24a9:	23020000 	unimp
    24ad:	037e1508 	0x1508
    24b1:	19060000 	unimp
    24b5:	0006cf01 	0xcf01
    24b9:	10230200 	0x200
    24bd:	8e080f00 	0xf00
    24c1:	0f000006 	0x6
    24c5:	00068208 	0x8208
    24c9:	01401700 	0x1700
    24cd:	060e0000 	unimp
    24d1:	07100131 	0x131
    24d5:	f2150000 	unimp
    24d9:	06000003 	lb	zero,0(s4)
    24dd:	07100132 	0x132
    24e1:	23020000 	unimp
    24e5:	041f1500 	0x1500
    24e9:	33060000 	unimp
    24ed:	00071001 	0x1001
    24f1:	06230200 	0x200
    24f5:	00043b15 	0x3b15
    24f9:	01340600 	0x600
    24fd:	00000050 	0x50
    2501:	000c2302 	0x2302
    2505:	00005008 	0x5008
    2509:	00072000 	0x2000
    250d:	002d0900 	0x900
    2511:	00020000 	unimp
    2515:	6206d818 	0xd818
    2519:	00085102 	0x5102
    251d:	047f1500 	0x1500
    2521:	64060000 	unimp
    2525:	00005702 	0x5702
    2529:	00230200 	0x200
    252d:	00042515 	0x2515
    2531:	02650600 	0x600
    2535:	000005df 	0x5df
    2539:	15082302 	0x2302
    253d:	000002d8 	0x2d8
    2541:	51026606 	0x6606
    2545:	02000008 	0x8
    2549:	d7151023 	sb	a6,-700(s8)
    254d:	06000004 	0x4
    2551:	01810267 	j	62959 <_end+0x513fd>
    2555:	23020000 	unimp
    2559:	0334152c 	0x152c
    255d:	68060000 	unimp
    2561:	00003402 	0x3402
    2565:	50230200 	0x200
    2569:	0003a715 	0xa715
    256d:	02690600 	0x600
    2571:	00000065 	0x65
    2575:	15582302 	0x2302
    2579:	000004ed 	0x4ed
    257d:	d5026a06 	0x6a06
    2581:	02000006 	0x6
    2585:	b2156023 	sb	a6,-1192(a4)
    2589:	06000003 	lb	zero,0(s4)
    258d:	00e9026b 	0xe9026b
    2591:	23020000 	unimp
    2595:	04f21570 	0x1570
    2599:	6c060000 	unimp
    259d:	0000e902 	0xe902
    25a1:	78230200 	0x200
    25a5:	0001c915 	0xc915
    25a9:	026d0600 	0x600
    25ad:	000000e9 	0xe9
    25b1:	01802303 	lwu	zero,8(a2)
    25b5:	0004aa15 	0xaa15
    25b9:	026e0600 	0x600
    25bd:	00000861 	0x861
    25c1:	01882303 	lwu	zero,520(a2)
    25c5:	0002cc15 	0xcc15
    25c9:	026f0600 	0x600
    25cd:	00000871 	0x871
    25d1:	01902303 	lwu	zero,1032(a2)
    25d5:	00044815 	0x4815
    25d9:	02700600 	0x600
    25dd:	00000034 	0x34
    25e1:	01a82303 	lwu	zero,-1528(a2)
    25e5:	00025015 	0x5015
    25e9:	02710600 	0x600
    25ed:	000000e9 	0xe9
    25f1:	01ac2303 	lwu	zero,-1272(a2)
    25f5:	0001ba15 	0xba15
    25f9:	02720600 	0x600
    25fd:	000000e9 	0xe9
    2601:	01b42303 	lwu	zero,-760(a2)
    2605:	00023f15 	0x3f15
    2609:	02730600 	0x600
    260d:	000000e9 	0xe9
    2611:	01bc2303 	lwu	zero,-248(a2)
    2615:	00015315 	0x5315
    2619:	02740600 	0x600
    261d:	000000e9 	0xe9
    2621:	01c42303 	lwu	zero,264(a3)
    2625:	00016215 	0x6215
    2629:	02750600 	0x600
    262d:	000000e9 	0xe9
    2631:	01cc2303 	lwu	zero,776(a3)
    2635:	00036415 	0x6415
    2639:	02760600 	0x600
    263d:	00000034 	0x34
    2641:	01d42303 	lwu	zero,1288(a3)
    2645:	05e50800 	0x800
    2649:	08610000 	unimp
    264d:	2d090000 	unimp
    2651:	19000000 	unimp
    2655:	05e50800 	0x800
    2659:	08710000 	unimp
    265d:	2d090000 	unimp
    2661:	07000000 	unimp
    2665:	05e50800 	0x800
    2669:	08810000 	unimp
    266d:	2d090000 	unimp
    2671:	17000000 	unimp
    2675:	01681900 	0x1900
    2679:	ab027b06 	0x7b06
    267d:	15000008 	0x8
    2681:	00000319 	0x319
    2685:	ab027e06 	0x7e06
    2689:	02000008 	0x8
    268d:	a1150023 	sb	a6,-1472(a0)
    2691:	06000004 	0x4
    2695:	08bb027f 	0x8bb027f
    2699:	23030000 	unimp
    269d:	080001f0 	0x1f0
    26a1:	000002f3 	vsetvl	zero,zero
    26a5:	000008bb 	0x8bb
    26a9:	00002d09 	0x2d09
    26ad:	08001d00 	0x1d00
    26b1:	00000057 	0x57
    26b5:	000008cb 	fnmsub.d	ft0,ft0,ft0,ft0,rmm
    26b9:	00002d09 	0x2d09
    26bd:	1a001d00 	0x1d00
    26c1:	60060168 	0x168
    26c5:	0008ee02 	0xee02
    26c9:	03eb1b00 	0x1b00
    26cd:	77060000 	unimp
    26d1:	00072002 	0x2002
    26d5:	04c41b00 	0x1b00
    26d9:	80060000 	unimp
    26dd:	00088102 	0x8102
    26e1:	e5080000 	unimp
    26e5:	fe000005 	0x5
    26e9:	09000008 	0x8
    26ed:	0000002d 	0x2d
    26f1:	011c0018 	0x18
    26f5:	0000090a 	0x90a
    26f9:	00047813 	li	zero,286
    26fd:	080f0000 	unimp
    2701:	000008fe 	0x8fe
    2705:	016b080f 	vssegstb	vzero,a1,s1,17
    2709:	011c0000 	unimp
    270d:	00000922 	0x922
    2711:	00003413 	li	zero,13
    2715:	080f0000 	unimp
    2719:	00000928 	0x928
    271d:	0916080f 	vssegstb	vra,a0,a7,1
    2721:	82080000 	unimp
    2725:	3e000006 	0x6
    2729:	09000009 	0x9
    272d:	0000002d 	0x2d
    2731:	011d0002 	0x2
    2735:	00000663 	bltz	zero,2737 <$LLST2+0x56a>
    2739:	bc011301 	0x1301
    273d:	00000103 	lw	zero,0(zero)
    2741:	4c000000 	unimp
    2745:	00000105 	0x105
    2749:	60000000 	unimp
    274d:	eb000002 	0x2
    2751:	1e000009 	0x9
    2755:	0000047a 	0x47a
    2759:	00341301 	0x1301
    275d:	02990000 	unimp
    2761:	641f0000 	unimp
    2765:	ff130100 	0x100
    2769:	bc000000 	unimp
    276d:	20000002 	0x2
    2771:	16010070 	0x70
    2775:	000002ac 	0x2ac
    2779:	00000305 	0x305
    277d:	00067421 	0x7421
    2781:	eb170100 	0x100
    2785:	61000009 	0x9
    2789:	21000003 	lb	a0,0(a0)
    278d:	00000204 	0x204
    2791:	09f11801 	0x1801
    2795:	03aa0000 	unimp
    2799:	6e200000 	unimp
    279d:	34190100 	0x100
    27a1:	12000000 	unimp
    27a5:	20000004 	0x4
    27a9:	1a010069 	0x69
    27ad:	00000034 	0x34
    27b1:	00000481 	0x481
    27b5:	006e6620 	0x6620
    27b9:	02c41b01 	0x1b01
    27bd:	04bf0000 	unimp
    27c1:	7a220000 	unimp
    27c5:	01000006 	0x6
    27c9:	0000231d 	0x231d
    27cd:	69200000 	unimp
    27d1:	0100646e 	0x646e
    27d5:	0000342a 	0x342a
    27d9:	00051c00 	0x1c00
    27dd:	0f000000 	unimp
    27e1:	0002ac08 	0xac08
    27e5:	0c080f00 	0xf00
    27e9:	24000002 	0x2
    27ed:	00000455 	0x455
    27f1:	05033206 	0x3206
    27f5:	0100000a 	0xa
    27f9:	04781601 	0x1601
    27fd:	55240000 	unimp
    2801:	06000004 	0x4
    2805:	0a050332 	0x332
    2809:	01010000 	unimp
	...

000000000000280e <$Ldebug_info0>:
    280e:	00001581 	0x1581
    2812:	071e0002 	0x2
    2816:	01080000 	unimp
    281a:	000000c9 	0xc9
    281e:	00089901 	0x9901
    2822:	00090c00 	0xc00
    2826:	01054c00 	0x4c00
    282a:	00000000 	unimp
    282e:	010b3400 	0x3400
    2832:	00000000 	unimp
    2836:	000d9200 	0x9200
    283a:	02100200 	0x200
    283e:	00005217 	0x5217
    2842:	02e60300 	0x300
    2846:	19020000 	unimp
    284a:	00000052 	0x52
    284e:	04002302 	0x2302
    2852:	00727265 	0x7265
    2856:	00521a02 	0x1a02
    285a:	23020000 	unimp
    285e:	08050008 	0x8
    2862:	00000505 	0x505
    2866:	06b20600 	0x600
    286a:	1b020000 	unimp
    286e:	0000002d 	0x2d
    2872:	b1060105 	0x105
    2876:	05000000 	unimp
    287a:	00af0801 	0x801
    287e:	02050000 	unimp
    2882:	0000ea05 	0xea05
    2886:	07020500 	0x500
    288a:	0000000e 	0xe
    288e:	69050407 	0x69050407
    2892:	0500746e 	0x746e
    2896:	00a20704 	0x704
    289a:	08050000 	unimp
    289e:	00009d07 	flw	ft0,39(zero)
    28a2:	07080500 	0x500
    28a6:	00000098 	0x98
    28aa:	00075306 	0x5306
    28ae:	950c0300 	0x300
    28b2:	06000000 	unimp
    28b6:	0000086f 	jal	28d6 <$Ldebug_info0+0xc8>
    28ba:	00871503 	lw	zero,453(v0)
    28be:	82060000 	unimp
    28c2:	03000006 	0x6
    28c6:	00008718 	0x8718
    28ca:	07f20600 	0x600
    28ce:	1b030000 	unimp
    28d2:	00000095 	0x95
    28d6:	00080b06 	0xb06
    28da:	d3210300 	0x300
    28de:	05000000 	unimp
    28e2:	00000508 	0x508
    28e6:	e8060000 	unimp
    28ea:	04000008 	0x8
    28ee:	00008038 	0x8038
    28f2:	09080800 	0x800
    28f6:	00006b08 	0x6b08
    28fa:	f3080900 	0x900
    28fe:	05000000 	unimp
    2902:	00b80601 	0x601
    2906:	08090000 	unimp
    290a:	00000100 	0x100
    290e:	0000f30a 	0xf30a
    2912:	08ea0600 	0x600
    2916:	d4050000 	unimp
    291a:	0000008e 	0x8e
    291e:	0007c006 	0xc006
    2922:	52960500 	0x500
    2926:	06000000 	unimp
    292a:	0000072e 	0x72e
    292e:	008e6806 	0x6806
    2932:	88060000 	unimp
    2936:	06000009 	0x9
    293a:	00007985 	0x7985
    293e:	07f30600 	0x600
    2942:	a2060000 	unimp
    2946:	000000bd 	0xbd
    294a:	00075506 	0x5506
    294e:	9ca30600 	0x600
    2952:	06000000 	unimp
    2956:	00000871 	0x871
    295a:	00a7a406 	0xa406
    295e:	84060000 	unimp
    2962:	06000006 	0x6
    2966:	0000b2a5 	0xb2a5
    296a:	09060600 	0x600
    296e:	ab060000 	unimp
    2972:	00000080 	0x80
    2976:	0008e906 	0xe906
    297a:	dab10600 	0x600
    297e:	06000000 	unimp
    2982:	000008da 	0x8da
    2986:	0087bf06 	0xbf06
    298a:	1f060000 	unimp
    298e:	06000007 	0x6000007
    2992:	000079c4 	0x79c4
    2996:	07470b00 	0xb00
    299a:	03060000 	unimp
    299e:	00005201 	0x5201
    29a2:	09010c00 	0xc00
    29a6:	07880000 	unimp
    29aa:	00029e19 	0x9e19
    29ae:	08e10300 	0x300
    29b2:	1b070000 	unimp
    29b6:	0000013c 	0x13c
    29ba:	03002302 	0x2302
    29be:	000006d9 	0x6d9
    29c2:	01261c07 	0x1261c07
    29c6:	23020000 	unimp
    29ca:	08170308 	0x308
    29ce:	1e070000 	unimp
    29d2:	0000017e 	0x17e
    29d6:	030a2302 	0x2302
    29da:	000007d0 	0x7d0
    29de:	01731f07 	0x1731f07
    29e2:	23020000 	unimp
    29e6:	075b030c 	0x30c
    29ea:	24070000 	unimp
    29ee:	00000147 	0x147
    29f2:	03102302 	0x2302
    29f6:	00000880 	0x880
    29fa:	01522507 	flw	ft0,1161(a1)
    29fe:	23020000 	unimp
    2a02:	07270314 	0x314
    2a06:	27070000 	unimp
    2a0a:	00000080 	0x80
    2a0e:	03182302 	0x2302
    2a12:	00000858 	0x858
    2a16:	013c2907 	flw	ft0,-246(a0)
    2a1a:	23020000 	unimp
    2a1e:	07b80320 	0x320
    2a22:	2a070000 	unimp
    2a26:	00000131 	0x131
    2a2a:	03282302 	0x2302
    2a2e:	0000082c 	0x82c
    2a32:	00d32c07 	0xd32c07
    2a36:	23020000 	unimp
    2a3a:	06a80330 	0x330
    2a3e:	2d070000 	unimp
    2a42:	000000d3 	fadd.d	ft0,ft0,ft0,rne
    2a46:	03382302 	0x2302
    2a4a:	000007a7 	0x7a7
    2a4e:	00c82e07 	0xc82e07
    2a52:	23020000 	unimp
    2a56:	07620340 	0x340
    2a5a:	2f070000 	unimp
    2a5e:	000000d3 	fadd.d	ft0,ft0,ft0,rne
    2a62:	03482302 	0x2302
    2a66:	000008f1 	0x8f1
    2a6a:	00c83007 	0xc83007
    2a6e:	23020000 	unimp
    2a72:	076c0350 	0x350
    2a76:	31070000 	unimp
    2a7a:	000000d3 	fadd.d	ft0,ft0,ft0,rne
    2a7e:	03582302 	0x2302
    2a82:	00000841 	0x841
    2a86:	00c83207 	0xc83207
    2a8a:	23020000 	unimp
    2a8e:	07760360 	0x360
    2a92:	33070000 	unimp
    2a96:	000000d3 	fadd.d	ft0,ft0,ft0,rne
    2a9a:	03682302 	0x2302
    2a9e:	00000887 	0x887
    2aa2:	029e3407 	0x29e3407
    2aa6:	23020000 	unimp
    2aaa:	d30d0070 	0x70
    2aae:	ae000000 	unimp
    2ab2:	0e000002 	0x2
    2ab6:	0000008e 	0x8e
    2aba:	740f0002 	0x2
    2abe:	2000736d 	0x736d
    2ac2:	02f31008 	0x1008
    2ac6:	37030000 	unimp
    2aca:	08000008 	0x8
    2ace:	00011b11 	0x1b11
    2ad2:	00230200 	0x200
    2ad6:	00070303 	lwu	zero,448(zero)
    2ada:	1b120800 	0x800
    2ade:	02000001 	0x1
    2ae2:	bb030823 	sb	ra,-1086(t0)
    2ae6:	08000006 	0x6
    2aea:	00011b13 	or	zero,zero,70
    2aee:	10230200 	0x200
    2af2:	00088e03 	lbu	zero,547(zero)
    2af6:	1b140800 	0x800
    2afa:	02000001 	0x1
    2afe:	0c001823 	sb	zero,134(t4)
    2b02:	000007b0 	0x7b0
    2b06:	1c110910 	0x910
    2b0a:	03000003 	lb	zero,0(t0)
    2b0e:	000007eb 	0x7eb
    2b12:	00c81209 	0x1209
    2b16:	23020000 	unimp
    2b1a:	084a0300 	0x300
    2b1e:	13090000 	unimp
    2b22:	00000189 	0x189
    2b26:	00082302 	0x2302
    2b2a:	0008d40c 	0xd40c
    2b2e:	190a1000 	0x1000
    2b32:	00000361 	0x361
    2b36:	0007ab03 	lwu	zero,490(zero)
    2b3a:	c81b0a00 	0xa00
    2b3e:	02000000 	unimp
    2b42:	3f030023 	sb	ra,960(s8)
    2b46:	0a000007 	0xa000007
    2b4a:	0000791c 	0x791c
    2b4e:	08230200 	0x200
    2b52:	00073603 	lbu	zero,461(zero)
    2b56:	721d0a00 	0xa00
    2b5a:	02000000 	unimp
    2b5e:	c6030a23 	0xc6030a23
    2b62:	0a000006 	0x6
    2b66:	0000721e 	0x721e
    2b6a:	0c230200 	0x200
    2b6e:	078c0c00 	0xc00
    2b72:	0b100000 	unimp
    2b76:	00038a0c 	0x8a0c
    2b7a:	09700300 	0x300
    2b7e:	0e0b0000 	unimp
    2b82:	000000c8 	0xc8
    2b86:	03002302 	0x2302
    2b8a:	00000860 	0x860
    2b8e:	00c80f0b 	0xc80f0b
    2b92:	23020000 	unimp
    2b96:	8a100008 	0x8
    2b9a:	02000006 	0x6
    2b9e:	0059011e 	0x11e
    2ba2:	18030000 	unimp
    2ba6:	11000004 	0x4
    2baa:	1e02006e 	0x6e
    2bae:	00000052 	0x52
    2bb2:	30615f11 	0x5f11
    2bb6:	521e0200 	0x200
    2bba:	11000000 	unimp
    2bbe:	0031615f 	0x31615f
    2bc2:	00521e02 	0x1e02
    2bc6:	5f110000 	unimp
    2bca:	02003261 	0x3261
    2bce:	0000521e 	0x521e
    2bd2:	615f1100 	0x1100
    2bd6:	1e020033 	add	v1,s4,ra
    2bda:	00000052 	0x52
    2bde:	0002e612 	0xe612
    2be2:	52200200 	0x200
    2be6:	13000000 	unimp
    2bea:	00727265 	0x7265
    2bee:	00522102 	0x2102
    2bf2:	61130000 	unimp
    2bf6:	22020030 	0x30
    2bfa:	00000052 	0x52
    2bfe:	00316113 	slt	zero,zero,-936
    2c02:	00522302 	0x2302
    2c06:	61130000 	unimp
    2c0a:	24020032 	0x32
    2c0e:	00000052 	0x52
    2c12:	00336113 	slt	zero,zero,-808
    2c16:	00522502 	0x2502
    2c1a:	73130000 	unimp
    2c1e:	592c0200 	0x200
    2c22:	00000000 	unimp
    2c26:	079a0114 	0x114
    2c2a:	4a090000 	unimp
    2c2e:	00008001 	0x8001
    2c32:	04420100 	0x100
    2c36:	74150000 	unimp
    2c3a:	35010070 	0x70
    2c3e:	00044201 	0x4201
    2c42:	7a741500 	0x1500
    2c46:	35010070 	0x70
    2c4a:	0000e501 	0xe501
    2c4e:	08090000 	unimp
    2c52:	000002f3 	vsetvl	zero,zero
    2c56:	0006e010 	0xe010
    2c5a:	015d0100 	0x100
    2c5e:	00000052 	0x52
    2c62:	00049003 	lb	zero,292(zero)
    2c66:	006e1100 	0x1100
    2c6a:	00525d01 	0x5d01
    2c6e:	61110000 	unimp
    2c72:	525d0100 	0x100
    2c76:	11000000 	unimp
    2c7a:	5d010062 	0x62
    2c7e:	00000052 	0x52
    2c82:	01006311 	0x6311
    2c86:	0000525d 	0x525d
    2c8a:	00641100 	0x1100
    2c8e:	00525d01 	0x5d01
    2c92:	73130000 	unimp
    2c96:	595f0100 	0x100
    2c9a:	00000000 	unimp
    2c9e:	07e60116 	0x116
    2ca2:	64010000 	unimp
    2ca6:	00008001 	0x8001
    2caa:	01054c00 	0x4c00
    2cae:	00000000 	unimp
    2cb2:	0105b800 	0xb800
    2cb6:	00000000 	unimp
    2cba:	00055200 	0x5200
    2cbe:	0005b300 	0xb300
    2cc2:	07fd1700 	0x1700
    2cc6:	64010000 	unimp
    2cca:	000000fa 	0xfa
    2cce:	0000058a 	0x58a
    2cd2:	00021a17 	0x21a17
    2cd6:	80640100 	0x100
    2cda:	c0000000 	unimp
    2cde:	17000005 	0x5
    2ce2:	000007d3 	0x7d3
    2ce6:	00806401 	0x6401
    2cea:	05e30000 	unimp
    2cee:	48180000 	unimp
    2cf2:	74000004 	0x4
    2cf6:	00000105 	0x105
    2cfa:	40000000 	unimp
    2cfe:	01000000 	unimp
    2d02:	047d1966 	0x1966
    2d06:	06060000 	unimp
    2d0a:	74190000 	unimp
    2d0e:	4c000004 	0x4
    2d12:	19000006 	0x6
    2d16:	0000046b 	jalr	zero,zero,1
    2d1a:	00000692 	0x692
    2d1e:	00046219 	0x6219
    2d22:	0006ca00 	0xca00
    2d26:	04591a00 	0x1a00
    2d2a:	1b050000 	unimp
    2d2e:	00000080 	0x80
    2d32:	0004861c 	0x861c
    2d36:	0006ed00 	0xed00
    2d3a:	038a1800 	0x1800
    2d3e:	05740000 	unimp
    2d42:	00000001 	0x1
    2d46:	00c00000 	unimp
    2d4a:	5f010000 	unimp
    2d4e:	0003c519 	0xc519
    2d52:	00060600 	0x600
    2d56:	03ba1900 	0x1900
    2d5a:	064c0000 	unimp
    2d5e:	af190000 	unimp
    2d62:	92000003 	lb	t6,0(a4)
    2d66:	19000006 	0x6
    2d6a:	000003a4 	0x3a4
    2d6e:	000006ca 	0x6ca
    2d72:	00039b1a 	0x9b1a
    2d76:	f01b0500 	0x500
    2d7a:	1c000000 	unimp
    2d7e:	000003d0 	0x3d0
    2d82:	00000744 	0x744
    2d86:	0003db1c 	0xdb1c
    2d8a:	00076700 	0x6700
    2d8e:	03e61c00 	0x1c00
    2d92:	078a0000 	unimp
    2d96:	f01c0000 	unimp
    2d9a:	ad000003 	lb	s1,0(s0)
    2d9e:	1c000007 	0x1c000007
    2da2:	000003fa 	0x3fa
    2da6:	000007d0 	0x7d0
    2daa:	0004041c 	0x41c
    2dae:	0007f300 	0xf300
    2db2:	040e1c00 	0x1c00
    2db6:	06ed0000 	unimp
    2dba:	00000000 	unimp
    2dbe:	16000000 	unimp
    2dc2:	00079401 	0x9401
    2dc6:	01750c00 	0xc00
    2dca:	00000131 	0x131
    2dce:	000105b8 	0x5b8
    2dd2:	00000000 	unimp
    2dd6:	000105fc 	0x5fc
    2dda:	00000000 	unimp
    2dde:	00000816 	0x816
    2de2:	000006c8 	0x6c8
    2de6:	0002b717 	0x2b717
    2dea:	806e0100 	0x100
    2dee:	4e000000 	unimp
    2df2:	1d000008 	0x8
    2df6:	00727470 	0x7470
    2dfa:	01316e01 	0x6e01
    2dfe:	08710000 	unimp
    2e02:	641d0000 	unimp
    2e06:	01007269 	0x7269
    2e0a:	0000806e 	0x806e
    2e0e:	00089400 	0x9400
    2e12:	04481800 	0x1800
    2e16:	05c80000 	unimp
    2e1a:	00000001 	0x1
    2e1e:	01200000 	unimp
    2e22:	70010000 	unimp
    2e26:	00047d1a 	0x7d1a
    2e2a:	741e0000 	unimp
    2e2e:	1e000004 	0x4
    2e32:	0000046b 	jalr	zero,zero,1
    2e36:	0004621e 	0x621e
    2e3a:	04591a00 	0x1a00
    2e3e:	1b130000 	unimp
    2e42:	00000150 	0x150
    2e46:	0004861c 	0x861c
    2e4a:	0008b700 	0xb700
    2e4e:	038a1f00 	0x1f00
    2e52:	05c80000 	unimp
    2e56:	00000001 	0x1
    2e5a:	05dc0000 	unimp
    2e5e:	00000001 	0x1
    2e62:	5f010000 	unimp
    2e66:	0003c51a 	0xc51a
    2e6a:	ba1e0000 	unimp
    2e6e:	1e000003 	lb	v1,0(s4)
    2e72:	000003af 	0x3af
    2e76:	0003a41e 	0xa41e
    2e7a:	039b1a00 	0x1a00
    2e7e:	20130000 	unimp
    2e82:	000105c8 	0x5c8
    2e86:	00000000 	unimp
    2e8a:	000105dc 	0x5dc
    2e8e:	00000000 	unimp
    2e92:	0003d01c 	0xd01c
    2e96:	00092500 	0x2500
    2e9a:	03db1c00 	0x1c00
    2e9e:	09480000 	unimp
    2ea2:	e61c0000 	unimp
    2ea6:	6b000003 	lb	t1,0(t0)
    2eaa:	1c000009 	0x9
    2eae:	000003f0 	0x3f0
    2eb2:	0000098e 	0x98e
    2eb6:	0003fa1c 	0xfa1c
    2eba:	0009b100 	0xb100
    2ebe:	04041c00 	0x1c00
    2ec2:	09d40000 	unimp
    2ec6:	0e1c0000 	unimp
    2eca:	f7000004 	0x4
    2ece:	00000009 	0x9
    2ed2:	00000000 	unimp
    2ed6:	028b0116 	0x116
    2eda:	860c0000 	unimp
    2ede:	00016801 	0x6801
    2ee2:	0105fc00 	0xfc00
    2ee6:	00000000 	unimp
    2eea:	01064400 	0x4400
    2eee:	00000000 	unimp
    2ef2:	000a7c00 	0x7c00
    2ef6:	0007dd00 	0xdd00
    2efa:	02b71700 	0x1700
    2efe:	78010000 	unimp
    2f02:	00000080 	0x80
    2f06:	00000ab4 	0xab4
    2f0a:	7274701d 	0x701d
    2f0e:	e5780100 	0x100
    2f12:	d7000000 	unimp
    2f16:	1d00000a 	0xa
    2f1a:	006e656c 	0x656c
    2f1e:	01057801 	0x7801
    2f22:	0afa0000 	unimp
    2f26:	48180000 	unimp
    2f2a:	0c000004 	0x4
    2f2e:	00000106 	0x106
    2f32:	80000000 	unimp
    2f36:	01000001 	0x1
    2f3a:	047d1a7a 	0x1a7a
    2f3e:	1e000000 	unimp
    2f42:	00000474 	0x474
    2f46:	00046b1e 	0x6b1e
    2f4a:	04621e00 	0x1e00
    2f4e:	591a0000 	unimp
    2f52:	03000004 	0x4
    2f56:	0001b01b 	addw	zero,zero,108
    2f5a:	04861c00 	0x1c00
    2f5e:	0b1d0000 	unimp
    2f62:	8a1f0000 	unimp
    2f66:	0c000003 	lb	ra,0(t4)
    2f6a:	00000106 	0x106
    2f6e:	20000000 	unimp
    2f72:	00000106 	0x106
    2f76:	01000000 	unimp
    2f7a:	03c51a5f 	0x3c51a5f
    2f7e:	1e000000 	unimp
    2f82:	000003ba 	0x3ba
    2f86:	0003af1e 	0xaf1e
    2f8a:	03a41e00 	0x1e00
    2f8e:	9b1a0000 	unimp
    2f92:	03000003 	lb	zero,0(t0)
    2f96:	01060c20 	0xc20
    2f9a:	00000000 	unimp
    2f9e:	01062000 	0x2000
    2fa2:	00000000 	unimp
    2fa6:	03d01c00 	0x1c00
    2faa:	0b740000 	unimp
    2fae:	db1c0000 	unimp
    2fb2:	97000003 	lb	t6,0(s8)
    2fb6:	1c00000b 	vlb	vv1,t4
    2fba:	000003e6 	0x3e6
    2fbe:	00000bba 	0xbba
    2fc2:	0003f01c 	0xf01c
    2fc6:	000bdd00 	0xdd00
    2fca:	03fa1c00 	0x1c00
    2fce:	0c000000 	unimp
    2fd2:	041c0000 	unimp
    2fd6:	23000004 	0x4
    2fda:	1c00000c 	0xc
    2fde:	0000040e 	0x40e
    2fe2:	00000b1d 	0xb1d
    2fe6:	00000000 	unimp
    2fea:	09011600 	0x1600
    2fee:	0c000003 	lb	ra,0(t4)
    2ff2:	016801b3 	sltu	zero,a1,s0
    2ff6:	06440000 	unimp
    2ffa:	00000001 	0x1
    2ffe:	068c0000 	unimp
    3002:	00000001 	0x1
    3006:	0c460000 	unimp
    300a:	08f20000 	unimp
    300e:	b7170000 	unimp
    3012:	01000002 	0x2
    3016:	00008082 	0x8082
    301a:	000c7e00 	0x7e00
    301e:	74701d00 	0x1d00
    3022:	82010072 	0x72
    3026:	000008f2 	0x8f2
    302a:	00000ca1 	0xca1
    302e:	6e656c1d 	0x6c1d
    3032:	05820100 	0x100
    3036:	c4000001 	0x1
    303a:	1800000c 	0xc
    303e:	00000448 	0x448
    3042:	00010654 	0x654
    3046:	00000000 	unimp
    304a:	000001e0 	0x1e0
    304e:	7d1a8401 	0x8401
    3052:	00000004 	0x4
    3056:	0004741e 	0x741e
    305a:	046b1e00 	0x1e00
    305e:	621e0000 	unimp
    3062:	1a000004 	0x4
    3066:	00000459 	0x459
    306a:	02101b04 	0x1b04
    306e:	861c0000 	unimp
    3072:	e7000004 	0x4
    3076:	1f00000c 	0xc
    307a:	0000038a 	0x38a
    307e:	00010654 	0x654
    3082:	00000000 	unimp
    3086:	00010668 	0x668
    308a:	00000000 	unimp
    308e:	c51a5f01 	0x5f01
    3092:	00000003 	lb	zero,0(zero)
    3096:	0003ba1e 	0xba1e
    309a:	03af1e00 	0x1e00
    309e:	a41e0000 	unimp
    30a2:	1a000003 	lb	v1,0(a4)
    30a6:	0000039b 	0x39b
    30aa:	06542004 	0x2004
    30ae:	00000001 	0x1
    30b2:	06680000 	unimp
    30b6:	00000001 	0x1
    30ba:	d01c0000 	unimp
    30be:	3e000003 	lb	a3,0(s4)
    30c2:	1c00000d 	0xd
    30c6:	000003db 	0x3db
    30ca:	00000d61 	0xd61
    30ce:	0003e61c 	0xe61c
    30d2:	000d8400 	0x8400
    30d6:	03f01c00 	0x1c00
    30da:	0da70000 	unimp
    30de:	fa1c0000 	unimp
    30e2:	ca000003 	lb	s5,0(a4)
    30e6:	1c00000d 	0xd
    30ea:	00000404 	0x404
    30ee:	00000ded 	0xded
    30f2:	00040e1c 	0xe1c
    30f6:	000ce700 	0xe700
    30fa:	00000000 	unimp
    30fe:	08090000 	unimp
    3102:	000008f8 	0x8f8
    3106:	00011621 	0x1621
    310a:	07000009 	0x9
    310e:	00800197 	0x800197
    3112:	068c0000 	unimp
    3116:	00000001 	0x1
    311a:	06d80000 	unimp
    311e:	00000001 	0x1
    3122:	0e100000 	unimp
    3126:	0a000000 	unimp
    312a:	b7170000 	unimp
    312e:	01000002 	0x2
    3132:	0000808d 	0x808d
    3136:	000e4800 	0x4800
    313a:	74731d00 	0x1d00
    313e:	008d0100 	0x100
    3142:	6b00000a 	0xa
    3146:	1800000e 	0xe
    314a:	00000448 	0x448
    314e:	0001069c 	0x69c
    3152:	00000000 	unimp
    3156:	00000240 	0x240
    315a:	7d1a8f01 	0x8f01
    315e:	00000004 	0x4
    3162:	0004741a 	0x741a
    3166:	6b1e0000 	unimp
    316a:	1e000004 	0x4
    316e:	00000462 	0x462
    3172:	0004591a 	0x591a
    3176:	701b1c00 	0x1c00
    317a:	1c000002 	0x2
    317e:	00000486 	0x486
    3182:	00000e8e 	0xe8e
    3186:	00038a1f 	0x38a1f
    318a:	01069c00 	0x9c00
    318e:	00000000 	unimp
    3192:	0106b400 	0xb400
    3196:	00000000 	unimp
    319a:	1a5f0100 	0x100
    319e:	000003c5 	0x3c5
    31a2:	03ba1a00 	0x1a00
    31a6:	1e000000 	unimp
    31aa:	000003af 	0x3af
    31ae:	0003a41e 	0xa41e
    31b2:	039b1a00 	0x1a00
    31b6:	201c0000 	unimp
    31ba:	0001069c 	0x69c
    31be:	00000000 	unimp
    31c2:	000106b4 	0x6b4
    31c6:	00000000 	unimp
    31ca:	0003d01c 	0xd01c
    31ce:	000ee500 	0xe500
    31d2:	03db1c00 	0x1c00
    31d6:	0f080000 	unimp
    31da:	e61c0000 	unimp
    31de:	2b000003 	lb	a1,0(t0)
    31e2:	1c00000f 	vsb	vv1,t4
    31e6:	000003f0 	0x3f0
    31ea:	00000f4e 	0xf4e
    31ee:	0003fa1c 	0xfa1c
    31f2:	000f7100 	0x7100
    31f6:	04041c00 	0x1c00
    31fa:	0f940000 	unimp
    31fe:	0e1c0000 	unimp
    3202:	8e000004 	0x4
    3206:	0000000e 	0xe
    320a:	00000000 	unimp
    320e:	01950809 	0x809
    3212:	01160000 	unimp
    3216:	00000901 	0x901
    321a:	80019a07 	0x80019a07
    321e:	d8000000 	unimp
    3222:	00000106 	0x106
    3226:	38000000 	unimp
    322a:	00000107 	flw	ft0,0(zero)
    322e:	b7000000 	unimp
    3232:	2300000f 	vsb	va0,t0
    3236:	1700000b 	vlb	vv0,s8
    323a:	000002b7 	lui	zero,0x5
    323e:	00fa9701 	0x9701
    3242:	0fef0000 	unimp
    3246:	731d0000 	unimp
    324a:	97010074 	0x74
    324e:	00000a00 	0xa00
    3252:	00001038 	0x1038
    3256:	00044818 	0x4818
    325a:	0106f800 	0xf800
    325e:	00000000 	unimp
    3262:	0002a000 	0xa000
    3266:	1a990100 	0x100
    326a:	0000047d 	0x47d
    326e:	04741900 	0x1900
    3272:	10810000 	unimp
    3276:	6b190000 	unimp
    327a:	b7000004 	0x4
    327e:	19000010 	0x10
    3282:	00000462 	0x462
    3286:	000010ef 	jal	32c8 <$Ldebug_info0+0xaba>
    328a:	0004591a 	0x591a
    328e:	d01b1200 	0x1200
    3292:	1c000002 	0x2
    3296:	00000486 	0x486
    329a:	00001125 	0x1125
    329e:	00038a1f 	0x38a1f
    32a2:	0106f800 	0xf800
    32a6:	00000000 	unimp
    32aa:	01071400 	0x1400
    32ae:	00000000 	unimp
    32b2:	1a5f0100 	0x100
    32b6:	000003c5 	0x3c5
    32ba:	03ba1900 	0x1900
    32be:	10810000 	unimp
    32c2:	af190000 	unimp
    32c6:	b7000003 	lb	s2,0(s8)
    32ca:	19000010 	0x10
    32ce:	000003a4 	0x3a4
    32d2:	000010ef 	jal	3314 <$Ldebug_info0+0xb06>
    32d6:	00039b1a 	0x9b1a
    32da:	f8201200 	0x1200
    32de:	00000106 	0x106
    32e2:	14000000 	unimp
    32e6:	00000107 	flw	ft0,0(zero)
    32ea:	1c000000 	unimp
    32ee:	000003d0 	0x3d0
    32f2:	0000117c 	0x117c
    32f6:	0003db1c 	0xdb1c
    32fa:	00119f00 	0x9f00
    32fe:	03e61c00 	0x1c00
    3302:	11c20000 	unimp
    3306:	f01c0000 	unimp
    330a:	e5000003 	lb	s8,0(s0)
    330e:	1c000011 	0x11
    3312:	000003fa 	0x3fa
    3316:	00001208 	0x1208
    331a:	0004041c 	0x41c
    331e:	00122b00 	0x2b00
    3322:	040e1c00 	0x1c00
    3326:	11250000 	unimp
    332a:	00000000 	unimp
    332e:	16000000 	unimp
    3332:	0007ca01 	0xca01
    3336:	01a10100 	0x100
    333a:	00000080 	0x80
    333e:	00010738 	0x738
    3342:	00000000 	unimp
    3346:	00010798 	0x798
    334a:	00000000 	unimp
    334e:	0000124e 	0x124e
    3352:	00000c40 	0xc40
    3356:	0002b717 	0x2b717
    335a:	faa10100 	0x100
    335e:	86000000 	unimp
    3362:	1d000012 	0x12
    3366:	01007473 	0x1007473
    336a:	000a00a1 	0xa1
    336e:	0012cf00 	0xcf00
    3372:	04481800 	0x1800
    3376:	07580000 	unimp
    337a:	00000001 	0x1
    337e:	03000000 	unimp
    3382:	a3010000 	unimp
    3386:	00047d1a 	0x7d1a
    338a:	74190000 	unimp
    338e:	18000004 	0x4
    3392:	19000013 	move	v1,a0
    3396:	0000046b 	jalr	zero,zero,1
    339a:	0000134e 	0x134e
    339e:	00046219 	0x6219
    33a2:	00138600 	0x8600
    33a6:	04591a00 	0x1a00
    33aa:	1b540000 	unimp
    33ae:	00000330 	0x330
    33b2:	0004861c 	0x861c
    33b6:	0013bc00 	0xbc00
    33ba:	038a1f00 	0x1f00
    33be:	07580000 	unimp
    33c2:	00000001 	0x1
    33c6:	07740000 	unimp
    33ca:	00000001 	0x1
    33ce:	5f010000 	unimp
    33d2:	0003c51a 	0xc51a
    33d6:	ba190000 	unimp
    33da:	18000003 	lb	v1,0(zero)
    33de:	19000013 	move	v1,a0
    33e2:	000003af 	0x3af
    33e6:	0000134e 	0x134e
    33ea:	0003a419 	0xa419
    33ee:	00138600 	0x8600
    33f2:	039b1a00 	0x1a00
    33f6:	20540000 	unimp
    33fa:	00010758 	0x758
    33fe:	00000000 	unimp
    3402:	00010774 	0x774
    3406:	00000000 	unimp
    340a:	0003d01c 	0xd01c
    340e:	00141300 	0x1300
    3412:	03db1c00 	0x1c00
    3416:	14360000 	unimp
    341a:	e61c0000 	unimp
    341e:	59000003 	lb	a7,0(a0)
    3422:	1c000014 	0x14
    3426:	000003f0 	0x3f0
    342a:	0000147c 	0x147c
    342e:	0003fa1c 	0xfa1c
    3432:	00149f00 	0x9f00
    3436:	04041c00 	0x1c00
    343a:	14c20000 	unimp
    343e:	0e1c0000 	unimp
    3442:	bc000004 	0x4
    3446:	00000013 	nop
    344a:	00000000 	unimp
    344e:	04e70116 	0x116
    3452:	1d0c0000 	unimp
    3456:	00008001 	0x8001
    345a:	01079800 	0x9800
    345e:	00000000 	unimp
    3462:	0107e800 	0xe800
    3466:	00000000 	unimp
    346a:	0014e500 	0xe500
    346e:	000d3b00 	0x3b00
    3472:	02b71700 	0x1700
    3476:	ab010000 	unimp
    347a:	00000080 	0x80
    347e:	0000151d 	0x151d
    3482:	00044818 	0x4818
    3486:	0107a800 	0xa800
    348a:	00000000 	unimp
    348e:	00036000 	0x6000
    3492:	1aad0100 	0x100
    3496:	0000047d 	0x47d
    349a:	04741a00 	0x1a00
    349e:	1a000000 	unimp
    34a2:	0000046b 	jalr	zero,zero,1
    34a6:	04621e00 	0x1e00
    34aa:	591a0000 	unimp
    34ae:	06000004 	0x4
    34b2:	0003901b 	addw	zero,zero,228
    34b6:	04861c00 	0x1c00
    34ba:	15400000 	unimp
    34be:	8a1f0000 	unimp
    34c2:	a8000003 	lb	s1,0(zero)
    34c6:	00000107 	flw	ft0,0(zero)
    34ca:	c4000000 	unimp
    34ce:	00000107 	flw	ft0,0(zero)
    34d2:	01000000 	unimp
    34d6:	03c51a5f 	0x3c51a5f
    34da:	1a000000 	unimp
    34de:	000003ba 	0x3ba
    34e2:	03af1a00 	0x1a00
    34e6:	1e000000 	unimp
    34ea:	000003a4 	0x3a4
    34ee:	00039b1a 	0x9b1a
    34f2:	a8200600 	0x600
    34f6:	00000107 	flw	ft0,0(zero)
    34fa:	c4000000 	unimp
    34fe:	00000107 	flw	ft0,0(zero)
    3502:	1c000000 	unimp
    3506:	000003d0 	0x3d0
    350a:	00001597 	0x1597
    350e:	0003db1c 	0xdb1c
    3512:	0015ba00 	0xba00
    3516:	03e61c00 	0x1c00
    351a:	15dd0000 	unimp
    351e:	f01c0000 	unimp
    3522:	00000003 	lb	zero,0(zero)
    3526:	1c000016 	0x16
    352a:	000003fa 	0x3fa
    352e:	00001623 	0x1623
    3532:	0004041c 	0x41c
    3536:	00164600 	0x4600
    353a:	040e1c00 	0x1c00
    353e:	15400000 	unimp
    3542:	00000000 	unimp
    3546:	16000000 	unimp
    354a:	00081b01 	0x1b01
    354e:	016f0c00 	0xc00
    3552:	00000080 	0x80
    3556:	000107e8 	0x7e8
    355a:	00000000 	unimp
    355e:	0001085c 	0x85c
    3562:	00000000 	unimp
    3566:	00001669 	0x1669
    356a:	00000e4f 	fnmadd.s	ft0,ft0,ft0,ft0
    356e:	0007f917 	0x7f917
    3572:	fab50100 	0x100
    3576:	a1000000 	unimp
    357a:	17000016 	0x16
    357e:	00000877 	0x877
    3582:	00fab501 	0xb501
    3586:	16d70000 	unimp
    358a:	48180000 	unimp
    358e:	18000004 	0x4
    3592:	00000108 	0x108
    3596:	c0000000 	unimp
    359a:	01000003 	lb	zero,0(a0)
    359e:	047d19b7 	lui	zero,0x8fa33
    35a2:	17200000 	unimp
    35a6:	74190000 	unimp
    35aa:	58000004 	0x4
    35ae:	19000017 	0x19000017
    35b2:	0000046b 	jalr	zero,zero,1
    35b6:	0000178e 	0x178e
    35ba:	00046219 	0x6219
    35be:	0017c600 	0xc600
    35c2:	04591a00 	0x1a00
    35c6:	1b090000 	unimp
    35ca:	00000400 	0x400
    35ce:	0004861c 	0x861c
    35d2:	0017e900 	0xe900
    35d6:	038a1800 	0x1800
    35da:	08180000 	unimp
    35de:	00000001 	0x1
    35e2:	04400000 	unimp
    35e6:	5f010000 	unimp
    35ea:	0003c519 	0xc519
    35ee:	00172000 	0x2000
    35f2:	03ba1900 	0x1900
    35f6:	17580000 	unimp
    35fa:	af190000 	unimp
    35fe:	8e000003 	lb	t5,0(s4)
    3602:	19000017 	0x19000017
    3606:	000003a4 	0x3a4
    360a:	000017c6 	0x17c6
    360e:	00039b1a 	0x9b1a
    3612:	701b0900 	0x900
    3616:	1c000004 	0x4
    361a:	000003d0 	0x3d0
    361e:	00001840 	0x1840
    3622:	0003db1c 	0xdb1c
    3626:	00186300 	0x6300
    362a:	03e61c00 	0x1c00
    362e:	18860000 	unimp
    3632:	f01c0000 	unimp
    3636:	a9000003 	lb	s1,0(a0)
    363a:	1c000018 	0x18
    363e:	000003fa 	0x3fa
    3642:	000018cc 	0x18cc
    3646:	0004041c 	0x41c
    364a:	0018ef00 	0xef00
    364e:	040e1c00 	0x1c00
    3652:	17e90000 	unimp
    3656:	00000000 	unimp
    365a:	16000000 	unimp
    365e:	0007df01 	0xdf01
    3662:	01b00c00 	0xc00
    3666:	00000080 	0x80
    366a:	0001085c 	0x85c
    366e:	00000000 	unimp
    3672:	000108b8 	0x8b8
    3676:	00000000 	unimp
    367a:	00001912 	0x1912
    367e:	00000f58 	0xf58
    3682:	0007fd17 	0x7fd17
    3686:	fac00100 	0x100
    368a:	4a000000 	unimp
    368e:	18000019 	0x19
    3692:	00000448 	0x448
    3696:	00010878 	0x878
    369a:	00000000 	unimp
    369e:	000004a0 	0x4a0
    36a2:	7d1ac201 	0xc201
    36a6:	00000004 	0x4
    36aa:	0004741a 	0x741a
    36ae:	6b190000 	unimp
    36b2:	93000004 	0x4
    36b6:	19000019 	0x19
    36ba:	00000462 	0x462
    36be:	000019cb 	0x19cb
    36c2:	0004591a 	0x591a
    36c6:	d01b0a00 	0xa00
    36ca:	1c000004 	0x4
    36ce:	00000486 	0x486
    36d2:	00001a01 	0x1a01
    36d6:	00038a1f 	0x38a1f
    36da:	01087800 	0x7800
    36de:	00000000 	unimp
    36e2:	01089400 	0x9400
    36e6:	00000000 	unimp
    36ea:	1a5f0100 	0x100
    36ee:	000003c5 	0x3c5
    36f2:	03ba1a00 	0x1a00
    36f6:	19000000 	unimp
    36fa:	000003af 	0x3af
    36fe:	00001993 	sltu	zero,zero,6
    3702:	0003a419 	0xa419
    3706:	0019cb00 	0xcb00
    370a:	039b1a00 	0x1a00
    370e:	200a0000 	unimp
    3712:	00010878 	0x878
    3716:	00000000 	unimp
    371a:	00010894 	0x894
    371e:	00000000 	unimp
    3722:	0003d01c 	0xd01c
    3726:	001a5800 	0x5800
    372a:	03db1c00 	0x1c00
    372e:	1a7b0000 	unimp
    3732:	e61c0000 	unimp
    3736:	9e000003 	lb	t7,0(s4)
    373a:	1c00001a 	0x1a
    373e:	000003f0 	0x3f0
    3742:	00001ac1 	0x1ac1
    3746:	0003fa1c 	0xfa1c
    374a:	001ae400 	0xe400
    374e:	04041c00 	0x1c00
    3752:	1b070000 	unimp
    3756:	0e1c0000 	unimp
    375a:	01000004 	0x4
    375e:	0000001a 	0x1a
    3762:	00000000 	unimp
    3766:	070d0116 	0x116
    376a:	310c0000 	unimp
    376e:	00008001 	0x8001
    3772:	0108b800 	0xb800
    3776:	00000000 	unimp
    377a:	0108dc00 	0xdc00
    377e:	00000000 	unimp
    3782:	001b2a00 	0x2a00
    3786:	000fab00 	0xab00
    378a:	07fd1700 	0x1700
    378e:	cb010000 	unimp
    3792:	000000fa 	0xfa
    3796:	00001b62 	0x1b62
    379a:	00097717 	0x97717
    379e:	abcb0100 	0x100
    37a2:	8500000f 	vsb	vt4,s0
    37a6:	1d00001b 	addw	v1,s0,0
    37aa:	00766e65 	0x6e65
    37ae:	0fabcb01 	0xcb01
    37b2:	1ba80000 	unimp
    37b6:	09000000 	unimp
    37ba:	000fb108 	0xb108
    37be:	00ed0a00 	0xa00
    37c2:	01220000 	unimp
    37c6:	0000071a 	0x71a
    37ca:	5d01420c 	0x420c
    37ce:	dc000001 	0x1
    37d2:	00000108 	0x108
    37d6:	00000000 	unimp
    37da:	00000109 	0x109
    37de:	cb000000 	unimp
    37e2:	2300001b 	addw	a0,t0,0
    37e6:	00086801 	0x6801
    37ea:	015e0c00 	0xc00
    37ee:	0000015d 	0x15d
    37f2:	00010900 	0x900
    37f6:	00000000 	unimp
    37fa:	00010908 	0x908
    37fe:	00000000 	unimp
    3802:	16008e02 	0x8e02
    3806:	0006ce01 	0xce01
    380a:	01ef0100 	0x100
    380e:	00000080 	0x80
    3812:	00010908 	0x908
    3816:	00000000 	unimp
    381a:	0001092c 	0x92c
    381e:	00000000 	unimp
    3822:	00001c03 	lb	zero,7(zero)
    3826:	0000103b 	0x103b
    382a:	6469701d 	0x701d
    382e:	80ef0100 	0x100
    3832:	3b000000 	unimp
    3836:	1d00001c 	0x1c
    383a:	00676973 	0x676973
    383e:	0080ef01 	0xef01
    3842:	1c5e0000 	unimp
    3846:	16000000 	unimp
    384a:	0006f001 	0xf001
    384e:	01fb0100 	0x100
    3852:	00000080 	0x80
    3856:	0001092c 	0x92c
    385a:	00000000 	unimp
    385e:	00010950 	0x950
    3862:	00000000 	unimp
    3866:	00001c81 	0x1c81
    386a:	00001070 	0x1070
    386e:	00082517 	0x82517
    3872:	70fb0100 	0x100
    3876:	b9000010 	0x10
    387a:	0000001c 	0x1c
    387e:	00800809 	0x809
    3882:	01160000 	unimp
    3886:	000007d8 	0x7d8
    388a:	80016b0c 	0x6b0c
    388e:	50000000 	unimp
    3892:	00000109 	0x109
    3896:	88000000 	unimp
    389a:	00000109 	0x109
    389e:	dc000000 	unimp
    38a2:	ca00001c 	0x1c
    38a6:	24000010 	0x10
    38aa:	000002b7 	lui	zero,0x5
    38ae:	80010801 	0x801
    38b2:	15000000 	unimp
    38b6:	2500001d 	0x1d
    38ba:	0a010073 	0xa010073
    38be:	00019501 	0x9501
    38c2:	e0910300 	0x300
    38c6:	6572267e 	0x267e
    38ca:	0b010074 	0x74
    38ce:	00008001 	0x8001
    38d2:	001d3800 	0x3800
    38d6:	01270000 	unimp
    38da:	000008fa 	0x8fa
    38de:	1b011708 	0x1708
    38e2:	88000001 	0x1
    38e6:	00000109 	0x109
    38ea:	00000000 	unimp
    38ee:	0000010a 	0x10a
    38f2:	02000000 	unimp
    38f6:	1153008e 	0x8e
    38fa:	62280000 	unimp
    38fe:	01006675 	0x6675
    3902:	1153011f 	0x1153011f
    3906:	54010000 	unimp
    390a:	00307425 	0x7425
    390e:	f3012201 	0x2201
    3912:	09000002 	0x2
    3916:	0114e003 	lb	zero,1336(a0)
    391a:	00000000 	unimp
    391e:	00742600 	0x2600
    3922:	f3012601 	0x2601
    3926:	5b000002 	0x2
    392a:	2900001d 	0x1d
    392e:	0000083b 	0x83b
    3932:	d3012901 	0x2901
    3936:	2a000000 	unimp
    393a:	00000418 	0x418
    393e:	00010994 	0x994
    3942:	00000000 	unimp
    3946:	00000500 	0x500
    394a:	19012401 	0x2401
    394e:	00000435 	0x435
    3952:	00001d9f 	0x1d9f
    3956:	00042a19 	0x2a19
    395a:	001dc300 	0xc300
    395e:	09000000 	unimp
    3962:	0002ae08 	0xae08
    3966:	04182b00 	0x2b00
    396a:	0a000000 	unimp
    396e:	00000001 	0x1
    3972:	0a100000 	unimp
    3976:	00000001 	0x1
    397a:	8e020000 	unimp
    397e:	00118400 	0x8400
    3982:	042a2c00 	0x2c00
    3986:	54010000 	unimp
    398a:	0004352c 	0x352c
    398e:	00550100 	0x100
    3992:	07860127 	fsw	fv1,0(sp)
    3996:	210a0000 	unimp
    399a:	00008001 	0x8001
    399e:	010a1000 	0x1000
    39a2:	00000000 	unimp
    39a6:	010a2000 	0x2000
    39aa:	00000000 	unimp
    39ae:	008e0200 	0x200
    39b2:	000011b6 	0x11b6
    39b6:	00707428 	0x7428
    39ba:	b6014001 	0x4001
    39be:	01000011 	0x11
    39c2:	08090054 	0x54
    39c6:	0000031c 	0x31c
    39ca:	083b012d 	0x12d
    39ce:	4b010000 	unimp
    39d2:	00800101 	0x101
    39d6:	0a200000 	unimp
    39da:	00000001 	0x1
    39de:	0a280000 	unimp
    39e2:	00000001 	0x1
    39e6:	8e020000 	unimp
    39ea:	0011fe00 	0xfe00
    39ee:	06a32e00 	0x2e00
    39f2:	4b010000 	unimp
    39f6:	0000fa01 	0xfa01
    39fa:	2e540100 	0x100
    39fe:	000008fa 	0x8fa
    3a02:	fe014b01 	0x4b01
    3a06:	01000011 	0x11
    3a0a:	08090055 	0x55
    3a0e:	00001204 	0x1204
    3a12:	0003610a 	0x610a
    3a16:	9d012700 	0x2700
    3a1a:	0c000006 	0x6
    3a1e:	00800118 	0x118
    3a22:	0a280000 	unimp
    3a26:	00000001 	0x1
    3a2a:	0a300000 	unimp
    3a2e:	00000001 	0x1
    3a32:	8e020000 	unimp
    3a36:	00125800 	0x5800
    3a3a:	06a32e00 	0x2e00
    3a3e:	55010000 	unimp
    3a42:	0000fa01 	0xfa01
    3a46:	2e540100 	0x100
    3a4a:	00000852 	0x852
    3a4e:	47015501 	0x5501
    3a52:	01000001 	0x1
    3a56:	06f52e55 	0x2e55
    3a5a:	55010000 	unimp
    3a5e:	00015201 	0x5201
    3a62:	00560100 	0x100
    3a66:	07800127 	fsw	ft0,0(sp)
    3a6a:	160c0000 	unimp
    3a6e:	00008001 	0x8001
    3a72:	010a3000 	0x3000
    3a76:	00000000 	unimp
    3a7a:	010a3800 	0x3800
    3a7e:	00000000 	unimp
    3a82:	008e0200 	0x200
    3a86:	00001299 	0x1299
    3a8a:	0006a32e 	0xa32e
    3a8e:	015f0100 	0x100
    3a92:	000000fa 	0xfa
    3a96:	d32e5401 	0x5401
    3a9a:	01000007 	0x1000007
    3a9e:	0173015f 	0x173015f
    3aa2:	55010000 	unimp
    3aa6:	14012700 	0x2700
    3aaa:	0c000007 	0xc000007
    3aae:	00800115 	0x115
    3ab2:	0a380000 	unimp
    3ab6:	00000001 	0x1
    3aba:	0a400000 	unimp
    3abe:	00000001 	0x1
    3ac2:	8e020000 	unimp
    3ac6:	0012cc00 	0xcc00
    3aca:	06a32e00 	0x2e00
    3ace:	69010000 	unimp
    3ad2:	0000fa01 	0xfa01
    3ad6:	00540100 	0x100
    3ada:	09810127 	fsw	ft0,192(a2)
    3ade:	460c0000 	unimp
    3ae2:	0000ed01 	0xed01
    3ae6:	010a4000 	0x4000
    3aea:	00000000 	unimp
    3aee:	010a4800 	0x4800
    3af2:	00000000 	unimp
    3af6:	008e0200 	0x200
    3afa:	0000130d 	0x130d
    3afe:	66756228 	0x6228
    3b02:	01730100 	0x100
    3b06:	000000ed 	0xed
    3b0a:	bb2e5401 	0x5401
    3b0e:	01000007 	0x1000007
    3b12:	01050173 	0x1050173
    3b16:	55010000 	unimp
    3b1a:	fb012700 	0x2700
    3b1e:	0c000006 	0x6
    3b22:	005201a9 	0x1a9
    3b26:	0a480000 	unimp
    3b2a:	00000001 	0x1
    3b2e:	0a640000 	unimp
    3b32:	00000001 	0x1
    3b36:	8e020000 	unimp
    3b3a:	00134000 	0x4000
    3b3e:	07fd2e00 	0x2e00
    3b42:	7d010000 	unimp
    3b46:	00008001 	0x8001
    3b4a:	00540100 	0x100
    3b4e:	08120116 	0x116
    3b52:	8f0c0000 	unimp
    3b56:	0000e501 	0xe501
    3b5a:	010a6400 	0x6400
    3b5e:	00000000 	unimp
    3b62:	010b0400 	0x400
    3b66:	00000000 	unimp
    3b6a:	001def00 	0xef00
    3b6e:	00147100 	0x7100
    3b72:	097c2400 	0x2400
    3b76:	90010000 	unimp
    3b7a:	00011001 	0x1001
    3b7e:	001e2700 	0x2700
    3b82:	08062f00 	0x2f00
    3b86:	92010000 	unimp
    3b8a:	00006b01 	0x6b01
    3b8e:	30010100 	0x100
    3b92:	00000802 	0x802
    3b96:	e7019301 	0x9301
    3b9a:	09000000 	unimp
    3b9e:	0114f003 	lb	zero,1340(a0)
    3ba2:	00000000 	unimp
    3ba6:	04482a00 	0x2a00
    3baa:	0abc0000 	unimp
    3bae:	00000001 	0x1
    3bb2:	05300000 	unimp
    3bb6:	97010000 	unimp
    3bba:	047d1901 	0x1901
    3bbe:	1e700000 	unimp
    3bc2:	74190000 	unimp
    3bc6:	70000004 	0x4
    3bca:	1900001e 	0x1e
    3bce:	0000046b 	jalr	zero,zero,1
    3bd2:	00001e70 	0x1e70
    3bd6:	00046219 	0x6219
    3bda:	001e9400 	0x9400
    3bde:	04591900 	0x1900
    3be2:	1ee70000 	unimp
    3be6:	601b0000 	unimp
    3bea:	1c000005 	0x5
    3bee:	00000486 	0x486
    3bf2:	00001f0b 	0x1f0b
    3bf6:	00038a18 	0x8a18
    3bfa:	010abc00 	0xbc00
    3bfe:	00000000 	unimp
    3c02:	00059000 	0x9000
    3c06:	195f0100 	0x100
    3c0a:	000003c5 	0x3c5
    3c0e:	00001e70 	0x1e70
    3c12:	0003ba19 	0xba19
    3c16:	001e7000 	0x7000
    3c1a:	03af1900 	0x1900
    3c1e:	1e700000 	unimp
    3c22:	a4190000 	unimp
    3c26:	94000003 	lb	t6,0(t4)
    3c2a:	1900001e 	0x1e
    3c2e:	0000039b 	0x39b
    3c32:	00001ee7 	j	3cac <$Ldebug_info0+0x149e>
    3c36:	0005c01b 	addw	zero,zero,368
    3c3a:	03d01c00 	0x1c00
    3c3e:	1f4b0000 	unimp
    3c42:	db1c0000 	unimp
    3c46:	6e000003 	lb	t1,0(s4)
    3c4a:	1c00001f 	0x1c00001f
    3c4e:	000003e6 	0x3e6
    3c52:	00001f91 	0x1f91
    3c56:	0003f01c 	0xf01c
    3c5a:	001fb400 	0xb400
    3c5e:	03fa1c00 	0x1c00
    3c62:	1fd70000 	unimp
    3c66:	041c0000 	unimp
    3c6a:	fa000004 	0x4
    3c6e:	1c00001f 	0x1c00001f
    3c72:	0000040e 	0x40e
    3c76:	00001f0b 	0x1f0b
    3c7a:	00000000 	unimp
    3c7e:	d3013100 	0x3100
    3c82:	0c000006 	0x6
    3c86:	0b040111 	0x111
    3c8a:	00000001 	0x1
    3c8e:	0b340000 	unimp
    3c92:	00000001 	0x1
    3c96:	201d0000 	unimp
    3c9a:	15760000 	unimp
    3c9e:	20240000 	unimp
    3ca2:	01000008 	0x8
    3ca6:	008001a3 	sd	zero,0(v0)
    3caa:	20550000 	unimp
    3cae:	48320000 	unimp
    3cb2:	0c000004 	0x4
    3cb6:	0000010b 	vlw	vzero,zero
    3cba:	34000000 	unimp
    3cbe:	0000010b 	vlw	vzero,zero
    3cc2:	01000000 	unimp
    3cc6:	7d1a01a5 	0x1a5
    3cca:	00000004 	0x4
    3cce:	0004741a 	0x741a
    3cd2:	6b1a0000 	unimp
    3cd6:	00000004 	0x4
    3cda:	0004621e 	0x621e
    3cde:	04591a00 	0x1a00
    3ce2:	20010000 	unimp
    3ce6:	00010b0c 	0xb0c
    3cea:	00000000 	unimp
    3cee:	00010b34 	0xb34
    3cf2:	00000000 	unimp
    3cf6:	0004861c 	0x861c
    3cfa:	00207800 	0x7800
    3cfe:	038a1f00 	0x1f00
    3d02:	0b0c0000 	unimp
    3d06:	00000001 	0x1
    3d0a:	0b200000 	unimp
    3d0e:	00000001 	0x1
    3d12:	5f010000 	unimp
    3d16:	0003c51a 	0xc51a
    3d1a:	ba1a0000 	unimp
    3d1e:	00000003 	lb	zero,0(zero)
    3d22:	0003af1a 	0xaf1a
    3d26:	a41e0000 	unimp
    3d2a:	1a000003 	lb	v1,0(a4)
    3d2e:	0000039b 	0x39b
    3d32:	0b0c2001 	0x2001
    3d36:	00000001 	0x1
    3d3a:	0b200000 	unimp
    3d3e:	00000001 	0x1
    3d42:	d01c0000 	unimp
    3d46:	9f000003 	lb	t7,0(s8)
    3d4a:	33000020 	0x20
    3d4e:	000003db 	0x3db
    3d52:	0003e61c 	0xe61c
    3d56:	0020c200 	0xc200
    3d5a:	03f01c00 	0x1c00
    3d5e:	20e50000 	unimp
    3d62:	fa1c0000 	unimp
    3d66:	08000003 	lb	ra,0(zero)
    3d6a:	1c000021 	0x21
    3d6e:	00000404 	0x404
    3d72:	0000212b 	0x212b
    3d76:	00040e1c 	0xe1c
    3d7a:	00207800 	0x7800
    3d7e:	00000000 	unimp
    3d82:	062f0000 	unimp
    3d86:	01000008 	0x8
    3d8a:	006b0192 	0x192
    3d8e:	01010000 	unimp
	...

0000000000003d93 <$Ldebug_info0>:
    3d93:	0000097d 	0x97d
    3d97:	09e80002 	0x2
    3d9b:	01080000 	unimp
    3d9f:	000000c9 	0xc9
    3da3:	00099601 	0x9601
    3da7:	0009d400 	0xd400
    3dab:	010b3400 	0x3400
    3daf:	00000000 	unimp
    3db3:	010b4000 	0x4000
    3db7:	00000000 	unimp
    3dbb:	001a7800 	0x7800
    3dbf:	05040200 	0x200
    3dc3:	00746e69 	0x6e69
    3dc7:	b1060103 	lw	s2,384(a0)
    3dcb:	03000000 	unimp
    3dcf:	00af0801 	0x801
    3dd3:	02030000 	unimp
    3dd7:	0000ea05 	0xea05
    3ddb:	07020300 	0x300
    3ddf:	0000000e 	0xe
    3de3:	a2070403 	lb	s0,449(a4)
    3de7:	03000000 	unimp
    3deb:	00050508 	0x508
    3def:	08030000 	unimp
    3df3:	00009d07 	flw	ft0,39(zero)
    3df7:	07080300 	0x300
    3dfb:	00000098 	0x98
    3dff:	00040e04 	0xe04
    3e03:	651e0200 	0x200
    3e07:	03000000 	unimp
    3e0b:	00000508 	0x508
    3e0f:	4d040000 	unimp
    3e13:	03000003 	lb	zero,0(t0)
    3e17:	00002d07 	flw	ft0,11(zero)
    3e1b:	02f30500 	0x500
    3e1f:	61040000 	unimp
    3e23:	00005001 	0x5001
    3e27:	05040600 	0x600
    3e2b:	0000b446 	0xb446
    3e2f:	02ed0700 	0x700
    3e33:	48050000 	unimp
    3e37:	00000089 	0x89
    3e3b:	00029f07 	0x29f07
    3e3f:	b4490500 	0x500
    3e43:	00000000 	unimp
    3e47:	00003b08 	0x3b08
    3e4b:	0000c400 	0xc400
    3e4f:	005e0900 	0x900
    3e53:	00030000 	unimp
    3e57:	4305080a 	0x80a
    3e5b:	000000e9 	0xe9
    3e5f:	0003f80b 	vlsegstb	vzero,zero,ra,32
    3e63:	2d450500 	0x500
    3e67:	02000000 	unimp
    3e6b:	000b0023 	sb	a1,64(zero)
    3e6f:	05000004 	0x4
    3e73:	0000954a 	0x954a
    3e77:	04230200 	0x200
    3e7b:	038b0400 	0x400
    3e7f:	4b050000 	unimp
    3e83:	000000c4 	0xc4
    3e87:	00027104 	0x7104
    3e8b:	7e4f0500 	0x500
    3e8f:	0c000000 	unimp
    3e93:	04400408 	0x408
    3e97:	18060000 	unimp
    3e9b:	00000050 	0x50
    3e9f:	0002820d 	0x820d
    3ea3:	2c062000 	0x2000
    3ea7:	0000016b 	jr	zero
    3eab:	0003ac0b 	0x3ac0b
    3eaf:	6b2e0600 	0x600
    3eb3:	02000001 	0x1
    3eb7:	5f0e0023 	sb	a3,1408(s8)
    3ebb:	2f06006b 	jalr	a1,s8,384
    3ebf:	0000002d 	0x2d
    3ec3:	0b082302 	0x2302
    3ec7:	000003e3 	bleu	zero,zero,3ec7 <$Ldebug_info0+0x134>
    3ecb:	002d2f06 	0x2f06
    3ecf:	23020000 	unimp
    3ed3:	026b0b0c 	0xb0c
    3ed7:	2f060000 	unimp
    3edb:	0000002d 	0x2d
    3edf:	0b102302 	0x2302
    3ee3:	0000048c 	0x48c
    3ee7:	002d2f06 	0x2f06
    3eeb:	23020000 	unimp
    3eef:	785f0e14 	0xe14
    3ef3:	71300600 	0x600
    3ef7:	02000001 	0x1
    3efb:	0f001823 	sb	zero,134(s8)
    3eff:	00010c08 	0xc08
    3f03:	01010800 	0x800
    3f07:	01810000 	unimp
    3f0b:	5e090000 	unimp
    3f0f:	00000000 	unimp
    3f13:	029a0d00 	0xd00
    3f17:	06240000 	unimp
    3f1b:	00020c34 	0xc34
    3f1f:	01d70b00 	0xb00
    3f23:	36060000 	unimp
    3f27:	0000002d 	0x2d
    3f2b:	0b002302 	0x2302
    3f2f:	00000416 	0x416
    3f33:	002d3706 	0x3706
    3f37:	23020000 	unimp
    3f3b:	01ec0b04 	0xb04
    3f3f:	38060000 	unimp
    3f43:	0000002d 	0x2d
    3f47:	0b082302 	0x2302
    3f4b:	00000505 	0x505
    3f4f:	002d3906 	0x3906
    3f53:	23020000 	unimp
    3f57:	03200b0c 	0xb0c
    3f5b:	3a060000 	unimp
    3f5f:	0000002d 	0x2d
    3f63:	0b102302 	0x2302
    3f67:	0000030f 	0x30f
    3f6b:	002d3b06 	0x3b06
    3f6f:	23020000 	unimp
    3f73:	04910b14 	0xb14
    3f77:	3c060000 	unimp
    3f7b:	0000002d 	0x2d
    3f7f:	0b182302 	0x2302
    3f83:	0000036d 	0x36d
    3f87:	002d3d06 	0x3d06
    3f8b:	23020000 	unimp
    3f8f:	04cc0b1c 	0xb1c
    3f93:	3e060000 	unimp
    3f97:	0000002d 	0x2d
    3f9b:	00202302 	0x2302
    3f9f:	0001fb10 	0xfb10
    3fa3:	06020800 	0x800
    3fa7:	00025547 	0x25547
    3fab:	025e0b00 	0xb00
    3faf:	48060000 	unimp
    3fb3:	00000255 	0x255
    3fb7:	0b002302 	0x2302
    3fbb:	00000134 	0x134
    3fbf:	02554906 	0x4906
    3fc3:	23030000 	unimp
    3fc7:	320b0280 	0x280
    3fcb:	06000004 	0x4
    3fcf:	0001014b 	0x1014b
    3fd3:	80230300 	0x300
    3fd7:	02200b04 	0xb04
    3fdb:	4e060000 	unimp
    3fdf:	00000101 	0x101
    3fe3:	04842303 	lwu	zero,264(t6)
    3fe7:	00ff0800 	0x800
    3feb:	02650000 	unimp
    3fef:	5e090000 	unimp
    3ff3:	1f000000 	unimp
    3ff7:	00c11000 	0x1000
    3ffb:	03180000 	unimp
    3fff:	02ac5906 	0x5906
    4003:	ac0b0000 	unimp
    4007:	06000003 	lb	zero,0(s4)
    400b:	0002ac5a 	0xac5a
    400f:	00230200 	0x200
    4013:	0003c40b 	0x3c40b
    4017:	2d5b0600 	0x600
    401b:	02000000 	unimp
    401f:	660b0823 	sb	a1,1602(s4)
    4023:	06000002 	0x2
    4027:	0002b25d 	0xb25d
    402b:	10230200 	0x200
    402f:	0001fb0b 	vlsegstwu	vzero,zero,zero,32
    4033:	0c5e0600 	0x600
    4037:	03000002 	0x2
    403b:	00029023 	sb	ra,36(zero)
    403f:	0265080f 	vssegstb	vzero,a5,t6,17
    4043:	c4080000 	unimp
    4047:	c2000002 	0x2
    404b:	09000002 	0x2
    404f:	0000005e 	0x5e
    4053:	0111001f 	0x111001f
    4057:	02c2080f 	vssegstb	vzero,a7,ra,1
    405b:	770d0000 	unimp
    405f:	10000003 	lb	v0,0(zero)
    4063:	02f36906 	0x6906
    4067:	e60b0000 	unimp
    406b:	06000001 	0x1
    406f:	0002f36a 	0xf36a
    4073:	00230200 	0x200
    4077:	0007ba0b 	vlsegstbu	vzero,zero,v1,28
    407b:	2d6b0600 	0x600
    407f:	02000000 	unimp
    4083:	0f000823 	sb	zero,130(s8)
    4087:	00003b08 	0x3b08
    408b:	03960d00 	0xd00
    408f:	06a80000 	unimp
    4093:	000459a9 	0x59a9
    4097:	705f0e00 	0xe00
    409b:	f3aa0600 	0x600
    409f:	02000002 	0x2
    40a3:	5f0e0023 	sb	a3,1408(s8)
    40a7:	ab060072 	0x72
    40ab:	0000002d 	0x2d
    40af:	0e082302 	0x2302
    40b3:	0600775f 	0x600775f
    40b7:	00002dac 	0x2dac
    40bb:	0c230200 	0x200
    40bf:	0002190b 	vlsegstw	vzero,zero,ra,2
    40c3:	42ad0600 	0x600
    40c7:	02000000 	unimp
    40cb:	b60b1023 	sb	a1,-1212(s4)
    40cf:	06000002 	0x2
    40d3:	000042ae 	0x42ae
    40d7:	12230200 	0x200
    40db:	66625f0e 	0x5f0e
    40df:	caaf0600 	0x600
    40e3:	02000002 	0x2
    40e7:	b10b1823 	sb	a1,-1210(a0)
    40eb:	06000001 	0x1
    40ef:	00002db0 	0x2db0
    40f3:	28230200 	0x200
    40f7:	0002090b 	vlsegstw	vzero,zero,ra,1
    40fb:	ffb70600 	0x600
    40ff:	02000000 	unimp
    4103:	8a0b3023 	sb	a1,-1844(a4)
    4107:	06000002 	0x2
    410b:	0005ecb9 	0xecb9
    410f:	38230200 	0x200
    4113:	0003080b 	vlsegstb	vzero,zero,ra,17
    4117:	1cbb0600 	0x600
    411b:	02000006 	0x6
    411f:	080b4023 	sb	a1,208(zero)
    4123:	06000004 	0x4
    4127:	000641bd 	0x41bd
    412b:	48230200 	0x200
    412f:	0004e60b 	0x4e60b
    4133:	5cbe0600 	0x600
    4137:	02000006 	0x6
    413b:	5f0e5023 	sb	a3,1428(s8)
    413f:	06006275 	0x6275
    4143:	0002cac1 	0xcac1
    4147:	58230200 	0x200
    414b:	70755f0e 	0x5f0e
    414f:	f3c20600 	0x600
    4153:	02000002 	0x2
    4157:	5f0e6823 	sb	a3,1434(s8)
    415b:	06007275 	0x7275
    415f:	00002dc3 	0x2dc3
    4163:	70230200 	0x200
    4167:	0001e00b 	0x1e00b
    416b:	62c60600 	0x600
    416f:	02000006 	0x6
    4173:	be0b7423 	sb	a1,-1059(s4)
    4177:	06000004 	0x4
    417b:	000672c7 	fmsub.d	ft0,ft0,fv1,fa3,rtz
    417f:	77230200 	0x200
    4183:	626c5f0e 	0x5f0e
    4187:	caca0600 	0x600
    418b:	02000002 	0x2
    418f:	2e0b7823 	sb	a1,734(s4)
    4193:	06000008 	0x8
    4197:	00002dcd 	0x2dcd
    419b:	88230300 	0x300
    419f:	02370b01 	0xb01
    41a3:	ce060000 	unimp
    41a7:	0000002d 	0x2d
    41ab:	018c2303 	lwu	zero,776(a2)
    41af:	0005150b 	0x5150b
    41b3:	78d10600 	0x600
    41b7:	03000004 	0x4
    41bb:	0b019023 	sb	zero,228(t0)
    41bf:	000002fa 	0x2fa
    41c3:	00f4d506 	0xd506
    41c7:	23030000 	unimp
    41cb:	9e0b0198 	0x198
    41cf:	06000003 	lb	zero,0(s4)
    41d3:	0000e9d7 	0xe9d7
    41d7:	9c230300 	0x300
    41db:	03000b01 	0xb01
    41df:	d8060000 	unimp
    41e3:	0000002d 	0x2d
    41e7:	01a42303 	lwu	zero,-1784(a2)
    41eb:	2d011200 	0x1200
    41ef:	78000000 	unimp
    41f3:	13000004 	0x4
    41f7:	00000478 	0x478
    41fb:	0000ff13 	or	zero,zero,63
    41ff:	05df1300 	0x1300
    4203:	2d130000 	unimp
    4207:	00000000 	unimp
    420b:	047e080f 	vssegstb	vzero,t5,tp,1
    420f:	eb140000 	unimp
    4213:	30000003 	lb	a2,0(zero)
    4217:	02430607 	0x2430607
    421b:	000005df 	0x5df
    421f:	00098f15 	0x8f15
    4223:	02450600 	0x600
    4227:	0000002d 	0x2d
    422b:	15002302 	0x2302
    422f:	00000228 	0x228
    4233:	cf024a06 	0x4a06
    4237:	02000006 	0x6
    423b:	a6150823 	sb	a6,-1470(s4)
    423f:	06000002 	0x2
    4243:	06cf024a 	0x24a
    4247:	23020000 	unimp
    424b:	027a1510 	0x1510
    424f:	4a060000 	unimp
    4253:	0006cf02 	0xcf02
    4257:	18230200 	0x200
    425b:	0003bf15 	0xbf15
    425f:	024c0600 	0x600
    4263:	0000002d 	0x2d
    4267:	15202302 	0x2302
    426b:	00000148 	0x148
    426f:	ee024d06 	0x4d06
    4273:	02000008 	0x8
    4277:	68152423 	sb	a6,1737(zero)
    427b:	06000004 	0x4
    427f:	002d024f 	fnmadd.s	ft0,ft0,fs2,ft6,rtz
    4283:	23020000 	unimp
    4287:	03c91540 	0x1540
    428b:	50060000 	unimp
    428f:	00061102 	0x1102
    4293:	48230200 	0x200
    4297:	00032915 	0x2915
    429b:	02520600 	0x600
    429f:	0000002d 	0x2d
    42a3:	15502302 	0x2302
    42a7:	000003d9 	0x3d9
    42ab:	0a025406 	0x5406
    42af:	02000009 	0x9
    42b3:	e5155823 	sb	a6,-426(s0)
    42b7:	06000002 	0x2
    42bb:	016b0257 	0x16b0257
    42bf:	23020000 	unimp
    42c3:	02901560 	0x1560
    42c7:	58060000 	unimp
    42cb:	00002d02 	0x2d02
    42cf:	68230200 	0x200
    42d3:	00050015 	0x15
    42d7:	02590600 	0x600
    42db:	0000016b 	jr	zero
    42df:	15702302 	0x2302
    42e3:	00000343 	0x343
    42e7:	10025a06 	0x5a06
    42eb:	02000009 	0x9
    42ef:	ae157823 	sb	a6,-1314(s4)
    42f3:	06000002 	0x2
    42f7:	002d025d 	0x25d
    42fb:	23030000 	unimp
    42ff:	2f150180 	0x180
    4303:	06000002 	0x2
    4307:	05df025e 	0x25e
    430b:	23030000 	unimp
    430f:	5f150188 	0x188
    4313:	06000003 	lb	zero,0(s4)
    4317:	08cb0281 	0x281
    431b:	23030000 	unimp
    431f:	c1150190 	0x190
    4323:	06000000 	unimp
    4327:	02ac0284 	0x284
    432b:	23030000 	unimp
    432f:	c31503f8 	0x3f8
    4333:	06000002 	0x2
    4337:	02650285 	0x285
    433b:	23030000 	unimp
    433f:	b4150480 	0x480
    4343:	06000004 	0x4
    4347:	09220288 	0x288
    434b:	23030000 	unimp
    434f:	11150a98 	0xa98
    4353:	06000002 	0x2
    4357:	068e028d 	0x28d
    435b:	23030000 	unimp
    435f:	f6150aa0 	0xaa0
    4363:	06000001 	0x1
    4367:	092e028e 	0x28e
    436b:	23030000 	unimp
    436f:	0f000ab8 	0xab8
    4373:	0005e508 	0xe508
    4377:	06010300 	0x300
    437b:	000000b8 	0xb8
    437f:	0459080f 	vssegstb	vzero,t5,t0,17
    4383:	01120000 	unimp
    4387:	0000002d 	0x2d
    438b:	00000611 	0x611
    438f:	00047813 	li	zero,286
    4393:	00ff1300 	0x1300
    4397:	11130000 	unimp
    439b:	13000006 	0x6
    439f:	0000002d 	0x2d
    43a3:	17080f00 	0xf00
    43a7:	16000006 	0x6
    43ab:	000005e5 	0x5e5
    43af:	05f2080f 	vssegstb	vzero,s3,s5,1
    43b3:	01120000 	unimp
    43b7:	0000006c 	0x6c
    43bb:	00000641 	0x641
    43bf:	00047813 	li	zero,286
    43c3:	00ff1300 	0x1300
    43c7:	6c130000 	unimp
    43cb:	13000000 	unimp
    43cf:	0000002d 	0x2d
    43d3:	22080f00 	0xf00
    43d7:	12000006 	0x6
    43db:	00002d01 	0x2d01
    43df:	00065c00 	0x5c00
    43e3:	04781300 	0x1300
    43e7:	ff130000 	unimp
    43eb:	00000000 	unimp
    43ef:	0647080f 	vssegstb	vzero,s5,v1,17
    43f3:	3b080000 	unimp
    43f7:	72000000 	unimp
    43fb:	09000006 	0x6
    43ff:	0000005e 	0x5e
    4403:	3b080002 	0x2
    4407:	82000000 	unimp
    440b:	09000006 	0x6
    440f:	0000005e 	0x5e
    4413:	84050000 	unimp
    4417:	06000003 	lb	zero,0(s4)
    441b:	02f90111 	0x111
    441f:	9b170000 	unimp
    4423:	18000004 	0x4
    4427:	c9011506 	0x1506
    442b:	15000006 	0x6
    442f:	000003ac 	0x3ac
    4433:	c9011706 	0x1706
    4437:	02000006 	0x6
    443b:	bc150023 	sb	a6,-1088(t4)
    443f:	06000002 	0x2
    4443:	002d0118 	0x118
    4447:	23020000 	unimp
    444b:	037e1508 	0x1508
    444f:	19060000 	unimp
    4453:	0006cf01 	0xcf01
    4457:	10230200 	0x200
    445b:	8e080f00 	0xf00
    445f:	0f000006 	0x6
    4463:	00068208 	0x8208
    4467:	01401700 	0x1700
    446b:	060e0000 	unimp
    446f:	07100131 	0x131
    4473:	f2150000 	unimp
    4477:	06000003 	lb	zero,0(s4)
    447b:	07100132 	0x132
    447f:	23020000 	unimp
    4483:	041f1500 	0x1500
    4487:	33060000 	unimp
    448b:	00071001 	0x1001
    448f:	06230200 	0x200
    4493:	00043b15 	0x3b15
    4497:	01340600 	0x600
    449b:	00000049 	0x49
    449f:	000c2302 	0x2302
    44a3:	00004908 	0x4908
    44a7:	00072000 	0x2000
    44ab:	005e0900 	0x900
    44af:	00020000 	unimp
    44b3:	6206d818 	0xd818
    44b7:	00085102 	0x5102
    44bb:	047f1500 	0x1500
    44bf:	64060000 	unimp
    44c3:	00005002 	0x5002
    44c7:	00230200 	0x200
    44cb:	00042515 	0x2515
    44cf:	02650600 	0x600
    44d3:	000005df 	0x5df
    44d7:	15082302 	0x2302
    44db:	000002d8 	0x2d8
    44df:	51026606 	0x6606
    44e3:	02000008 	0x8
    44e7:	d7151023 	sb	a6,-700(s8)
    44eb:	06000004 	0x4
    44ef:	01810267 	j	648f7 <_end+0x5339b>
    44f3:	23020000 	unimp
    44f7:	0334152c 	0x152c
    44fb:	68060000 	unimp
    44ff:	00002d02 	0x2d02
    4503:	50230200 	0x200
    4507:	0003a715 	0xa715
    450b:	02690600 	0x600
    450f:	00000065 	0x65
    4513:	15582302 	0x2302
    4517:	000004ed 	0x4ed
    451b:	d5026a06 	0x6a06
    451f:	02000006 	0x6
    4523:	b2156023 	sb	a6,-1192(a4)
    4527:	06000003 	lb	zero,0(s4)
    452b:	00e9026b 	0xe9026b
    452f:	23020000 	unimp
    4533:	04f21570 	0x1570
    4537:	6c060000 	unimp
    453b:	0000e902 	0xe902
    453f:	78230200 	0x200
    4543:	0001c915 	0xc915
    4547:	026d0600 	0x600
    454b:	000000e9 	0xe9
    454f:	01802303 	lwu	zero,8(a2)
    4553:	0004aa15 	0xaa15
    4557:	026e0600 	0x600
    455b:	00000861 	0x861
    455f:	01882303 	lwu	zero,520(a2)
    4563:	0002cc15 	0xcc15
    4567:	026f0600 	0x600
    456b:	00000871 	0x871
    456f:	01902303 	lwu	zero,1032(a2)
    4573:	00044815 	0x4815
    4577:	02700600 	0x600
    457b:	0000002d 	0x2d
    457f:	01a82303 	lwu	zero,-1528(a2)
    4583:	00025015 	0x5015
    4587:	02710600 	0x600
    458b:	000000e9 	0xe9
    458f:	01ac2303 	lwu	zero,-1272(a2)
    4593:	0001ba15 	0xba15
    4597:	02720600 	0x600
    459b:	000000e9 	0xe9
    459f:	01b42303 	lwu	zero,-760(a2)
    45a3:	00023f15 	0x3f15
    45a7:	02730600 	0x600
    45ab:	000000e9 	0xe9
    45af:	01bc2303 	lwu	zero,-248(a2)
    45b3:	00015315 	0x5315
    45b7:	02740600 	0x600
    45bb:	000000e9 	0xe9
    45bf:	01c42303 	lwu	zero,264(a3)
    45c3:	00016215 	0x6215
    45c7:	02750600 	0x600
    45cb:	000000e9 	0xe9
    45cf:	01cc2303 	lwu	zero,776(a3)
    45d3:	00036415 	0x6415
    45d7:	02760600 	0x600
    45db:	0000002d 	0x2d
    45df:	01d42303 	lwu	zero,1288(a3)
    45e3:	05e50800 	0x800
    45e7:	08610000 	unimp
    45eb:	5e090000 	unimp
    45ef:	19000000 	unimp
    45f3:	05e50800 	0x800
    45f7:	08710000 	unimp
    45fb:	5e090000 	unimp
    45ff:	07000000 	unimp
    4603:	05e50800 	0x800
    4607:	08810000 	unimp
    460b:	5e090000 	unimp
    460f:	17000000 	unimp
    4613:	01681900 	0x1900
    4617:	ab027b06 	0x7b06
    461b:	15000008 	0x8
    461f:	00000319 	0x319
    4623:	ab027e06 	0x7e06
    4627:	02000008 	0x8
    462b:	a1150023 	sb	a6,-1472(a0)
    462f:	06000004 	0x4
    4633:	08bb027f 	0x8bb027f
    4637:	23030000 	unimp
    463b:	080001f0 	0x1f0
    463f:	000002f3 	vsetvl	zero,zero
    4643:	000008bb 	0x8bb
    4647:	00005e09 	0x5e09
    464b:	08001d00 	0x1d00
    464f:	00000050 	0x50
    4653:	000008cb 	fnmsub.d	ft0,ft0,ft0,ft0,rmm
    4657:	00005e09 	0x5e09
    465b:	1a001d00 	0x1d00
    465f:	60060168 	0x168
    4663:	0008ee02 	0xee02
    4667:	03eb1b00 	0x1b00
    466b:	77060000 	unimp
    466f:	00072002 	0x2002
    4673:	04c41b00 	0x1b00
    4677:	80060000 	unimp
    467b:	00088102 	0x8102
    467f:	e5080000 	unimp
    4683:	fe000005 	0x5
    4687:	09000008 	0x8
    468b:	0000005e 	0x5e
    468f:	011c0018 	0x18
    4693:	0000090a 	0x90a
    4697:	00047813 	li	zero,286
    469b:	080f0000 	unimp
    469f:	000008fe 	0x8fe
    46a3:	016b080f 	vssegstb	vzero,a1,s1,17
    46a7:	011c0000 	unimp
    46ab:	00000922 	0x922
    46af:	00002d13 	slt	zero,zero,11
    46b3:	080f0000 	unimp
    46b7:	00000928 	0x928
    46bb:	0916080f 	vssegstb	vra,a0,a7,1
    46bf:	82080000 	unimp
    46c3:	3e000006 	0x6
    46c7:	09000009 	0x9
    46cb:	0000005e 	0x5e
    46cf:	011d0002 	0x2
    46d3:	0000098e 	0x98e
    46d7:	5e010f07 	0x5e010f07
    46db:	34000009 	0x9
    46df:	0000010b 	vlw	vzero,zero
    46e3:	40000000 	unimp
    46e7:	0000010b 	vlw	vzero,zero
    46eb:	02000000 	unimp
    46ef:	080f008e 	0x8e
    46f3:	0000002d 	0x2d
    46f7:	00045c1e 	0x5c1e
    46fb:	03310600 	0x600
    46ff:	00000478 	0x478
    4703:	5c1e0101 	0x101
    4707:	06000004 	0x4
    470b:	04780331 	0x331
    470f:	01010000 	unimp
	...

0000000000004714 <$Ldebug_info0>:
    4714:	00000166 	0x166
    4718:	0b630002 	0x2
    471c:	01080000 	unimp
    4720:	000000c9 	0xc9
    4724:	000ace01 	0xce01
    4728:	000a5800 	0x5800
    472c:	010b4000 	0x4000
    4730:	00000000 	unimp
    4734:	010bc800 	0xc800
    4738:	00000000 	unimp
    473c:	001c7a00 	0x7a00
    4740:	06010200 	0x200
    4744:	000000b1 	0xb1
    4748:	af080102 	0x102
    474c:	02000000 	unimp
    4750:	00ea0502 	0x502
    4754:	02020000 	unimp
    4758:	00000e07 	0xe07
    475c:	05040300 	0x300
    4760:	00746e69 	0x6e69
    4764:	a2070402 	0x402
    4768:	02000000 	unimp
    476c:	00050508 	0x508
    4770:	08020000 	unimp
    4774:	00009d07 	flw	ft0,39(zero)
    4778:	07080200 	0x200
    477c:	00000098 	0x98
    4780:	00050802 	0x802
    4784:	02000000 	unimp
    4788:	00b80601 	0x601
    478c:	08040000 	unimp
    4790:	00000080 	0x80
    4794:	00007305 	0x7305
    4798:	08ea0600 	0x600
    479c:	d4020000 	unimp
    47a0:	0000005e 	0x5e
    47a4:	000a4e06 	0x4e06
    47a8:	5ef40300 	0x300
    47ac:	07000000 	unimp
    47b0:	00000a3b 	0xa3b
    47b4:	005e0801 	0x801
    47b8:	b5030000 	unimp
    47bc:	08000000 	unimp
    47c0:	0a010079 	0x79
    47c4:	0000005e 	0x5e
    47c8:	c7010900 	0x900
    47cc:	0400000a 	0xa
    47d0:	00850122 	0x122
    47d4:	0b400000 	unimp
    47d8:	00000001 	0x1
    47dc:	0bc80000 	unimp
    47e0:	00000001 	0x1
    47e4:	8e020000 	unimp
    47e8:	00016300 	0x6300
    47ec:	74730a00 	0xa00
    47f0:	15010072 	0x72
    47f4:	0000007a 	0x7a
    47f8:	0000214e 	0x214e
    47fc:	00067c0b 	0x67c0b
    4800:	7a170100 	0x100
    4804:	01000000 	unimp
    4808:	756f0c54 	0xc54
    480c:	2f010074 	0x74
    4810:	00010ba4 	0xba4
    4814:	00000000 	unimp
    4818:	00736c0d 	0x6c0d
    481c:	01632501 	0x2501
    4820:	21aa0000 	unimp
    4824:	630e0000 	unimp
    4828:	5e260100 	0x100
    482c:	01000000 	unimp
    4830:	009b0f52 	0xf52
    4834:	0b4c0000 	unimp
    4838:	00000001 	0x1
    483c:	05f00000 	unimp
    4840:	26010000 	unimp
    4844:	00000144 	0x144
    4848:	00062010 	0x2010
    484c:	00ab1100 	0x1100
    4850:	21cd0000 	unimp
    4854:	00000000 	unimp
    4858:	010bb812 	0xb812
    485c:	00000000 	unimp
    4860:	010bc800 	0xc800
    4864:	00000000 	unimp
    4868:	68630e00 	0xe00
    486c:	731e0100 	0x100
    4870:	01000000 	unimp
    4874:	04000052 	0x52
    4878:	00005e08 	0x5e08
	...

Disassembly of section .debug_abbrev:

0000000000000000 <$Ldebug_abbrev0>:
   0:	25011101 	0x1101
   4:	030b130e 	0x130e
   8:	110e1b0e 	0x1b0e
   c:	10011201 	0x1201
  10:	02000006 	0x6
  14:	0b0b0024 	0x24
  18:	0e030b3e 	0xb3e
  1c:	24030000 	unimp
  20:	3e0b0b00 	0xb00
  24:	0008030b 	0x8030b
  28:	00150400 	0x400
  2c:	00000c27 	0xc27
  30:	0b000f05 	0xf05
  34:	0013490b 	vlsegstw	vzero,zero,a5,21
  38:	01040600 	0x600
  3c:	0b0b0e03 	lbu	ra,707(t0)
  40:	0b3b0b3a 	0xb3a
  44:	00001301 	0x1301
  48:	03002807 	0x3002807
  4c:	000d1c0e 	0x1c0e
  50:	012e0800 	0x800
  54:	0e030c3f 	0xe030c3f
  58:	0b3b0b3a 	0xb3a
  5c:	13490c27 	0x13490c27
  60:	01120111 	0x111
  64:	00000a40 	0xa40
  68:	03000509 	0x509
  6c:	3b0b3a08 	0x3a08
  70:	0213490b 	vlsegstw	vzero,a4,a5,21
  74:	00000006 	0x6

0000000000000078 <$Ldebug_abbrev0>:
  78:	25011101 	0x1101
  7c:	030b130e 	0x130e
  80:	110e1b0e 	0x1b0e
  84:	10011201 	0x1201
  88:	02000006 	0x6
  8c:	0b0b0024 	0x24
  90:	0e030b3e 	0xb3e
  94:	24030000 	unimp
  98:	3e0b0b00 	0xb00
  9c:	0008030b 	0x8030b
  a0:	00160400 	0x400
  a4:	0b3a0e03 	lbu	ra,-381(t0)
  a8:	13490b3b 	0x13490b3b
  ac:	16050000 	unimp
  b0:	3a0e0300 	0x300
  b4:	49053b0b 	vlsegstwu	va5,a0,v0,20
  b8:	06000013 	move	zero,s4
  bc:	0b0b0117 	0xb0b0117
  c0:	0b3b0b3a 	0xb3a
  c4:	00001301 	0x1301
  c8:	03000d07 	flw	ft0,3(t0)
  cc:	3b0b3a0e 	0x3a0e
  d0:	0013490b 	vlsegstw	vzero,zero,a5,21
  d4:	01010800 	0x800
  d8:	13011349 	0x1349
  dc:	21090000 	unimp
  e0:	2f134900 	0x4900
  e4:	0a00000b 	vlb	vra,a4
  e8:	0b0b0113 	slt	ra,t0,704
  ec:	0b3b0b3a 	0xb3a
  f0:	00001301 	0x1301
  f4:	03000d0b 	vflsegstw	vf0,t0,zero,1
  f8:	3b0b3a0e 	0x3a0e
  fc:	3813490b 	vlsegstw	va3,zero,a5,21
 100:	0c00000a 	0xa
 104:	0b0b000f 	0xb0b000f
 108:	130d0000 	unimp
 10c:	0b0e0301 	0x301
 110:	3b0b3a0b 	vlsegstbu	va3,t0,a1,20
 114:	0013010b 	0x13010b
 118:	000d0e00 	0xe00
 11c:	0b3a0803 	lb	ra,-382(t0)
 120:	13490b3b 	0x13490b3b
 124:	00000a38 	0xa38
 128:	0b000f0f 	0xb000f0f
 12c:	0013490b 	vlsegstw	vzero,zero,a5,21
 130:	01131000 	0x1000
 134:	050b0e03 	lbu	zero,707(s0)
 138:	0b3b0b3a 	0xb3a
 13c:	00001301 	0x1301
 140:	27001511 	0x1511
 144:	1200000c 	0xc
 148:	0c270115 	0x115
 14c:	13011349 	0x1349
 150:	05130000 	unimp
 154:	00134900 	0x4900
 158:	01131400 	0x1400
 15c:	050b0e03 	lbu	zero,707(s0)
 160:	053b0b3a 	0xb3a
 164:	00001301 	0x1301
 168:	03000d15 	0xd15
 16c:	3b0b3a0e 	0x3a0e
 170:	38134905 	0x4905
 174:	1600000a 	0xa
 178:	13490026 	0x26
 17c:	13170000 	unimp
 180:	0b0e0301 	0x301
 184:	3b0b3a0b 	vlsegstbu	va3,t0,a1,20
 188:	00130105 	0x105
 18c:	01131800 	0x1800
 190:	0b3a0b0b 	vlsegstwu	vra,t0,s9,1
 194:	1301053b 	0x1301053b
 198:	13190000 	unimp
 19c:	3a050b01 	0xb01
 1a0:	01053b0b 	vlsegstwu	vzero,a0,v0,20
 1a4:	1a000013 	move	v1,a4
 1a8:	050b0117 	0x50b0117
 1ac:	053b0b3a 	0xb3a
 1b0:	00001301 	0x1301
 1b4:	03000d1b 	0x3000d1b
 1b8:	3b0b3a0e 	0x3a0e
 1bc:	00134905 	0x4905
 1c0:	01151c00 	0x1c00
 1c4:	13010c27 	0x13010c27
 1c8:	2e1d0000 	unimp
 1cc:	030c3f01 	0x3f01
 1d0:	3b0b3a0e 	0x3a0e
 1d4:	110c270b 	0x110c270b
 1d8:	40011201 	0x1201
 1dc:	00130106 	0x106
 1e0:	00051e00 	0x1e00
 1e4:	0b3a0e03 	lbu	ra,-381(t0)
 1e8:	13490b3b 	0x13490b3b
 1ec:	00000602 	0x602
 1f0:	0300341f 	0x300341f
 1f4:	3b0b3a0e 	0x3a0e
 1f8:	3f134905 	0x4905
 1fc:	000c3c0c 	0x3c0c
	...

0000000000000202 <$Ldebug_abbrev0>:
 202:	25011101 	0x1101
 206:	030b130e 	0x130e
 20a:	110e1b0e 	0x1b0e
 20e:	10011201 	0x1201
 212:	02000006 	0x6
 216:	0b0b0024 	0x24
 21a:	0e030b3e 	0xb3e
 21e:	24030000 	unimp
 222:	3e0b0b00 	0xb00
 226:	0008030b 	0x8030b
 22a:	00160400 	0x400
 22e:	0b3a0e03 	lbu	ra,-381(t0)
 232:	13490b3b 	0x13490b3b
 236:	16050000 	unimp
 23a:	3a0e0300 	0x300
 23e:	49053b0b 	vlsegstwu	va5,a0,v0,20
 242:	06000013 	move	zero,s4
 246:	0b0b0117 	0xb0b0117
 24a:	0b3b0b3a 	0xb3a
 24e:	00001301 	0x1301
 252:	03000d07 	flw	ft0,3(t0)
 256:	3b0b3a0e 	0x3a0e
 25a:	0013490b 	vlsegstw	vzero,zero,a5,21
 25e:	01010800 	0x800
 262:	13011349 	0x1349
 266:	21090000 	unimp
 26a:	2f134900 	0x4900
 26e:	0a00000b 	vlb	vra,a4
 272:	0b0b0113 	slt	ra,t0,704
 276:	0b3b0b3a 	0xb3a
 27a:	00001301 	0x1301
 27e:	03000d0b 	vflsegstw	vf0,t0,zero,1
 282:	3b0b3a0e 	0x3a0e
 286:	3813490b 	vlsegstw	va3,zero,a5,21
 28a:	0c00000a 	0xa
 28e:	0b0b000f 	0xb0b000f
 292:	130d0000 	unimp
 296:	0b0e0301 	0x301
 29a:	3b0b3a0b 	vlsegstbu	va3,t0,a1,20
 29e:	0013010b 	0x13010b
 2a2:	000d0e00 	0xe00
 2a6:	0b3a0803 	lb	ra,-382(t0)
 2aa:	13490b3b 	0x13490b3b
 2ae:	00000a38 	0xa38
 2b2:	0b000f0f 	0xb000f0f
 2b6:	0013490b 	vlsegstw	vzero,zero,a5,21
 2ba:	01131000 	0x1000
 2be:	050b0e03 	lbu	zero,707(s0)
 2c2:	0b3b0b3a 	0xb3a
 2c6:	00001301 	0x1301
 2ca:	27001511 	0x1511
 2ce:	1200000c 	0xc
 2d2:	0c270115 	0x115
 2d6:	13011349 	0x1349
 2da:	05130000 	unimp
 2de:	00134900 	0x4900
 2e2:	01131400 	0x1400
 2e6:	050b0e03 	lbu	zero,707(s0)
 2ea:	053b0b3a 	0xb3a
 2ee:	00001301 	0x1301
 2f2:	03000d15 	0xd15
 2f6:	3b0b3a0e 	0x3a0e
 2fa:	38134905 	0x4905
 2fe:	1600000a 	0xa
 302:	13490026 	0x26
 306:	13170000 	unimp
 30a:	0b0e0301 	0x301
 30e:	3b0b3a0b 	vlsegstbu	va3,t0,a1,20
 312:	00130105 	0x105
 316:	01131800 	0x1800
 31a:	0b3a0b0b 	vlsegstwu	vra,t0,s9,1
 31e:	1301053b 	0x1301053b
 322:	13190000 	unimp
 326:	3a050b01 	0xb01
 32a:	01053b0b 	vlsegstwu	vzero,a0,v0,20
 32e:	1a000013 	move	v1,a4
 332:	050b0117 	0x50b0117
 336:	053b0b3a 	0xb3a
 33a:	00001301 	0x1301
 33e:	03000d1b 	0x3000d1b
 342:	3b0b3a0e 	0x3a0e
 346:	00134905 	0x4905
 34a:	01151c00 	0x1c00
 34e:	13010c27 	0x13010c27
 352:	341d0000 	unimp
 356:	3a0e0300 	0x300
 35a:	490b3b0b 	vlsegstwu	va5,a0,a1,20
 35e:	000a0213 	xor	zero,zero,640
 362:	00341e00 	0x1e00
 366:	0b3a0e03 	lbu	ra,-381(t0)
 36a:	1349053b 	0x1349053b
 36e:	0a020c3f 	0xa020c3f
 372:	01000000 	unimp

0000000000000375 <$Ldebug_abbrev0>:
 375:	25011101 	0x1101
 379:	030b130e 	0x130e
 37d:	110e1b0e 	0x1b0e
 381:	10011201 	0x1201
 385:	02000006 	0x6
 389:	0b0b0024 	0x24
 38d:	0e030b3e 	0xb3e
 391:	24030000 	unimp
 395:	3e0b0b00 	0xb00
 399:	0008030b 	0x8030b
 39d:	00160400 	0x400
 3a1:	0b3a0e03 	lbu	ra,-381(t0)
 3a5:	13490b3b 	0x13490b3b
 3a9:	16050000 	unimp
 3ad:	3a0e0300 	0x300
 3b1:	49053b0b 	vlsegstwu	va5,a0,v0,20
 3b5:	06000013 	move	zero,s4
 3b9:	0b0b0117 	0xb0b0117
 3bd:	0b3b0b3a 	0xb3a
 3c1:	00001301 	0x1301
 3c5:	03000d07 	flw	ft0,3(t0)
 3c9:	3b0b3a0e 	0x3a0e
 3cd:	0013490b 	vlsegstw	vzero,zero,a5,21
 3d1:	01010800 	0x800
 3d5:	13011349 	0x1349
 3d9:	21090000 	unimp
 3dd:	2f134900 	0x4900
 3e1:	0a00000b 	vlb	vra,a4
 3e5:	0b0b0113 	slt	ra,t0,704
 3e9:	0b3b0b3a 	0xb3a
 3ed:	00001301 	0x1301
 3f1:	03000d0b 	vflsegstw	vf0,t0,zero,1
 3f5:	3b0b3a0e 	0x3a0e
 3f9:	3813490b 	vlsegstw	va3,zero,a5,21
 3fd:	0c00000a 	0xa
 401:	0b0b000f 	0xb0b000f
 405:	130d0000 	unimp
 409:	0b0e0301 	0x301
 40d:	3b0b3a0b 	vlsegstbu	va3,t0,a1,20
 411:	0013010b 	0x13010b
 415:	000d0e00 	0xe00
 419:	0b3a0803 	lb	ra,-382(t0)
 41d:	13490b3b 	0x13490b3b
 421:	00000a38 	0xa38
 425:	0b000f0f 	0xb000f0f
 429:	0013490b 	vlsegstw	vzero,zero,a5,21
 42d:	01131000 	0x1000
 431:	050b0e03 	lbu	zero,707(s0)
 435:	0b3b0b3a 	0xb3a
 439:	00001301 	0x1301
 43d:	27001511 	0x1511
 441:	1200000c 	0xc
 445:	0c270115 	0x115
 449:	13011349 	0x1349
 44d:	05130000 	unimp
 451:	00134900 	0x4900
 455:	01131400 	0x1400
 459:	050b0e03 	lbu	zero,707(s0)
 45d:	053b0b3a 	0xb3a
 461:	00001301 	0x1301
 465:	03000d15 	0xd15
 469:	3b0b3a0e 	0x3a0e
 46d:	38134905 	0x4905
 471:	1600000a 	0xa
 475:	13490026 	0x26
 479:	13170000 	unimp
 47d:	0b0e0301 	0x301
 481:	3b0b3a0b 	vlsegstbu	va3,t0,a1,20
 485:	00130105 	0x105
 489:	01131800 	0x1800
 48d:	0b3a0b0b 	vlsegstwu	vra,t0,s9,1
 491:	1301053b 	0x1301053b
 495:	13190000 	unimp
 499:	3a050b01 	0xb01
 49d:	01053b0b 	vlsegstwu	vzero,a0,v0,20
 4a1:	1a000013 	move	v1,a4
 4a5:	050b0117 	0x50b0117
 4a9:	053b0b3a 	0xb3a
 4ad:	00001301 	0x1301
 4b1:	03000d1b 	0x3000d1b
 4b5:	3b0b3a0e 	0x3a0e
 4b9:	00134905 	0x4905
 4bd:	01151c00 	0x1c00
 4c1:	13010c27 	0x13010c27
 4c5:	041d0000 	unimp
 4c9:	0b0e0301 	0x301
 4cd:	3b0b3a0b 	vlsegstbu	va3,t0,a1,20
 4d1:	0013010b 	0x13010b
 4d5:	00281e00 	0x1e00
 4d9:	0d1c0e03 	lbu	ra,1795(s0)
 4dd:	2e1f0000 	unimp
 4e1:	030c3f01 	0x3f01
 4e5:	3b0b3a0e 	0x3a0e
 4e9:	490c270b 	0x490c270b
 4ed:	12011113 	slt	v0,a4,68
 4f1:	01064001 	0x4001
 4f5:	20000013 	li	a0,0
 4f9:	0e030005 	0x5
 4fd:	0b3b0b3a 	0xb3a
 501:	06021349 	0x1349
 505:	05210000 	unimp
 509:	3a080300 	0x300
 50d:	490b3b0b 	vlsegstwu	va5,a0,a1,20
 511:	00060213 	xor	zero,zero,384
 515:	00342200 	0x2200
 519:	0b3a0e03 	lbu	ra,-381(t0)
 51d:	13490b3b 	0x13490b3b
 521:	00000602 	0x602
 525:	03003423 	sb	zero,13(t0)
 529:	3b0b3a08 	0x3a08
 52d:	0213490b 	vlsegstw	vzero,a4,a5,21
 531:	24000006 	0x6
 535:	0e030034 	0x34
 539:	0b3b0b3a 	0xb3a
 53d:	0b1c1349 	0x1349
 541:	34250000 	unimp
 545:	3a0e0300 	0x300
 549:	49053b0b 	vlsegstwu	va5,a0,v0,20
 54d:	3c0c3f13 	or	a3,t4,783
 551:	0000000c 	0xc

0000000000000555 <$Ldebug_abbrev0>:
 555:	25011101 	0x1101
 559:	030b130e 	0x130e
 55d:	110e1b0e 	0x1b0e
 561:	10011201 	0x1201
 565:	02000006 	0x6
 569:	0b0b0024 	0x24
 56d:	0e030b3e 	0xb3e
 571:	24030000 	unimp
 575:	3e0b0b00 	0xb00
 579:	0008030b 	0x8030b
 57d:	00160400 	0x400
 581:	0b3a0e03 	lbu	ra,-381(t0)
 585:	13490b3b 	0x13490b3b
 589:	16050000 	unimp
 58d:	3a0e0300 	0x300
 591:	49053b0b 	vlsegstwu	va5,a0,v0,20
 595:	06000013 	move	zero,s4
 599:	0b0b0117 	0xb0b0117
 59d:	0b3b0b3a 	0xb3a
 5a1:	00001301 	0x1301
 5a5:	03000d07 	flw	ft0,3(t0)
 5a9:	3b0b3a0e 	0x3a0e
 5ad:	0013490b 	vlsegstw	vzero,zero,a5,21
 5b1:	01010800 	0x800
 5b5:	13011349 	0x1349
 5b9:	21090000 	unimp
 5bd:	2f134900 	0x4900
 5c1:	0a00000b 	vlb	vra,a4
 5c5:	0b0b0113 	slt	ra,t0,704
 5c9:	0b3b0b3a 	0xb3a
 5cd:	00001301 	0x1301
 5d1:	03000d0b 	vflsegstw	vf0,t0,zero,1
 5d5:	3b0b3a0e 	0x3a0e
 5d9:	3813490b 	vlsegstw	va3,zero,a5,21
 5dd:	0c00000a 	0xa
 5e1:	0b0b000f 	0xb0b000f
 5e5:	130d0000 	unimp
 5e9:	0b0e0301 	0x301
 5ed:	3b0b3a0b 	vlsegstbu	va3,t0,a1,20
 5f1:	0013010b 	0x13010b
 5f5:	000d0e00 	0xe00
 5f9:	0b3a0803 	lb	ra,-382(t0)
 5fd:	13490b3b 	0x13490b3b
 601:	00000a38 	0xa38
 605:	0b000f0f 	0xb000f0f
 609:	0013490b 	vlsegstw	vzero,zero,a5,21
 60d:	01131000 	0x1000
 611:	050b0e03 	lbu	zero,707(s0)
 615:	0b3b0b3a 	0xb3a
 619:	00001301 	0x1301
 61d:	27001511 	0x1511
 621:	1200000c 	0xc
 625:	0c270115 	0x115
 629:	13011349 	0x1349
 62d:	05130000 	unimp
 631:	00134900 	0x4900
 635:	01131400 	0x1400
 639:	050b0e03 	lbu	zero,707(s0)
 63d:	053b0b3a 	0xb3a
 641:	00001301 	0x1301
 645:	03000d15 	0xd15
 649:	3b0b3a0e 	0x3a0e
 64d:	38134905 	0x4905
 651:	1600000a 	0xa
 655:	13490026 	0x26
 659:	13170000 	unimp
 65d:	0b0e0301 	0x301
 661:	3b0b3a0b 	vlsegstbu	va3,t0,a1,20
 665:	00130105 	0x105
 669:	01131800 	0x1800
 66d:	0b3a0b0b 	vlsegstwu	vra,t0,s9,1
 671:	1301053b 	0x1301053b
 675:	13190000 	unimp
 679:	3a050b01 	0xb01
 67d:	01053b0b 	vlsegstwu	vzero,a0,v0,20
 681:	1a000013 	move	v1,a4
 685:	050b0117 	0x50b0117
 689:	053b0b3a 	0xb3a
 68d:	00001301 	0x1301
 691:	03000d1b 	0x3000d1b
 695:	3b0b3a0e 	0x3a0e
 699:	00134905 	0x4905
 69d:	01151c00 	0x1c00
 6a1:	13010c27 	0x13010c27
 6a5:	2e1d0000 	unimp
 6a9:	030c3f01 	0x3f01
 6ad:	3b0b3a0e 	0x3a0e
 6b1:	110c270b 	0x110c270b
 6b5:	40011201 	0x1201
 6b9:	00130106 	0x106
 6bd:	00051e00 	0x1e00
 6c1:	0b3a0e03 	lbu	ra,-381(t0)
 6c5:	13490b3b 	0x13490b3b
 6c9:	00000602 	0x602
 6cd:	0300051f 	0x300051f
 6d1:	3b0b3a08 	0x3a08
 6d5:	0213490b 	vlsegstw	vzero,a4,a5,21
 6d9:	20000006 	0x6
 6dd:	08030034 	0x34
 6e1:	0b3b0b3a 	0xb3a
 6e5:	06021349 	0x1349
 6e9:	34210000 	unimp
 6ed:	3a0e0300 	0x300
 6f1:	490b3b0b 	vlsegstwu	va5,a0,a1,20
 6f5:	00060213 	xor	zero,zero,384
 6f9:	000a2200 	0x2200
 6fd:	0b3a0e03 	lbu	ra,-381(t0)
 701:	00000b3b 	0xb3b
 705:	55010b23 	0x55010b23
 709:	24000006 	0x6
 70d:	0e030034 	0x34
 711:	053b0b3a 	0xb3a
 715:	0c3f1349 	0x1349
 719:	00000c3c 	0xc3c
	...

000000000000071e <$Ldebug_abbrev0>:
 71e:	25011101 	0x1101
 722:	030b130e 	0x130e
 726:	110e1b0e 	0x1b0e
 72a:	10011201 	0x1201
 72e:	02000006 	0x6
 732:	0b0b0113 	slt	ra,t0,704
 736:	0b3b0b3a 	0xb3a
 73a:	00001301 	0x1301
 73e:	03000d03 	lw	zero,3(t0)
 742:	3b0b3a0e 	0x3a0e
 746:	3813490b 	vlsegstw	va3,zero,a5,21
 74a:	0400000a 	0xa
 74e:	0803000d 	0xd
 752:	0b3b0b3a 	0xb3a
 756:	0a381349 	0x1349
 75a:	24050000 	unimp
 75e:	3e0b0b00 	0xb00
 762:	000e030b 	0xe030b
 766:	00160600 	0x600
 76a:	0b3a0e03 	lbu	ra,-381(t0)
 76e:	13490b3b 	0x13490b3b
 772:	24070000 	unimp
 776:	3e0b0b00 	0xb00
 77a:	0008030b 	0x8030b
 77e:	000f0800 	0x800
 782:	00000b0b 	vlsegstwu	vzero,zero,zero,1
 786:	0b000f09 	0xf09
 78a:	0013490b 	vlsegstw	vzero,zero,a5,21
 78e:	00260a00 	0xa00
 792:	00001349 	0x1349
 796:	0300160b 	0x300160b
 79a:	3b0b3a0e 	0x3a0e
 79e:	00134905 	0x4905
 7a2:	01130c00 	0xc00
 7a6:	0b0b0e03 	lbu	ra,707(t0)
 7aa:	0b3b0b3a 	0xb3a
 7ae:	00001301 	0x1301
 7b2:	4901010d 	0x10d
 7b6:	00130113 	slt	zero,zero,1216
 7ba:	00210e00 	0xe00
 7be:	0b2f1349 	0x1349
 7c2:	130f0000 	unimp
 7c6:	0b080301 	0x301
 7ca:	3b0b3a0b 	vlsegstbu	va3,t0,a1,20
 7ce:	0013010b 	0x13010b
 7d2:	012e1000 	0x1000
 7d6:	0b3a0e03 	lbu	ra,-381(t0)
 7da:	0c270b3b 	0xc270b3b
 7de:	0b201349 	0x1349
 7e2:	00001301 	0x1301
 7e6:	03000511 	0x511
 7ea:	3b0b3a08 	0x3a08
 7ee:	0013490b 	vlsegstw	vzero,zero,a5,21
 7f2:	00341200 	0x1200
 7f6:	0b3a0e03 	lbu	ra,-381(t0)
 7fa:	13490b3b 	0x13490b3b
 7fe:	34130000 	unimp
 802:	3a080300 	0x300
 806:	490b3b0b 	vlsegstwu	va5,a0,a1,20
 80a:	14000013 	move	v0,t4
 80e:	0c3f012e 	0x12e
 812:	0b3a0e03 	lbu	ra,-381(t0)
 816:	0c270b3b 	0xc270b3b
 81a:	0b201349 	0x1349
 81e:	00001301 	0x1301
 822:	03000515 	0x515
 826:	3b0b3a08 	0x3a08
 82a:	00134905 	0x4905
 82e:	012e1600 	0x1600
 832:	0e030c3f 	0xe030c3f
 836:	0b3b0b3a 	0xb3a
 83a:	13490c27 	0x13490c27
 83e:	01120111 	0x111
 842:	13010640 	0x640
 846:	05170000 	unimp
 84a:	3a0e0300 	0x300
 84e:	490b3b0b 	vlsegstwu	va5,a0,a1,20
 852:	00060213 	xor	zero,zero,384
 856:	011d1800 	0x1800
 85a:	01521331 	0x1331
 85e:	0b580655 	0x655
 862:	00000b59 	0xb59
 866:	31000519 	0x519
 86a:	00060213 	xor	zero,zero,384
 86e:	00051a00 	0x1a00
 872:	0b1c1331 	0x1331
 876:	0b1b0000 	unimp
 87a:	00065501 	0x5501
 87e:	00341c00 	0x1c00
 882:	06021331 	0x1331
 886:	051d0000 	unimp
 88a:	3a080300 	0x300
 88e:	490b3b0b 	vlsegstwu	va5,a0,a1,20
 892:	00060213 	xor	zero,zero,384
 896:	00051e00 	0x1e00
 89a:	00001331 	0x1331
 89e:	31011d1f 	0x31011d1f
 8a2:	12011113 	slt	v0,a4,68
 8a6:	590b5801 	0x5801
 8aa:	2000000b 	vlb	va0,zero
 8ae:	0111010b 	0x111010b
 8b2:	00000112 	0x112
 8b6:	00002621 	0x2621
 8ba:	002e2200 	0x2200
 8be:	0e030c3f 	0xe030c3f
 8c2:	0b3b0b3a 	0xb3a
 8c6:	13490c27 	0x13490c27
 8ca:	01120111 	0x111
 8ce:	00000640 	0x640
 8d2:	3f002e23 	0x3f002e23
 8d6:	3a0e030c 	0x30c
 8da:	270b3b0b 	vlsegstwu	va0,s8,a1,20
 8de:	1113490c 	0x490c
 8e2:	40011201 	0x1201
 8e6:	2400000a 	0xa
 8ea:	0e030005 	0x5
 8ee:	053b0b3a 	0xb3a
 8f2:	06021349 	0x1349
 8f6:	34250000 	unimp
 8fa:	3a080300 	0x300
 8fe:	49053b0b 	vlsegstwu	va5,a0,v0,20
 902:	000a0213 	xor	zero,zero,640
 906:	00342600 	0x2600
 90a:	0b3a0803 	lb	ra,-382(t0)
 90e:	1349053b 	0x1349053b
 912:	00000602 	0x602
 916:	3f012e27 	0x3f012e27
 91a:	3a0e030c 	0x30c
 91e:	270b3b0b 	vlsegstwu	va0,s8,a1,20
 922:	1113490c 	0x490c
 926:	40011201 	0x1201
 92a:	0013010a 	0x10a
 92e:	00052800 	0x2800
 932:	0b3a0803 	lb	ra,-382(t0)
 936:	1349053b 	0x1349053b
 93a:	00000a02 	0xa02
 93e:	03003429 	0x3429
 942:	3b0b3a0e 	0x3a0e
 946:	00134905 	0x4905
 94a:	011d2a00 	0x2a00
 94e:	01521331 	0x1331
 952:	0b580655 	0x655
 956:	00000559 	0x559
 95a:	31012e2b 	0x31012e2b
 95e:	12011113 	slt	v0,a4,68
 962:	010a4001 	0x4001
 966:	2c000013 	move	a1,t4
 96a:	13310005 	0x5
 96e:	00000a02 	0xa02
 972:	3f012e2d 	0x2e2d
 976:	3a0e030c 	0x30c
 97a:	27053b0b 	vlsegstwu	va0,s8,v0,20
 97e:	1113490c 	0x490c
 982:	40011201 	0x1201
 986:	0013010a 	0x10a
 98a:	00052e00 	0x2e00
 98e:	0b3a0e03 	lbu	ra,-381(t0)
 992:	1349053b 	0x1349053b
 996:	00000a02 	0xa02
 99a:	0300342f 	0x300342f
 99e:	3b0b3a0e 	0x3a0e
 9a2:	3f134905 	0x4905
 9a6:	000c3c0c 	0x3c0c
 9aa:	00343000 	0x3000
 9ae:	0b3a0e03 	lbu	ra,-381(t0)
 9b2:	1349053b 	0x1349053b
 9b6:	00000a02 	0xa02
 9ba:	3f012e31 	0x2e31
 9be:	3a0e030c 	0x30c
 9c2:	270b3b0b 	vlsegstwu	va0,s8,a1,20
 9c6:	1201110c 	0x110c
 9ca:	01064001 	0x4001
 9ce:	32000013 	move	a2,a4
 9d2:	1331011d 	0x11d
 9d6:	01120111 	0x111
 9da:	05590b58 	0xb58
 9de:	34330000 	unimp
 9e2:	00133100 	0x3100
	...

00000000000009e8 <$Ldebug_abbrev0>:
 9e8:	25011101 	0x1101
 9ec:	030b130e 	0x130e
 9f0:	110e1b0e 	0x1b0e
 9f4:	10011201 	0x1201
 9f8:	02000006 	0x6
 9fc:	0b0b0024 	0x24
 a00:	08030b3e 	0xb3e
 a04:	24030000 	unimp
 a08:	3e0b0b00 	0xb00
 a0c:	000e030b 	0xe030b
 a10:	00160400 	0x400
 a14:	0b3a0e03 	lbu	ra,-381(t0)
 a18:	13490b3b 	0x13490b3b
 a1c:	16050000 	unimp
 a20:	3a0e0300 	0x300
 a24:	49053b0b 	vlsegstwu	va5,a0,v0,20
 a28:	06000013 	move	zero,s4
 a2c:	0b0b0117 	0xb0b0117
 a30:	0b3b0b3a 	0xb3a
 a34:	00001301 	0x1301
 a38:	03000d07 	flw	ft0,3(t0)
 a3c:	3b0b3a0e 	0x3a0e
 a40:	0013490b 	vlsegstw	vzero,zero,a5,21
 a44:	01010800 	0x800
 a48:	13011349 	0x1349
 a4c:	21090000 	unimp
 a50:	2f134900 	0x4900
 a54:	0a00000b 	vlb	vra,a4
 a58:	0b0b0113 	slt	ra,t0,704
 a5c:	0b3b0b3a 	0xb3a
 a60:	00001301 	0x1301
 a64:	03000d0b 	vflsegstw	vf0,t0,zero,1
 a68:	3b0b3a0e 	0x3a0e
 a6c:	3813490b 	vlsegstw	va3,zero,a5,21
 a70:	0c00000a 	0xa
 a74:	0b0b000f 	0xb0b000f
 a78:	130d0000 	unimp
 a7c:	0b0e0301 	0x301
 a80:	3b0b3a0b 	vlsegstbu	va3,t0,a1,20
 a84:	0013010b 	0x13010b
 a88:	000d0e00 	0xe00
 a8c:	0b3a0803 	lb	ra,-382(t0)
 a90:	13490b3b 	0x13490b3b
 a94:	00000a38 	0xa38
 a98:	0b000f0f 	0xb000f0f
 a9c:	0013490b 	vlsegstw	vzero,zero,a5,21
 aa0:	01131000 	0x1000
 aa4:	050b0e03 	lbu	zero,707(s0)
 aa8:	0b3b0b3a 	0xb3a
 aac:	00001301 	0x1301
 ab0:	27001511 	0x1511
 ab4:	1200000c 	0xc
 ab8:	0c270115 	0x115
 abc:	13011349 	0x1349
 ac0:	05130000 	unimp
 ac4:	00134900 	0x4900
 ac8:	01131400 	0x1400
 acc:	050b0e03 	lbu	zero,707(s0)
 ad0:	053b0b3a 	0xb3a
 ad4:	00001301 	0x1301
 ad8:	03000d15 	0xd15
 adc:	3b0b3a0e 	0x3a0e
 ae0:	38134905 	0x4905
 ae4:	1600000a 	0xa
 ae8:	13490026 	0x26
 aec:	13170000 	unimp
 af0:	0b0e0301 	0x301
 af4:	3b0b3a0b 	vlsegstbu	va3,t0,a1,20
 af8:	00130105 	0x105
 afc:	01131800 	0x1800
 b00:	0b3a0b0b 	vlsegstwu	vra,t0,s9,1
 b04:	1301053b 	0x1301053b
 b08:	13190000 	unimp
 b0c:	3a050b01 	0xb01
 b10:	01053b0b 	vlsegstwu	vzero,a0,v0,20
 b14:	1a000013 	move	v1,a4
 b18:	050b0117 	0x50b0117
 b1c:	053b0b3a 	0xb3a
 b20:	00001301 	0x1301
 b24:	03000d1b 	0x3000d1b
 b28:	3b0b3a0e 	0x3a0e
 b2c:	00134905 	0x4905
 b30:	01151c00 	0x1c00
 b34:	13010c27 	0x13010c27
 b38:	2e1d0000 	unimp
 b3c:	030c3f00 	0x3f00
 b40:	3b0b3a0e 	0x3a0e
 b44:	490c270b 	0x490c270b
 b48:	12011113 	slt	v0,a4,68
 b4c:	000a4001 	0x4001
 b50:	00341e00 	0x1e00
 b54:	0b3a0e03 	lbu	ra,-381(t0)
 b58:	1349053b 	0x1349053b
 b5c:	0c3c0c3f 	0xc3c0c3f
 b60:	01000000 	unimp

0000000000000b63 <$Ldebug_abbrev0>:
 b63:	25011101 	0x1101
 b67:	030b130e 	0x130e
 b6b:	110e1b0e 	0x1b0e
 b6f:	10011201 	0x1201
 b73:	02000006 	0x6
 b77:	0b0b0024 	0x24
 b7b:	0e030b3e 	0xb3e
 b7f:	24030000 	unimp
 b83:	3e0b0b00 	0xb00
 b87:	0008030b 	0x8030b
 b8b:	000f0400 	0x400
 b8f:	13490b0b 	vlsegstwu	vv0,t1,a0,17
 b93:	26050000 	unimp
 b97:	00134900 	0x4900
 b9b:	00160600 	0x600
 b9f:	0b3a0e03 	lbu	ra,-381(t0)
 ba3:	13490b3b 	0x13490b3b
 ba7:	2e070000 	unimp
 bab:	3a0e0301 	0x301
 baf:	490b3b0b 	vlsegstwu	va5,a0,a1,20
 bb3:	010b2013 	add	zero,a0,712
 bb7:	08000013 	li	ra,0
 bbb:	08030034 	0x34
 bbf:	0b3b0b3a 	0xb3a
 bc3:	00001349 	0x1349
 bc7:	3f012e09 	0x2e09
 bcb:	3a0e030c 	0x30c
 bcf:	270b3b0b 	vlsegstwu	va0,s8,a1,20
 bd3:	1113490c 	0x490c
 bd7:	40011201 	0x1201
 bdb:	0013010a 	0x10a
 bdf:	00050a00 	0xa00
 be3:	0b3a0803 	lb	ra,-382(t0)
 be7:	13490b3b 	0x13490b3b
 beb:	00000602 	0x602
 bef:	0300340b 	0x300340b
 bf3:	3b0b3a0e 	0x3a0e
 bf7:	0213490b 	vlsegstw	vzero,a4,a5,21
 bfb:	0c00000a 	0xa
 bff:	0803000a 	0xa
 c03:	0b3b0b3a 	0xb3a
 c07:	00000111 	0x111
 c0b:	0300340d 	0x340d
 c0f:	3b0b3a08 	0x3a08
 c13:	0213490b 	vlsegstw	vzero,a4,a5,21
 c17:	0e000006 	0x6
 c1b:	08030034 	0x34
 c1f:	0b3b0b3a 	0xb3a
 c23:	0a021349 	0x1349
 c27:	1d0f0000 	unimp
 c2b:	52133101 	0x3101
 c2f:	58065501 	0x5501
 c33:	010b590b 	vlsegstw	vzero,a0,a1,22
 c37:	10000013 	li	v0,0
 c3b:	0655010b 	0x655010b
 c3f:	34110000 	unimp
 c43:	02133100 	0x3100
 c47:	12000006 	0x6
 c4b:	0111010b 	0x111010b
 c4f:	00000112 	0x112
	...

Disassembly of section .debug_loc:

0000000000000000 <$LLST0>:
	...
       8:	0000000c 	0xc
       c:	00000000 	unimp
      10:	0c540001 	0x1
      14:	00000000 	unimp
      18:	13000000 	unimp
      1c:	00000000 	unimp
      20:	01000000 	unimp
      24:	00005500 	0x5500
	...

0000000000000036 <$LLST0>:
	...
      3e:	00000004 	0x4
      42:	00000000 	unimp
      46:	008e0002 	0x2
      4a:	00000004 	0x4
      4e:	00000000 	unimp
      52:	00000034 	0x34
      56:	00000000 	unimp
      5a:	108e0002 	0x2
	...

000000000000006e <$LLST1>:
	...
      76:	00000017 	0x17
      7a:	00000000 	unimp
      7e:	00540001 	0x1
	...

0000000000000091 <$LLST0>:
	...
      99:	00000004 	0x4
      9d:	00000000 	unimp
      a1:	008e0002 	0x2
      a5:	00000004 	0x4
      a9:	00000000 	unimp
      ad:	00000134 	0x134
      b1:	00000000 	unimp
      b5:	c08e0003 	lb	s4,896(v0)
	...

00000000000000ca <$LLST1>:
	...
      d2:	00000030 	0x30
      d6:	00000000 	unimp
      da:	28540001 	0x1
      de:	00000001 	0x1
      e2:	34000000 	unimp
      e6:	00000001 	0x1
      ea:	01000000 	unimp
      ee:	00005400 	0x5400
	...

0000000000000100 <$LLST2>:
	...
     108:	00000044 	0x44
     10c:	00000000 	unimp
     110:	60550001 	0x1
     114:	00000000 	unimp
     118:	73000000 	unimp
     11c:	00000000 	unimp
     120:	01000000 	unimp
     124:	01285500 	0x5500
     128:	00000000 	unimp
     12c:	01340000 	unimp
     130:	00000000 	unimp
     134:	00010000 	unimp
     138:	00000055 	0x55
	...

0000000000000149 <$LLST3>:
	...
     151:	00000044 	0x44
     155:	00000000 	unimp
     159:	60560001 	0x1
     15d:	00000000 	unimp
     161:	73000000 	unimp
     165:	00000000 	unimp
     169:	01000000 	unimp
     16d:	01285600 	0x5600
     171:	00000000 	unimp
     175:	01340000 	unimp
     179:	00000000 	unimp
     17d:	00010000 	unimp
     181:	00000056 	0x56
	...

0000000000000192 <$LLST4>:
	...
     19a:	00000044 	0x44
     19e:	00000000 	unimp
     1a2:	60570001 	0x1
     1a6:	00000000 	unimp
     1aa:	73000000 	unimp
     1ae:	00000000 	unimp
     1b2:	01000000 	unimp
     1b6:	01285700 	0x5700
     1ba:	00000000 	unimp
     1be:	01340000 	unimp
     1c2:	00000000 	unimp
     1c6:	00010000 	unimp
     1ca:	00000057 	0x57
	...

00000000000001db <$LLST5>:
     1db:	000000a8 	0xa8
     1df:	00000000 	unimp
     1e3:	000000e0 	0xe0
     1e7:	00000000 	unimp
     1eb:	90730004 	0x4
     1ef:	01189f02 	0x9f02
     1f3:	00000000 	unimp
     1f7:	01280000 	unimp
     1fb:	00000000 	unimp
     1ff:	00040000 	unimp
     203:	9f029073 	0x9f029073
	...

0000000000000217 <$LLST6>:
     217:	00000028 	0x28
     21b:	00000000 	unimp
     21f:	00000073 	vmvv	vzero,vzero
     223:	00000000 	unimp
     227:	78530001 	0x1
     22b:	00000000 	unimp
     22f:	94000000 	unimp
     233:	00000000 	unimp
     237:	01000000 	unimp
     23b:	00945200 	0x5200
     23f:	00000000 	unimp
     243:	01340000 	unimp
     247:	00000000 	unimp
     24b:	00010000 	unimp
     24f:	00000053 	fadd.s	ft0,ft0,ft0,rne
	...

0000000000000260 <$LLST0>:
	...
     268:	00000004 	0x4
     26c:	00000000 	unimp
     270:	008e0002 	0x2
     274:	00000004 	0x4
     278:	00000000 	unimp
     27c:	00000190 	0x190
     280:	00000000 	unimp
     284:	d08e0003 	lb	s6,896(v0)
	...

0000000000000299 <$LLST1>:
	...
     2a1:	00000044 	0x44
     2a5:	00000000 	unimp
     2a9:	00540001 	0x1
	...

00000000000002bc <$LLST2>:
	...
     2c4:	00000044 	0x44
     2c8:	00000000 	unimp
     2cc:	44550001 	0x1
     2d0:	00000000 	unimp
     2d4:	b0000000 	unimp
     2d8:	00000000 	unimp
     2dc:	01000000 	unimp
     2e0:	00c06600 	0x6600
     2e4:	00000000 	unimp
     2e8:	01900000 	unimp
     2ec:	00000000 	unimp
     2f0:	00010000 	unimp
     2f4:	00000066 	0x66
	...

0000000000000305 <$LLST3>:
     305:	00000050 	0x50
     309:	00000000 	unimp
     30d:	000000b4 	0xb4
     311:	00000000 	unimp
     315:	c0650001 	0x1
     319:	00000000 	unimp
     31d:	80000000 	unimp
     321:	00000001 	0x1
     325:	01000000 	unimp
     329:	01806500 	0x6500
     32d:	00000000 	unimp
     331:	01880000 	unimp
     335:	00000000 	unimp
     339:	00010000 	unimp
     33d:	00018852 	0x8852
     341:	00000000 	unimp
     345:	00019000 	0x9000
     349:	00000000 	unimp
     34d:	65000100 	0x100
	...

0000000000000361 <$LLST4>:
     361:	00000170 	0x170
     365:	00000000 	unimp
     369:	00000178 	0x178
     36d:	00000000 	unimp
     371:	80690001 	0x1
     375:	00000001 	0x1
     379:	84000000 	unimp
     37d:	00000001 	0x1
     381:	01000000 	unimp
     385:	01846500 	0x6500
     389:	00000000 	unimp
     38d:	01880000 	unimp
     391:	00000000 	unimp
     395:	00010000 	unimp
     399:	00000069 	0x69
	...

00000000000003aa <$LLST5>:
     3aa:	00000050 	0x50
     3ae:	00000000 	unimp
     3b2:	00000090 	0x90
     3b6:	00000000 	unimp
     3ba:	90850004 	0x4
     3be:	00c09f02 	0x9f02
     3c2:	00000000 	unimp
     3c6:	01700000 	unimp
     3ca:	00000000 	unimp
     3ce:	00040000 	unimp
     3d2:	9f029085 	0x9085
     3d6:	00000178 	0x178
     3da:	00000000 	unimp
     3de:	00000184 	0x184
     3e2:	00000000 	unimp
     3e6:	90850004 	0x4
     3ea:	01889f02 	0x9f02
     3ee:	00000000 	unimp
     3f2:	01900000 	unimp
     3f6:	00000000 	unimp
     3fa:	00040000 	unimp
     3fe:	9f029085 	0x9085
	...

0000000000000412 <$LLST6>:
     412:	00000058 	0x58
     416:	00000000 	unimp
     41a:	00000068 	0x68
     41e:	00000000 	unimp
     422:	68520001 	0x1
     426:	00000000 	unimp
     42a:	7c000000 	unimp
     42e:	00000000 	unimp
     432:	01000000 	unimp
     436:	007c6400 	0x6400
     43a:	00000000 	unimp
     43e:	00880000 	unimp
     442:	00000000 	unimp
     446:	00010000 	unimp
     44a:	00008852 	0x8852
     44e:	00000000 	unimp
     452:	00009000 	0x9000
     456:	00000000 	unimp
     45a:	64000100 	0x100
     45e:	000000c0 	0xc0
     462:	00000000 	unimp
     466:	00000190 	0x190
     46a:	00000000 	unimp
     46e:	00640001 	0x1
	...

0000000000000481 <$LLST7>:
     481:	00000060 	0x60
     485:	00000000 	unimp
     489:	00000080 	0x80
     48d:	00000000 	unimp
     491:	84310005 	0x5
     495:	c09f2400 	0x2400
     499:	00000000 	unimp
     49d:	50000000 	unimp
     4a1:	00000001 	0x1
     4a5:	05000000 	unimp
     4a9:	00843100 	0x3100
     4ad:	00009f24 	0x9f24
	...

00000000000004bf <$LLST8>:
     4bf:	000000d8 	0xd8
     4c3:	00000000 	unimp
     4c7:	000000ec 	0xec
     4cb:	00000000 	unimp
     4cf:	00730002 	0x2
     4d3:	000000ec 	0xec
     4d7:	00000000 	unimp
     4db:	00000117 	0x117
     4df:	00000000 	unimp
     4e3:	2c520001 	0x1
     4e7:	00000001 	0x1
     4eb:	2f000000 	unimp
     4ef:	00000001 	0x1
     4f3:	01000000 	unimp
     4f7:	01345200 	0x5200
     4fb:	00000000 	unimp
     4ff:	014b0000 	unimp
     503:	00000000 	unimp
     507:	00010000 	unimp
     50b:	00000052 	0x52
	...

000000000000051c <$LLST9>:
     51c:	000000f0 	0xf0
     520:	00000000 	unimp
     524:	00000134 	0x134
     528:	00000000 	unimp
     52c:	3c680001 	0x1
     530:	00000001 	0x1
     534:	50000000 	unimp
     538:	00000001 	0x1
     53c:	01000000 	unimp
     540:	00006800 	0x6800
	...

0000000000000552 <$LLST0>:
	...
     55a:	00000004 	0x4
     55e:	00000000 	unimp
     562:	008e0002 	0x2
     566:	00000004 	0x4
     56a:	00000000 	unimp
     56e:	0000006c 	0x6c
     572:	00000000 	unimp
     576:	208e0002 	0x2
	...

000000000000058a <$LLST1>:
	...
     592:	00000023 	sb	zero,0(zero)
     596:	00000000 	unimp
     59a:	23540001 	0x1
     59e:	00000000 	unimp
     5a2:	58000000 	unimp
     5a6:	00000000 	unimp
     5aa:	01000000 	unimp
     5ae:	00006600 	0x6600
	...

00000000000005c0 <$LLST2>:
	...
     5c8:	00000023 	sb	zero,0(zero)
     5cc:	00000000 	unimp
     5d0:	00550001 	0x1
	...

00000000000005e3 <$LLST3>:
	...
     5eb:	00000023 	sb	zero,0(zero)
     5ef:	00000000 	unimp
     5f3:	00560001 	0x1
	...

0000000000000606 <$LLST4>:
     606:	00000024 	0x24
     60a:	00000000 	unimp
     60e:	00000044 	0x44
     612:	00000000 	unimp
     616:	00840009 	0x9
     61a:	08242008 	0x2008
     61e:	449f2620 	0x2620
     622:	00000000 	unimp
     626:	47000000 	unimp
     62a:	00000000 	unimp
     62e:	09000000 	unimp
     632:	08007700 	0x7700
     636:	20082420 	0x2420
     63a:	00009f26 	0x9f26
	...

000000000000064c <$LLST5>:
     64c:	00000024 	0x24
     650:	00000000 	unimp
     654:	00000040 	0x40
     658:	00000000 	unimp
     65c:	00850009 	0x9
     660:	08242008 	0x2008
     664:	409f2620 	0x2620
     668:	00000000 	unimp
     66c:	47000000 	unimp
     670:	00000000 	unimp
     674:	09000000 	unimp
     678:	08007600 	0x7600
     67c:	20082420 	0x2420
     680:	00009f26 	0x9f26
	...

0000000000000692 <$LLST6>:
     692:	00000024 	0x24
     696:	00000000 	unimp
     69a:	00000038 	0x38
     69e:	00000000 	unimp
     6a2:	01720003 	lb	zero,-896(a1)
     6a6:	0000389f 	0x389f
     6aa:	00000000 	unimp
     6ae:	00004700 	0x4700
     6b2:	00000000 	unimp
     6b6:	55000100 	0x100
	...

00000000000006ca <$LLST7>:
     6ca:	00000024 	0x24
     6ce:	00000000 	unimp
     6d2:	00000058 	0x58
     6d6:	00000000 	unimp
     6da:	00660001 	0x1
	...

00000000000006ed <$LLST8>:
     6ed:	00000044 	0x44
     6f1:	00000000 	unimp
     6f5:	00000047 	fmsub.s	ft0,ft0,ft0,ft0,rne
     6f9:	00000000 	unimp
     6fd:	93520006 	0x6
     701:	08935308 	0x5308
     705:	00000047 	fmsub.s	ft0,ft0,ft0,ft0,rne
     709:	00000000 	unimp
     70d:	00000050 	0x50
     711:	00000000 	unimp
     715:	93640006 	0x6
     719:	08936508 	0x6508
     71d:	00000050 	0x50
     721:	00000000 	unimp
     725:	00000060 	0x60
     729:	00000000 	unimp
     72d:	08930005 	0x5
     731:	00089365 	0x9365
	...

0000000000000744 <$LLST13>:
     744:	0000003c 	0x3c
     748:	00000000 	unimp
     74c:	00000047 	fmsub.s	ft0,ft0,ft0,ft0,rne
     750:	00000000 	unimp
     754:	00520001 	0x1
	...

0000000000000767 <$LLST14>:
     767:	0000003c 	0x3c
     76b:	00000000 	unimp
     76f:	00000047 	fmsub.s	ft0,ft0,ft0,ft0,rne
     773:	00000000 	unimp
     777:	00530001 	0x1
	...

000000000000078a <$LLST15>:
     78a:	0000003c 	0x3c
     78e:	00000000 	unimp
     792:	00000047 	fmsub.s	ft0,ft0,ft0,ft0,rne
     796:	00000000 	unimp
     79a:	00540001 	0x1
	...

00000000000007ad <$LLST16>:
     7ad:	0000003c 	0x3c
     7b1:	00000000 	unimp
     7b5:	00000047 	fmsub.s	ft0,ft0,ft0,ft0,rne
     7b9:	00000000 	unimp
     7bd:	00550001 	0x1
	...

00000000000007d0 <$LLST17>:
     7d0:	0000003c 	0x3c
     7d4:	00000000 	unimp
     7d8:	00000047 	fmsub.s	ft0,ft0,ft0,ft0,rne
     7dc:	00000000 	unimp
     7e0:	00560001 	0x1
	...

00000000000007f3 <$LLST18>:
     7f3:	0000003c 	0x3c
     7f7:	00000000 	unimp
     7fb:	00000047 	fmsub.s	ft0,ft0,ft0,ft0,rne
     7ff:	00000000 	unimp
     803:	00570001 	0x1
	...

0000000000000816 <$LLST20>:
     816:	0000006c 	0x6c
     81a:	00000000 	unimp
     81e:	00000070 	0x70
     822:	00000000 	unimp
     826:	008e0002 	0x2
     82a:	00000070 	0x70
     82e:	00000000 	unimp
     832:	000000b0 	0xb0
     836:	00000000 	unimp
     83a:	208e0002 	0x2
	...

000000000000084e <$LLST21>:
     84e:	0000006c 	0x6c
     852:	00000000 	unimp
     856:	00000093 	sll	zero,zero,0x0
     85a:	00000000 	unimp
     85e:	00540001 	0x1
	...

0000000000000871 <$LLST22>:
     871:	0000006c 	0x6c
     875:	00000000 	unimp
     879:	00000093 	sll	zero,zero,0x0
     87d:	00000000 	unimp
     881:	00550001 	0x1
	...

0000000000000894 <$LLST23>:
     894:	0000006c 	0x6c
     898:	00000000 	unimp
     89c:	00000093 	sll	zero,zero,0x0
     8a0:	00000000 	unimp
     8a4:	00560001 	0x1
	...

00000000000008b7 <$LLST24>:
     8b7:	00000090 	0x90
     8bb:	00000000 	unimp
     8bf:	00000093 	sll	zero,zero,0x0
     8c3:	00000000 	unimp
     8c7:	93520006 	0x6
     8cb:	08935308 	0x5308
     8cf:	00000093 	sll	zero,zero,0x0
     8d3:	00000000 	unimp
     8d7:	000000a4 	0xa4
     8db:	00000000 	unimp
     8df:	93640006 	0x6
     8e3:	08936508 	0x6508
     8e7:	000000a4 	0xa4
     8eb:	00000000 	unimp
     8ef:	000000a8 	0xa8
     8f3:	00000000 	unimp
     8f7:	93640005 	0x5
     8fb:	a8089308 	0x9308
     8ff:	00000000 	unimp
     903:	b0000000 	unimp
     907:	00000000 	unimp
     90b:	05000000 	unimp
     90f:	08935200 	0x5200
     913:	00000893 	sll	zero,zero,0x2
	...

0000000000000925 <$LLST25>:
     925:	00000088 	0x88
     929:	00000000 	unimp
     92d:	00000093 	sll	zero,zero,0x0
     931:	00000000 	unimp
     935:	00520001 	0x1
	...

0000000000000948 <$LLST26>:
     948:	00000088 	0x88
     94c:	00000000 	unimp
     950:	00000093 	sll	zero,zero,0x0
     954:	00000000 	unimp
     958:	00530001 	0x1
	...

000000000000096b <$LLST27>:
     96b:	00000088 	0x88
     96f:	00000000 	unimp
     973:	00000093 	sll	zero,zero,0x0
     977:	00000000 	unimp
     97b:	00540001 	0x1
	...

000000000000098e <$LLST28>:
     98e:	00000088 	0x88
     992:	00000000 	unimp
     996:	00000093 	sll	zero,zero,0x0
     99a:	00000000 	unimp
     99e:	00550001 	0x1
	...

00000000000009b1 <$LLST29>:
     9b1:	00000088 	0x88
     9b5:	00000000 	unimp
     9b9:	00000093 	sll	zero,zero,0x0
     9bd:	00000000 	unimp
     9c1:	00560001 	0x1
	...

00000000000009d4 <$LLST30>:
     9d4:	00000088 	0x88
     9d8:	00000000 	unimp
     9dc:	00000093 	sll	zero,zero,0x0
     9e0:	00000000 	unimp
     9e4:	00570001 	0x1
	...

00000000000009f7 <$LLST31>:
     9f7:	0000008c 	0x8c
     9fb:	00000000 	unimp
     9ff:	00000090 	0x90
     a03:	00000000 	unimp
     a07:	93520005 	0x5
     a0b:	90089308 	0x9308
     a0f:	00000000 	unimp
     a13:	93000000 	unimp
     a17:	00000000 	unimp
     a1b:	06000000 	unimp
     a1f:	08935200 	0x5200
     a23:	93089353 	0x93089353
     a27:	00000000 	unimp
     a2b:	a4000000 	unimp
     a2f:	00000000 	unimp
     a33:	06000000 	unimp
     a37:	08936400 	0x6400
     a3b:	a4089365 	0x9365
     a3f:	00000000 	unimp
     a43:	a8000000 	unimp
     a47:	00000000 	unimp
     a4b:	05000000 	unimp
     a4f:	08936400 	0x6400
     a53:	00a80893 	0xa80893
     a57:	00000000 	unimp
     a5b:	00b00000 	unimp
     a5f:	00000000 	unimp
     a63:	00050000 	unimp
     a67:	93089352 	0x9352
     a6b:	00000008 	0x8
	...

0000000000000a7c <$LLST32>:
     a7c:	000000b0 	0xb0
     a80:	00000000 	unimp
     a84:	000000b4 	0xb4
     a88:	00000000 	unimp
     a8c:	008e0002 	0x2
     a90:	000000b4 	0xb4
     a94:	00000000 	unimp
     a98:	000000f8 	0xf8
     a9c:	00000000 	unimp
     aa0:	208e0002 	0x2
	...

0000000000000ab4 <$LLST33>:
     ab4:	000000b0 	0xb0
     ab8:	00000000 	unimp
     abc:	000000d7 	0xd7
     ac0:	00000000 	unimp
     ac4:	00540001 	0x1
	...

0000000000000ad7 <$LLST34>:
     ad7:	000000b0 	0xb0
     adb:	00000000 	unimp
     adf:	000000d7 	0xd7
     ae3:	00000000 	unimp
     ae7:	00550001 	0x1
	...

0000000000000afa <$LLST35>:
     afa:	000000b0 	0xb0
     afe:	00000000 	unimp
     b02:	000000d7 	0xd7
     b06:	00000000 	unimp
     b0a:	00560001 	0x1
	...

0000000000000b1d <$LLST36>:
     b1d:	000000d4 	0xd4
     b21:	00000000 	unimp
     b25:	000000d7 	0xd7
     b29:	00000000 	unimp
     b2d:	93520006 	0x6
     b31:	08935308 	0x5308
     b35:	000000d7 	0xd7
     b39:	00000000 	unimp
     b3d:	000000e0 	0xe0
     b41:	00000000 	unimp
     b45:	93640006 	0x6
     b49:	08936508 	0x6508
     b4d:	000000e0 	0xe0
     b51:	00000000 	unimp
     b55:	000000ec 	0xec
     b59:	00000000 	unimp
     b5d:	08930005 	0x5
     b61:	00089365 	0x9365
	...

0000000000000b74 <$LLST37>:
     b74:	000000cc 	0xcc
     b78:	00000000 	unimp
     b7c:	000000d7 	0xd7
     b80:	00000000 	unimp
     b84:	00520001 	0x1
	...

0000000000000b97 <$LLST38>:
     b97:	000000cc 	0xcc
     b9b:	00000000 	unimp
     b9f:	000000d7 	0xd7
     ba3:	00000000 	unimp
     ba7:	00530001 	0x1
	...

0000000000000bba <$LLST39>:
     bba:	000000cc 	0xcc
     bbe:	00000000 	unimp
     bc2:	000000d7 	0xd7
     bc6:	00000000 	unimp
     bca:	00540001 	0x1
	...

0000000000000bdd <$LLST40>:
     bdd:	000000cc 	0xcc
     be1:	00000000 	unimp
     be5:	000000d7 	0xd7
     be9:	00000000 	unimp
     bed:	00550001 	0x1
	...

0000000000000c00 <$LLST41>:
     c00:	000000cc 	0xcc
     c04:	00000000 	unimp
     c08:	000000d7 	0xd7
     c0c:	00000000 	unimp
     c10:	00560001 	0x1
	...

0000000000000c23 <$LLST42>:
     c23:	000000cc 	0xcc
     c27:	00000000 	unimp
     c2b:	000000d7 	0xd7
     c2f:	00000000 	unimp
     c33:	00570001 	0x1
	...

0000000000000c46 <$LLST44>:
     c46:	000000f8 	0xf8
     c4a:	00000000 	unimp
     c4e:	000000fc 	0xfc
     c52:	00000000 	unimp
     c56:	008e0002 	0x2
     c5a:	000000fc 	0xfc
     c5e:	00000000 	unimp
     c62:	00000140 	0x140
     c66:	00000000 	unimp
     c6a:	208e0002 	0x2
	...

0000000000000c7e <$LLST45>:
     c7e:	000000f8 	0xf8
     c82:	00000000 	unimp
     c86:	0000011f 	0x11f
     c8a:	00000000 	unimp
     c8e:	00540001 	0x1
	...

0000000000000ca1 <$LLST46>:
     ca1:	000000f8 	0xf8
     ca5:	00000000 	unimp
     ca9:	0000011f 	0x11f
     cad:	00000000 	unimp
     cb1:	00550001 	0x1
	...

0000000000000cc4 <$LLST47>:
     cc4:	000000f8 	0xf8
     cc8:	00000000 	unimp
     ccc:	0000011f 	0x11f
     cd0:	00000000 	unimp
     cd4:	00560001 	0x1
	...

0000000000000ce7 <$LLST48>:
     ce7:	0000011c 	0x11c
     ceb:	00000000 	unimp
     cef:	0000011f 	0x11f
     cf3:	00000000 	unimp
     cf7:	93520006 	0x6
     cfb:	08935308 	0x5308
     cff:	0000011f 	0x11f
     d03:	00000000 	unimp
     d07:	00000128 	0x128
     d0b:	00000000 	unimp
     d0f:	93640006 	0x6
     d13:	08936508 	0x6508
     d17:	00000128 	0x128
     d1b:	00000000 	unimp
     d1f:	00000134 	0x134
     d23:	00000000 	unimp
     d27:	08930005 	0x5
     d2b:	00089365 	0x9365
	...

0000000000000d3e <$LLST49>:
     d3e:	00000114 	0x114
     d42:	00000000 	unimp
     d46:	0000011f 	0x11f
     d4a:	00000000 	unimp
     d4e:	00520001 	0x1
	...

0000000000000d61 <$LLST50>:
     d61:	00000114 	0x114
     d65:	00000000 	unimp
     d69:	0000011f 	0x11f
     d6d:	00000000 	unimp
     d71:	00530001 	0x1
	...

0000000000000d84 <$LLST51>:
     d84:	00000114 	0x114
     d88:	00000000 	unimp
     d8c:	0000011f 	0x11f
     d90:	00000000 	unimp
     d94:	00540001 	0x1
	...

0000000000000da7 <$LLST52>:
     da7:	00000114 	0x114
     dab:	00000000 	unimp
     daf:	0000011f 	0x11f
     db3:	00000000 	unimp
     db7:	00550001 	0x1
	...

0000000000000dca <$LLST53>:
     dca:	00000114 	0x114
     dce:	00000000 	unimp
     dd2:	0000011f 	0x11f
     dd6:	00000000 	unimp
     dda:	00560001 	0x1
	...

0000000000000ded <$LLST54>:
     ded:	00000114 	0x114
     df1:	00000000 	unimp
     df5:	0000011f 	0x11f
     df9:	00000000 	unimp
     dfd:	00570001 	0x1
	...

0000000000000e10 <$LLST56>:
     e10:	00000140 	0x140
     e14:	00000000 	unimp
     e18:	00000144 	0x144
     e1c:	00000000 	unimp
     e20:	008e0002 	0x2
     e24:	00000144 	0x144
     e28:	00000000 	unimp
     e2c:	0000018c 	0x18c
     e30:	00000000 	unimp
     e34:	208e0002 	0x2
	...

0000000000000e48 <$LLST57>:
     e48:	00000140 	0x140
     e4c:	00000000 	unimp
     e50:	0000016b 	jr	zero
     e54:	00000000 	unimp
     e58:	00540001 	0x1
	...

0000000000000e6b <$LLST58>:
     e6b:	00000140 	0x140
     e6f:	00000000 	unimp
     e73:	0000016b 	jr	zero
     e77:	00000000 	unimp
     e7b:	00550001 	0x1
	...

0000000000000e8e <$LLST59>:
     e8e:	00000168 	0x168
     e92:	00000000 	unimp
     e96:	0000016b 	jr	zero
     e9a:	00000000 	unimp
     e9e:	93520006 	0x6
     ea2:	08935308 	0x5308
     ea6:	0000016b 	jr	zero
     eaa:	00000000 	unimp
     eae:	00000174 	0x174
     eb2:	00000000 	unimp
     eb6:	93640006 	0x6
     eba:	08936508 	0x6508
     ebe:	00000174 	0x174
     ec2:	00000000 	unimp
     ec6:	00000180 	0x180
     eca:	00000000 	unimp
     ece:	08930005 	0x5
     ed2:	00089365 	0x9365
	...

0000000000000ee5 <$LLST60>:
     ee5:	00000160 	0x160
     ee9:	00000000 	unimp
     eed:	0000016b 	jr	zero
     ef1:	00000000 	unimp
     ef5:	00520001 	0x1
	...

0000000000000f08 <$LLST61>:
     f08:	00000160 	0x160
     f0c:	00000000 	unimp
     f10:	0000016b 	jr	zero
     f14:	00000000 	unimp
     f18:	00530001 	0x1
	...

0000000000000f2b <$LLST62>:
     f2b:	00000160 	0x160
     f2f:	00000000 	unimp
     f33:	0000016b 	jr	zero
     f37:	00000000 	unimp
     f3b:	00540001 	0x1
	...

0000000000000f4e <$LLST63>:
     f4e:	00000160 	0x160
     f52:	00000000 	unimp
     f56:	0000016b 	jr	zero
     f5a:	00000000 	unimp
     f5e:	00550001 	0x1
	...

0000000000000f71 <$LLST64>:
     f71:	00000160 	0x160
     f75:	00000000 	unimp
     f79:	0000016b 	jr	zero
     f7d:	00000000 	unimp
     f81:	00560001 	0x1
	...

0000000000000f94 <$LLST65>:
     f94:	00000160 	0x160
     f98:	00000000 	unimp
     f9c:	0000016b 	jr	zero
     fa0:	00000000 	unimp
     fa4:	00570001 	0x1
	...

0000000000000fb7 <$LLST67>:
     fb7:	0000018c 	0x18c
     fbb:	00000000 	unimp
     fbf:	00000190 	0x190
     fc3:	00000000 	unimp
     fc7:	008e0002 	0x2
     fcb:	00000190 	0x190
     fcf:	00000000 	unimp
     fd3:	000001ec 	0x1ec
     fd7:	00000000 	unimp
     fdb:	208e0002 	0x2
	...

0000000000000fef <$LLST68>:
     fef:	0000018c 	0x18c
     ff3:	00000000 	unimp
     ff7:	000001a7 	fsd	ft0,0(zero)
     ffb:	00000000 	unimp
     fff:	a7540001 	0x1
    1003:	00000001 	0x1
    1007:	c4000000 	unimp
    100b:	00000001 	0x1
    100f:	01000000 	unimp
    1013:	01c46500 	0x6500
    1017:	00000000 	unimp
    101b:	01cb0000 	unimp
    101f:	00000000 	unimp
    1023:	00010000 	unimp
    1027:	00000054 	0x54
	...

0000000000001038 <$LLST69>:
    1038:	0000018c 	0x18c
    103c:	00000000 	unimp
    1040:	000001a7 	fsd	ft0,0(zero)
    1044:	00000000 	unimp
    1048:	a7550001 	0x1
    104c:	00000001 	0x1
    1050:	c8000000 	unimp
    1054:	00000001 	0x1
    1058:	01000000 	unimp
    105c:	01c86400 	0x6400
    1060:	00000000 	unimp
    1064:	01cb0000 	unimp
    1068:	00000000 	unimp
    106c:	00010000 	unimp
    1070:	00000056 	0x56
	...

0000000000001081 <$LLST70>:
    1081:	000001a8 	0x1a8
    1085:	00000000 	unimp
    1089:	000001c8 	0x1c8
    108d:	00000000 	unimp
    1091:	c8640001 	0x1
    1095:	00000001 	0x1
    1099:	cb000000 	unimp
    109d:	00000001 	0x1
    10a1:	01000000 	unimp
    10a5:	00005600 	0x5600
	...

00000000000010b7 <$LLST71>:
    10b7:	000001a8 	0x1a8
    10bb:	00000000 	unimp
    10bf:	000001bc 	0x1bc
    10c3:	00000000 	unimp
    10c7:	01720003 	lb	zero,-896(a1)
    10cb:	0001bc9f 	0x1bc9f
    10cf:	00000000 	unimp
    10d3:	0001cb00 	0xcb00
    10d7:	00000000 	unimp
    10db:	55000100 	0x100
	...

00000000000010ef <$LLST72>:
    10ef:	000001a8 	0x1a8
    10f3:	00000000 	unimp
    10f7:	000001c4 	0x1c4
    10fb:	00000000 	unimp
    10ff:	c4650001 	0x1
    1103:	00000001 	0x1
    1107:	cb000000 	unimp
    110b:	00000001 	0x1
    110f:	01000000 	unimp
    1113:	00005400 	0x5400
	...

0000000000001125 <$LLST73>:
    1125:	000001c8 	0x1c8
    1129:	00000000 	unimp
    112d:	000001cb 	0x1cb
    1131:	00000000 	unimp
    1135:	93520006 	0x6
    1139:	08935308 	0x5308
    113d:	000001cb 	0x1cb
    1141:	00000000 	unimp
    1145:	000001d4 	0x1d4
    1149:	00000000 	unimp
    114d:	93640006 	0x6
    1151:	08936508 	0x6508
    1155:	000001d4 	0x1d4
    1159:	00000000 	unimp
    115d:	000001e0 	0x1e0
    1161:	00000000 	unimp
    1165:	08930005 	0x5
    1169:	00089365 	0x9365
	...

000000000000117c <$LLST77>:
    117c:	000001c0 	0x1c0
    1180:	00000000 	unimp
    1184:	000001cb 	0x1cb
    1188:	00000000 	unimp
    118c:	00520001 	0x1
	...

000000000000119f <$LLST78>:
    119f:	000001c0 	0x1c0
    11a3:	00000000 	unimp
    11a7:	000001cb 	0x1cb
    11ab:	00000000 	unimp
    11af:	00530001 	0x1
	...

00000000000011c2 <$LLST79>:
    11c2:	000001c0 	0x1c0
    11c6:	00000000 	unimp
    11ca:	000001cb 	0x1cb
    11ce:	00000000 	unimp
    11d2:	00540001 	0x1
	...

00000000000011e5 <$LLST80>:
    11e5:	000001c0 	0x1c0
    11e9:	00000000 	unimp
    11ed:	000001cb 	0x1cb
    11f1:	00000000 	unimp
    11f5:	00550001 	0x1
	...

0000000000001208 <$LLST81>:
    1208:	000001c0 	0x1c0
    120c:	00000000 	unimp
    1210:	000001cb 	0x1cb
    1214:	00000000 	unimp
    1218:	00560001 	0x1
	...

000000000000122b <$LLST82>:
    122b:	000001c0 	0x1c0
    122f:	00000000 	unimp
    1233:	000001cb 	0x1cb
    1237:	00000000 	unimp
    123b:	00570001 	0x1
	...

000000000000124e <$LLST84>:
    124e:	000001ec 	0x1ec
    1252:	00000000 	unimp
    1256:	000001f0 	0x1f0
    125a:	00000000 	unimp
    125e:	008e0002 	0x2
    1262:	000001f0 	0x1f0
    1266:	00000000 	unimp
    126a:	0000024c 	0x24c
    126e:	00000000 	unimp
    1272:	208e0002 	0x2
	...

0000000000001286 <$LLST85>:
    1286:	000001ec 	0x1ec
    128a:	00000000 	unimp
    128e:	00000207 	0x207
    1292:	00000000 	unimp
    1296:	07540001 	0x1
    129a:	00000002 	0x2
    129e:	24000000 	unimp
    12a2:	00000002 	0x2
    12a6:	01000000 	unimp
    12aa:	02246500 	0x6500
    12ae:	00000000 	unimp
    12b2:	022b0000 	unimp
    12b6:	00000000 	unimp
    12ba:	00010000 	unimp
    12be:	00000054 	0x54
	...

00000000000012cf <$LLST86>:
    12cf:	000001ec 	0x1ec
    12d3:	00000000 	unimp
    12d7:	00000207 	0x207
    12db:	00000000 	unimp
    12df:	07550001 	0x1
    12e3:	00000002 	0x2
    12e7:	28000000 	unimp
    12eb:	00000002 	0x2
    12ef:	01000000 	unimp
    12f3:	02286400 	0x6400
    12f7:	00000000 	unimp
    12fb:	022b0000 	unimp
    12ff:	00000000 	unimp
    1303:	00010000 	unimp
    1307:	00000056 	0x56
	...

0000000000001318 <$LLST87>:
    1318:	00000208 	0x208
    131c:	00000000 	unimp
    1320:	00000228 	0x228
    1324:	00000000 	unimp
    1328:	28640001 	0x1
    132c:	00000002 	0x2
    1330:	2b000000 	unimp
    1334:	00000002 	0x2
    1338:	01000000 	unimp
    133c:	00005600 	0x5600
	...

000000000000134e <$LLST88>:
    134e:	00000208 	0x208
    1352:	00000000 	unimp
    1356:	0000021c 	0x21c
    135a:	00000000 	unimp
    135e:	01720003 	lb	zero,-896(a1)
    1362:	00021c9f 	0x21c9f
    1366:	00000000 	unimp
    136a:	00022b00 	0x2b00
    136e:	00000000 	unimp
    1372:	55000100 	0x100
	...

0000000000001386 <$LLST89>:
    1386:	00000208 	0x208
    138a:	00000000 	unimp
    138e:	00000224 	0x224
    1392:	00000000 	unimp
    1396:	24650001 	0x1
    139a:	00000002 	0x2
    139e:	2b000000 	unimp
    13a2:	00000002 	0x2
    13a6:	01000000 	unimp
    13aa:	00005400 	0x5400
	...

00000000000013bc <$LLST90>:
    13bc:	00000228 	0x228
    13c0:	00000000 	unimp
    13c4:	0000022b 	0x22b
    13c8:	00000000 	unimp
    13cc:	93520006 	0x6
    13d0:	08935308 	0x5308
    13d4:	0000022b 	0x22b
    13d8:	00000000 	unimp
    13dc:	00000234 	0x234
    13e0:	00000000 	unimp
    13e4:	93640006 	0x6
    13e8:	08936508 	0x6508
    13ec:	00000234 	0x234
    13f0:	00000000 	unimp
    13f4:	00000240 	0x240
    13f8:	00000000 	unimp
    13fc:	08930005 	0x5
    1400:	00089365 	0x9365
	...

0000000000001413 <$LLST94>:
    1413:	00000220 	0x220
    1417:	00000000 	unimp
    141b:	0000022b 	0x22b
    141f:	00000000 	unimp
    1423:	00520001 	0x1
	...

0000000000001436 <$LLST95>:
    1436:	00000220 	0x220
    143a:	00000000 	unimp
    143e:	0000022b 	0x22b
    1442:	00000000 	unimp
    1446:	00530001 	0x1
	...

0000000000001459 <$LLST96>:
    1459:	00000220 	0x220
    145d:	00000000 	unimp
    1461:	0000022b 	0x22b
    1465:	00000000 	unimp
    1469:	00540001 	0x1
	...

000000000000147c <$LLST97>:
    147c:	00000220 	0x220
    1480:	00000000 	unimp
    1484:	0000022b 	0x22b
    1488:	00000000 	unimp
    148c:	00550001 	0x1
	...

000000000000149f <$LLST98>:
    149f:	00000220 	0x220
    14a3:	00000000 	unimp
    14a7:	0000022b 	0x22b
    14ab:	00000000 	unimp
    14af:	00560001 	0x1
	...

00000000000014c2 <$LLST99>:
    14c2:	00000220 	0x220
    14c6:	00000000 	unimp
    14ca:	0000022b 	0x22b
    14ce:	00000000 	unimp
    14d2:	00570001 	0x1
	...

00000000000014e5 <$LLST101>:
    14e5:	0000024c 	0x24c
    14e9:	00000000 	unimp
    14ed:	00000250 	0x250
    14f1:	00000000 	unimp
    14f5:	008e0002 	0x2
    14f9:	00000250 	0x250
    14fd:	00000000 	unimp
    1501:	0000029c 	0x29c
    1505:	00000000 	unimp
    1509:	208e0002 	0x2
	...

000000000000151d <$LLST102>:
    151d:	0000024c 	0x24c
    1521:	00000000 	unimp
    1525:	0000027b 	eret
    1529:	00000000 	unimp
    152d:	00540001 	0x1
	...

0000000000001540 <$LLST103>:
    1540:	00000278 	0x278
    1544:	00000000 	unimp
    1548:	0000027b 	eret
    154c:	00000000 	unimp
    1550:	93520006 	0x6
    1554:	08935308 	0x5308
    1558:	0000027b 	eret
    155c:	00000000 	unimp
    1560:	00000284 	0x284
    1564:	00000000 	unimp
    1568:	93640006 	0x6
    156c:	08936508 	0x6508
    1570:	00000284 	0x284
    1574:	00000000 	unimp
    1578:	00000290 	0x290
    157c:	00000000 	unimp
    1580:	08930005 	0x5
    1584:	00089365 	0x9365
	...

0000000000001597 <$LLST104>:
    1597:	00000270 	0x270
    159b:	00000000 	unimp
    159f:	0000027b 	eret
    15a3:	00000000 	unimp
    15a7:	00520001 	0x1
	...

00000000000015ba <$LLST105>:
    15ba:	00000270 	0x270
    15be:	00000000 	unimp
    15c2:	0000027b 	eret
    15c6:	00000000 	unimp
    15ca:	00530001 	0x1
	...

00000000000015dd <$LLST106>:
    15dd:	00000270 	0x270
    15e1:	00000000 	unimp
    15e5:	0000027b 	eret
    15e9:	00000000 	unimp
    15ed:	00540001 	0x1
	...

0000000000001600 <$LLST107>:
    1600:	00000270 	0x270
    1604:	00000000 	unimp
    1608:	0000027b 	eret
    160c:	00000000 	unimp
    1610:	00550001 	0x1
	...

0000000000001623 <$LLST108>:
    1623:	00000270 	0x270
    1627:	00000000 	unimp
    162b:	0000027b 	eret
    162f:	00000000 	unimp
    1633:	00560001 	0x1
	...

0000000000001646 <$LLST109>:
    1646:	00000270 	0x270
    164a:	00000000 	unimp
    164e:	0000027b 	eret
    1652:	00000000 	unimp
    1656:	00570001 	0x1
	...

0000000000001669 <$LLST111>:
    1669:	0000029c 	0x29c
    166d:	00000000 	unimp
    1671:	000002a0 	0x2a0
    1675:	00000000 	unimp
    1679:	008e0002 	0x2
    167d:	000002a0 	0x2a0
    1681:	00000000 	unimp
    1685:	00000310 	0x310
    1689:	00000000 	unimp
    168d:	208e0002 	0x2
	...

00000000000016a1 <$LLST112>:
    16a1:	0000029c 	0x29c
    16a5:	00000000 	unimp
    16a9:	000002bb 	srlw	zero,zero,zero
    16ad:	00000000 	unimp
    16b1:	bb540001 	0x1
    16b5:	00000002 	0x2
    16b9:	fc000000 	unimp
    16bd:	00000002 	0x2
    16c1:	01000000 	unimp
    16c5:	00006600 	0x6600
	...

00000000000016d7 <$LLST113>:
    16d7:	0000029c 	0x29c
    16db:	00000000 	unimp
    16df:	000002bb 	srlw	zero,zero,zero
    16e3:	00000000 	unimp
    16e7:	bb550001 	0x1
    16eb:	00000002 	0x2
    16ef:	e8000000 	unimp
    16f3:	00000002 	0x2
    16f7:	01000000 	unimp
    16fb:	02e86400 	0x6400
    16ff:	00000000 	unimp
    1703:	02eb0000 	unimp
    1707:	00000000 	unimp
    170b:	00010000 	unimp
    170f:	00000056 	0x56
	...

0000000000001720 <$LLST114>:
    1720:	000002c8 	0x2c8
    1724:	00000000 	unimp
    1728:	000002dc 	0x2dc
    172c:	00000000 	unimp
    1730:	01720003 	lb	zero,-896(a1)
    1734:	0002dc9f 	0x2dc9f
    1738:	00000000 	unimp
    173c:	0002eb00 	0xeb00
    1740:	00000000 	unimp
    1744:	57000100 	0x100
	...

0000000000001758 <$LLST115>:
    1758:	000002c8 	0x2c8
    175c:	00000000 	unimp
    1760:	000002e8 	0x2e8
    1764:	00000000 	unimp
    1768:	e8640001 	0x1
    176c:	00000002 	0x2
    1770:	eb000000 	unimp
    1774:	00000002 	0x2
    1778:	01000000 	unimp
    177c:	00005600 	0x5600
	...

000000000000178e <$LLST116>:
    178e:	000002c8 	0x2c8
    1792:	00000000 	unimp
    1796:	000002e4 	0x2e4
    179a:	00000000 	unimp
    179e:	01850003 	lb	zero,320(a2)
    17a2:	0002e49f 	0x2e49f
    17a6:	00000000 	unimp
    17aa:	0002eb00 	0xeb00
    17ae:	00000000 	unimp
    17b2:	55000100 	0x100
	...

00000000000017c6 <$LLST117>:
    17c6:	000002c8 	0x2c8
    17ca:	00000000 	unimp
    17ce:	000002fc 	0x2fc
    17d2:	00000000 	unimp
    17d6:	00660001 	0x1
	...

00000000000017e9 <$LLST118>:
    17e9:	000002e8 	0x2e8
    17ed:	00000000 	unimp
    17f1:	000002eb 	0x2eb
    17f5:	00000000 	unimp
    17f9:	93520006 	0x6
    17fd:	08935308 	0x5308
    1801:	000002eb 	0x2eb
    1805:	00000000 	unimp
    1809:	000002f4 	0x2f4
    180d:	00000000 	unimp
    1811:	93640006 	0x6
    1815:	08936508 	0x6508
    1819:	000002f4 	0x2f4
    181d:	00000000 	unimp
    1821:	00000304 	0x304
    1825:	00000000 	unimp
    1829:	08930005 	0x5
    182d:	00089365 	0x9365
	...

0000000000001840 <$LLST123>:
    1840:	000002e0 	0x2e0
    1844:	00000000 	unimp
    1848:	000002eb 	0x2eb
    184c:	00000000 	unimp
    1850:	00520001 	0x1
	...

0000000000001863 <$LLST124>:
    1863:	000002e0 	0x2e0
    1867:	00000000 	unimp
    186b:	000002eb 	0x2eb
    186f:	00000000 	unimp
    1873:	00530001 	0x1
	...

0000000000001886 <$LLST125>:
    1886:	000002e0 	0x2e0
    188a:	00000000 	unimp
    188e:	000002eb 	0x2eb
    1892:	00000000 	unimp
    1896:	00540001 	0x1
	...

00000000000018a9 <$LLST126>:
    18a9:	000002e0 	0x2e0
    18ad:	00000000 	unimp
    18b1:	000002eb 	0x2eb
    18b5:	00000000 	unimp
    18b9:	00550001 	0x1
	...

00000000000018cc <$LLST127>:
    18cc:	000002e0 	0x2e0
    18d0:	00000000 	unimp
    18d4:	000002eb 	0x2eb
    18d8:	00000000 	unimp
    18dc:	00560001 	0x1
	...

00000000000018ef <$LLST128>:
    18ef:	000002e0 	0x2e0
    18f3:	00000000 	unimp
    18f7:	000002eb 	0x2eb
    18fb:	00000000 	unimp
    18ff:	00570001 	0x1
	...

0000000000001912 <$LLST130>:
    1912:	00000310 	0x310
    1916:	00000000 	unimp
    191a:	00000314 	0x314
    191e:	00000000 	unimp
    1922:	008e0002 	0x2
    1926:	00000314 	0x314
    192a:	00000000 	unimp
    192e:	0000036c 	0x36c
    1932:	00000000 	unimp
    1936:	208e0002 	0x2
	...

000000000000194a <$LLST131>:
    194a:	00000310 	0x310
    194e:	00000000 	unimp
    1952:	00000327 	0x327
    1956:	00000000 	unimp
    195a:	27540001 	0x1
    195e:	00000003 	lb	zero,0(zero)
    1962:	48000000 	unimp
    1966:	00000003 	lb	zero,0(zero)
    196a:	01000000 	unimp
    196e:	03486400 	0x6400
    1972:	00000000 	unimp
    1976:	034b0000 	unimp
    197a:	00000000 	unimp
    197e:	00010000 	unimp
    1982:	00000054 	0x54
	...

0000000000001993 <$LLST132>:
    1993:	00000328 	0x328
    1997:	00000000 	unimp
    199b:	0000033c 	0x33c
    199f:	00000000 	unimp
    19a3:	01720003 	lb	zero,-896(a1)
    19a7:	00033c9f 	0x33c9f
    19ab:	00000000 	unimp
    19af:	00034b00 	0x4b00
    19b3:	00000000 	unimp
    19b7:	55000100 	0x100
	...

00000000000019cb <$LLST133>:
    19cb:	00000328 	0x328
    19cf:	00000000 	unimp
    19d3:	00000348 	0x348
    19d7:	00000000 	unimp
    19db:	48640001 	0x1
    19df:	00000003 	lb	zero,0(zero)
    19e3:	4b000000 	unimp
    19e7:	00000003 	lb	zero,0(zero)
    19eb:	01000000 	unimp
    19ef:	00005400 	0x5400
	...

0000000000001a01 <$LLST134>:
    1a01:	00000348 	0x348
    1a05:	00000000 	unimp
    1a09:	0000034b 	0x34b
    1a0d:	00000000 	unimp
    1a11:	93520006 	0x6
    1a15:	08935308 	0x5308
    1a19:	0000034b 	0x34b
    1a1d:	00000000 	unimp
    1a21:	00000354 	0x354
    1a25:	00000000 	unimp
    1a29:	93640006 	0x6
    1a2d:	08936508 	0x6508
    1a31:	00000354 	0x354
    1a35:	00000000 	unimp
    1a39:	00000360 	0x360
    1a3d:	00000000 	unimp
    1a41:	08930005 	0x5
    1a45:	00089365 	0x9365
	...

0000000000001a58 <$LLST137>:
    1a58:	00000340 	0x340
    1a5c:	00000000 	unimp
    1a60:	0000034b 	0x34b
    1a64:	00000000 	unimp
    1a68:	00520001 	0x1
	...

0000000000001a7b <$LLST138>:
    1a7b:	00000340 	0x340
    1a7f:	00000000 	unimp
    1a83:	0000034b 	0x34b
    1a87:	00000000 	unimp
    1a8b:	00530001 	0x1
	...

0000000000001a9e <$LLST139>:
    1a9e:	00000340 	0x340
    1aa2:	00000000 	unimp
    1aa6:	0000034b 	0x34b
    1aaa:	00000000 	unimp
    1aae:	00540001 	0x1
	...

0000000000001ac1 <$LLST140>:
    1ac1:	00000340 	0x340
    1ac5:	00000000 	unimp
    1ac9:	0000034b 	0x34b
    1acd:	00000000 	unimp
    1ad1:	00550001 	0x1
	...

0000000000001ae4 <$LLST141>:
    1ae4:	00000340 	0x340
    1ae8:	00000000 	unimp
    1aec:	0000034b 	0x34b
    1af0:	00000000 	unimp
    1af4:	00560001 	0x1
	...

0000000000001b07 <$LLST142>:
    1b07:	00000340 	0x340
    1b0b:	00000000 	unimp
    1b0f:	0000034b 	0x34b
    1b13:	00000000 	unimp
    1b17:	00570001 	0x1
	...

0000000000001b2a <$LLST144>:
    1b2a:	0000036c 	0x36c
    1b2e:	00000000 	unimp
    1b32:	00000370 	0x370
    1b36:	00000000 	unimp
    1b3a:	008e0002 	0x2
    1b3e:	00000370 	0x370
    1b42:	00000000 	unimp
    1b46:	00000390 	0x390
    1b4a:	00000000 	unimp
    1b4e:	108e0002 	0x2
	...

0000000000001b62 <$LLST145>:
    1b62:	0000036c 	0x36c
    1b66:	00000000 	unimp
    1b6a:	00000377 	0x377
    1b6e:	00000000 	unimp
    1b72:	00540001 	0x1
	...

0000000000001b85 <$LLST146>:
    1b85:	0000036c 	0x36c
    1b89:	00000000 	unimp
    1b8d:	00000377 	0x377
    1b91:	00000000 	unimp
    1b95:	00550001 	0x1
	...

0000000000001ba8 <$LLST147>:
    1ba8:	0000036c 	0x36c
    1bac:	00000000 	unimp
    1bb0:	00000377 	0x377
    1bb4:	00000000 	unimp
    1bb8:	00560001 	0x1
	...

0000000000001bcb <$LLST148>:
    1bcb:	00000390 	0x390
    1bcf:	00000000 	unimp
    1bd3:	00000394 	0x394
    1bd7:	00000000 	unimp
    1bdb:	008e0002 	0x2
    1bdf:	00000394 	0x394
    1be3:	00000000 	unimp
    1be7:	000003b4 	0x3b4
    1beb:	00000000 	unimp
    1bef:	108e0002 	0x2
	...

0000000000001c03 <$LLST149>:
    1c03:	000003bc 	0x3bc
    1c07:	00000000 	unimp
    1c0b:	000003c0 	0x3c0
    1c0f:	00000000 	unimp
    1c13:	008e0002 	0x2
    1c17:	000003c0 	0x3c0
    1c1b:	00000000 	unimp
    1c1f:	000003e0 	0x3e0
    1c23:	00000000 	unimp
    1c27:	108e0002 	0x2
	...

0000000000001c3b <$LLST150>:
    1c3b:	000003bc 	0x3bc
    1c3f:	00000000 	unimp
    1c43:	000003c7 	0x3c7
    1c47:	00000000 	unimp
    1c4b:	00540001 	0x1
	...

0000000000001c5e <$LLST151>:
    1c5e:	000003bc 	0x3bc
    1c62:	00000000 	unimp
    1c66:	000003c7 	0x3c7
    1c6a:	00000000 	unimp
    1c6e:	00550001 	0x1
	...

0000000000001c81 <$LLST152>:
    1c81:	000003e0 	0x3e0
    1c85:	00000000 	unimp
    1c89:	000003e4 	0x3e4
    1c8d:	00000000 	unimp
    1c91:	008e0002 	0x2
    1c95:	000003e4 	0x3e4
    1c99:	00000000 	unimp
    1c9d:	00000404 	0x404
    1ca1:	00000000 	unimp
    1ca5:	108e0002 	0x2
	...

0000000000001cb9 <$LLST153>:
    1cb9:	000003e0 	0x3e0
    1cbd:	00000000 	unimp
    1cc1:	000003eb 	0x3eb
    1cc5:	00000000 	unimp
    1cc9:	00540001 	0x1
	...

0000000000001cdc <$LLST154>:
    1cdc:	00000404 	0x404
    1ce0:	00000000 	unimp
    1ce4:	00000408 	0x408
    1ce8:	00000000 	unimp
    1cec:	008e0002 	0x2
    1cf0:	00000408 	0x408
    1cf4:	00000000 	unimp
    1cf8:	0000043c 	0x43c
    1cfc:	00000000 	unimp
    1d00:	a08e0003 	lb	s0,896(v0)
    1d04:	00000001 	0x1
	...

0000000000001d15 <$LLST155>:
    1d15:	00000404 	0x404
    1d19:	00000000 	unimp
    1d1d:	00000413 	li	zero,1
    1d21:	00000000 	unimp
    1d25:	00540001 	0x1
	...

0000000000001d38 <$LLST156>:
    1d38:	00000414 	0x414
    1d3c:	00000000 	unimp
    1d40:	00000434 	0x434
    1d44:	00000000 	unimp
    1d48:	00520001 	0x1
	...

0000000000001d5b <$LLST157>:
    1d5b:	00000454 	0x454
    1d5f:	00000000 	unimp
    1d63:	00000470 	0x470
    1d67:	00000000 	unimp
    1d6b:	9f300008 	0x8
    1d6f:	9f300893 	0x9f300893
    1d73:	049c0893 	0x49c0893
    1d77:	00000000 	unimp
    1d7b:	04b40000 	unimp
    1d7f:	00000000 	unimp
    1d83:	00080000 	unimp
    1d87:	08939f30 	0x9f30
    1d8b:	08939f30 	0x9f30
	...

0000000000001d9f <$LLST158>:
    1d9f:	00000448 	0x448
    1da3:	00000000 	unimp
    1da7:	00000470 	0x470
    1dab:	00000000 	unimp
    1daf:	9f300002 	0x2
	...

0000000000001dc3 <$LLST159>:
    1dc3:	00000448 	0x448
    1dc7:	00000000 	unimp
    1dcb:	00000470 	0x470
    1dcf:	00000000 	unimp
    1dd3:	e003000a 	0xa
    1dd7:	00000114 	0x114
    1ddb:	9f000000 	unimp
	...

0000000000001def <$LLST160>:
    1def:	00000518 	0x518
    1df3:	00000000 	unimp
    1df7:	0000051c 	0x51c
    1dfb:	00000000 	unimp
    1dff:	008e0002 	0x2
    1e03:	0000051c 	0x51c
    1e07:	00000000 	unimp
    1e0b:	000005b8 	0x5b8
    1e0f:	00000000 	unimp
    1e13:	308e0002 	0x2
	...

0000000000001e27 <$LLST161>:
    1e27:	00000518 	0x518
    1e2b:	00000000 	unimp
    1e2f:	00000544 	0x544
    1e33:	00000000 	unimp
    1e37:	6c540001 	0x1
    1e3b:	00000005 	0x5
    1e3f:	78000000 	unimp
    1e43:	00000005 	0x5
    1e47:	01000000 	unimp
    1e4b:	05a85400 	0x5400
    1e4f:	00000000 	unimp
    1e53:	05b80000 	unimp
    1e57:	00000000 	unimp
    1e5b:	00010000 	unimp
    1e5f:	00000054 	0x54
	...

0000000000001e70 <$LLST162>:
    1e70:	00000570 	0x570
    1e74:	00000000 	unimp
    1e78:	000005a8 	0x5a8
    1e7c:	00000000 	unimp
    1e80:	9f300002 	0x2
	...

0000000000001e94 <$LLST165>:
    1e94:	00000570 	0x570
    1e98:	00000000 	unimp
    1e9c:	00000578 	0x578
    1ea0:	00000000 	unimp
    1ea4:	00720006 	0x6
    1ea8:	9f220074 	0x74
    1eac:	00000578 	0x578
    1eb0:	00000000 	unimp
    1eb4:	00000584 	0x584
    1eb8:	00000000 	unimp
    1ebc:	00720006 	0x6
    1ec0:	9f220084 	0x84
    1ec4:	00000584 	0x584
    1ec8:	00000000 	unimp
    1ecc:	00000593 	sltu	zero,zero,1
    1ed0:	00000000 	unimp
    1ed4:	00540001 	0x1
	...

0000000000001ee7 <$LLST166>:
    1ee7:	00000570 	0x570
    1eeb:	00000000 	unimp
    1eef:	000005a8 	0x5a8
    1ef3:	00000000 	unimp
    1ef7:	9f410002 	0x2
	...

0000000000001f0b <$LLST167>:
    1f0b:	00000590 	0x590
    1f0f:	00000000 	unimp
    1f13:	00000593 	sltu	zero,zero,1
    1f17:	00000000 	unimp
    1f1b:	93520006 	0x6
    1f1f:	08935308 	0x5308
    1f23:	00000593 	sltu	zero,zero,1
    1f27:	00000000 	unimp
    1f2b:	000005a8 	0x5a8
    1f2f:	00000000 	unimp
    1f33:	93660006 	0x6
    1f37:	08936708 	0x6708
	...

0000000000001f4b <$LLST173>:
    1f4b:	00000588 	0x588
    1f4f:	00000000 	unimp
    1f53:	00000593 	sltu	zero,zero,1
    1f57:	00000000 	unimp
    1f5b:	00520001 	0x1
	...

0000000000001f6e <$LLST174>:
    1f6e:	00000588 	0x588
    1f72:	00000000 	unimp
    1f76:	00000593 	sltu	zero,zero,1
    1f7a:	00000000 	unimp
    1f7e:	00530001 	0x1
	...

0000000000001f91 <$LLST175>:
    1f91:	00000588 	0x588
    1f95:	00000000 	unimp
    1f99:	00000593 	sltu	zero,zero,1
    1f9d:	00000000 	unimp
    1fa1:	00540001 	0x1
	...

0000000000001fb4 <$LLST176>:
    1fb4:	00000588 	0x588
    1fb8:	00000000 	unimp
    1fbc:	00000593 	sltu	zero,zero,1
    1fc0:	00000000 	unimp
    1fc4:	00550001 	0x1
	...

0000000000001fd7 <$LLST177>:
    1fd7:	00000588 	0x588
    1fdb:	00000000 	unimp
    1fdf:	00000593 	sltu	zero,zero,1
    1fe3:	00000000 	unimp
    1fe7:	00560001 	0x1
	...

0000000000001ffa <$LLST178>:
    1ffa:	00000588 	0x588
    1ffe:	00000000 	unimp
    2002:	00000593 	sltu	zero,zero,1
    2006:	00000000 	unimp
    200a:	00570001 	0x1
	...

000000000000201d <$LLST180>:
    201d:	000005b8 	0x5b8
    2021:	00000000 	unimp
    2025:	000005bc 	0x5bc
    2029:	00000000 	unimp
    202d:	008e0002 	0x2
    2031:	000005bc 	0x5bc
    2035:	00000000 	unimp
    2039:	000005e8 	0x5e8
    203d:	00000000 	unimp
    2041:	208e0002 	0x2
	...

0000000000002055 <$LLST181>:
    2055:	000005b8 	0x5b8
    2059:	00000000 	unimp
    205d:	000005db 	0x5db
    2061:	00000000 	unimp
    2065:	00540001 	0x1
	...

0000000000002078 <$LLST182>:
    2078:	000005d4 	0x5d4
    207c:	00000000 	unimp
    2080:	000005db 	0x5db
    2084:	00000000 	unimp
    2088:	08930005 	0x5
    208c:	00089353 	0x89353
	...

000000000000209f <$LLST183>:
    209f:	000005d4 	0x5d4
    20a3:	00000000 	unimp
    20a7:	000005db 	0x5db
    20ab:	00000000 	unimp
    20af:	00520001 	0x1
	...

00000000000020c2 <$LLST184>:
    20c2:	000005d4 	0x5d4
    20c6:	00000000 	unimp
    20ca:	000005db 	0x5db
    20ce:	00000000 	unimp
    20d2:	00540001 	0x1
	...

00000000000020e5 <$LLST185>:
    20e5:	000005d4 	0x5d4
    20e9:	00000000 	unimp
    20ed:	000005db 	0x5db
    20f1:	00000000 	unimp
    20f5:	00550001 	0x1
	...

0000000000002108 <$LLST186>:
    2108:	000005d4 	0x5d4
    210c:	00000000 	unimp
    2110:	000005db 	0x5db
    2114:	00000000 	unimp
    2118:	00560001 	0x1
	...

000000000000212b <$LLST187>:
    212b:	000005d4 	0x5d4
    212f:	00000000 	unimp
    2133:	000005db 	0x5db
    2137:	00000000 	unimp
    213b:	00570001 	0x1
	...

000000000000214e <$LLST0>:
	...
    2156:	0000000c 	0xc
    215a:	00000000 	unimp
    215e:	0c540001 	0x1
    2162:	00000000 	unimp
    2166:	3c000000 	unimp
    216a:	00000000 	unimp
    216e:	01000000 	unimp
    2172:	00585300 	0x5300
    2176:	00000000 	unimp
    217a:	00680000 	unimp
    217e:	00000000 	unimp
    2182:	00010000 	unimp
    2186:	00007053 	fsgnjx.s	ft0,ft0,ft0
    218a:	00000000 	unimp
    218e:	00008800 	0x8800
    2192:	00000000 	unimp
    2196:	53000100 	0x100
	...

00000000000021aa <$LLST1>:
    21aa:	0000000c 	0xc
    21ae:	00000000 	unimp
    21b2:	00000058 	0x58
    21b6:	00000000 	unimp
    21ba:	00530001 	0x1
	...

00000000000021cd <$LLST2>:
    21cd:	0000000c 	0xc
    21d1:	00000000 	unimp
    21d5:	00000014 	0x14
    21d9:	00000000 	unimp
    21dd:	7f0c0006 	0x6
    21e1:	9f7f7f7f 	0x9f7f7f7f
    21e5:	00000014 	0x14
    21e9:	00000000 	unimp
    21ed:	00000058 	0x58
    21f1:	00000000 	unimp
    21f5:	00520001 	0x1
	...

Disassembly of section .debug_aranges:

0000000000000000 <.debug_aranges>:
   0:	0000002c 	0x2c
   4:	00000002 	0x2
   8:	00080000 	unimp
   c:	00000000 	unimp
  10:	00010240 	0x240
  14:	00000000 	unimp
  18:	00000014 	0x14
	...
  30:	0000002c 	0x2c
  34:	00d10002 	0x2
  38:	00080000 	unimp
  3c:	00000000 	unimp
  40:	00010254 	0x254
  44:	00000000 	unimp
  48:	00000034 	0x34
	...
  60:	0000002c 	0x2c
  64:	13e90002 	0x2
  68:	00080000 	unimp
  6c:	00000000 	unimp
  70:	00010288 	0x288
  74:	00000000 	unimp
  78:	00000134 	0x134
	...
  90:	0000002c 	0x2c
  94:	1df50002 	0x2
  98:	00080000 	unimp
  9c:	00000000 	unimp
  a0:	000103bc 	0x3bc
  a4:	00000000 	unimp
  a8:	00000190 	0x190
	...
  c0:	0000002c 	0x2c
  c4:	280e0002 	0x2
  c8:	00080000 	unimp
  cc:	00000000 	unimp
  d0:	0001054c 	0x54c
  d4:	00000000 	unimp
  d8:	000005e8 	0x5e8
	...
  f0:	0000002c 	0x2c
  f4:	3d930002 	0x2
  f8:	00080000 	unimp
  fc:	00000000 	unimp
 100:	00010b34 	0xb34
 104:	00000000 	unimp
 108:	0000000c 	0xc
	...
 120:	0000002c 	0x2c
 124:	47140002 	0x2
 128:	00080000 	unimp
 12c:	00000000 	unimp
 130:	00010b40 	0xb40
 134:	00000000 	unimp
 138:	00000088 	0x88
	...

Disassembly of section .debug_line:

0000000000000000 <$Ldebug_line0>:
       0:	000000fa 	0xfa

0000000000000004 <$LSLT0>:
       4:	00ce0002 	0x2
	...

000000000000000a <$LASLTP0>:
       a:	f5f60101 	0x101
       e:	0101000a 	0xa
      12:	00000101 	0x101
      16:	2e2e0100 	0x100
      1a:	2f2e2e2f 	0x2f2e2e2f
      1e:	2e2f2e2e 	0x2e2e
      22:	2e2e2f2e 	0x2f2e
      26:	6975622f 	0x6975622f
      2a:	672d646c 	0x646c
      2e:	6e2d6363 	bltu	s4,s2,dde <$LLST53+0x14>
      32:	696c7765 	0x7765
      36:	72732d62 	0x2d62
      3a:	656e2f63 	bltu	s1,s3,c50 <$LLST44+0xa>
      3e:	62696c77 	0x62696c77
      42:	62696c2f 	0x62696c2f
      46:	74732f63 	bltu	t5,s5,edc <$LLST59+0x4e>
      4a:	62696c64 	0x6c64
      4e:	6f682f00 	0x2f00
      52:	6d2f656d 	0x656d
      56:	6d6d697a 	0x697a
      5a:	722f7265 	0x7265
      5e:	61657365 	0x7365
      62:	2f686372 	0x6372
      66:	646e6173 	0x646e6173
      6a:	2f786f62 	0x6f62
      6e:	63736972 	0x6972
      72:	63672d76 	0x2d76
      76:	73692d63 	0x73692d63
      7a:	6d697361 	0x7361
      7e:	7369722f 	0x7369722f
      82:	672d7663 	blt	s8,s2,d3c <$LLST48+0x55>
      86:	622f6363 	bltu	a4,s3,d36 <$LLST48+0x4f>
      8a:	646c6975 	0x6975
      8e:	6363672d 	0x672d
      92:	77656e2d 	0x6e2d
      96:	2d62696c 	0x696c
      9a:	2f637273 	0x2f637273
      9e:	6c77656e 	0x656e
      a2:	6c2f6269 	0x6269
      a6:	2f636269 	0x6269
      aa:	6c636e69 	0x6e69
      ae:	00656475 	0x6475
      b2:	65746100 	0x6100
      b6:	2e746978 	0x6978
      ba:	00010063 	b	13a <$LASF36+0x6>
      be:	65746100 	0x6100
      c2:	2e746978 	0x6978
      c6:	00010068 	0x68
      ca:	64747300 	0x7300
      ce:	2e62696c 	0x696c
      d2:	00020068 	0x68
	...

00000000000000d8 <$LELTP0>:
      d8:	40020900 	0x900
      dc:	00000102 	0x102
      e0:	53000000 	unimp
      e4:	40020900 	0x900
      e8:	00000102 	0x102
      ec:	15000000 	unimp
      f0:	54020900 	0x900
      f4:	00000102 	0x102
      f8:	00000000 	unimp
      fc:	02aa0101 	0x101

00000000000000fe <$LELT0>:
      fe:	000002aa 	0x2aa

0000000000000102 <$LSLT0>:
     102:	02360002 	0x2
	...

0000000000000108 <$LASLTP0>:
     108:	f5f60101 	0x101
     10c:	0101000a 	0xa
     110:	00000101 	0x101
     114:	2e2e0100 	0x100
     118:	2f2e2e2f 	0x2f2e2e2f
     11c:	2e2f2e2e 	0x2e2e
     120:	2e2e2f2e 	0x2f2e
     124:	6975622f 	0x6975622f
     128:	672d646c 	0x646c
     12c:	6e2d6363 	bltu	s4,s2,edc <$LLST59+0x4e>
     130:	696c7765 	0x7765
     134:	72732d62 	0x2d62
     138:	656e2f63 	bltu	s1,s3,d4e <$LLST49+0x10>
     13c:	62696c77 	0x62696c77
     140:	62696c2f 	0x62696c2f
     144:	74732f63 	bltu	t5,s5,fda <$LELTP0+0x2>
     148:	62696c64 	0x6c64
     14c:	6f682f00 	0x2f00
     150:	6d2f656d 	0x656d
     154:	6d6d697a 	0x697a
     158:	722f7265 	0x7265
     15c:	61657365 	0x7365
     160:	2f686372 	0x6372
     164:	646e6173 	0x646e6173
     168:	2f786f62 	0x6f62
     16c:	63736972 	0x6972
     170:	63672d76 	0x2d76
     174:	73692d63 	0x73692d63
     178:	6d697361 	0x7361
     17c:	7369722f 	0x7369722f
     180:	672d7663 	blt	s8,s2,e3a <$LLST56+0x2a>
     184:	622f6363 	bltu	a4,s3,e34 <$LLST56+0x24>
     188:	646c6975 	0x6975
     18c:	6363672d 	0x672d
     190:	77656e2d 	0x6e2d
     194:	2d62696c 	0x696c
     198:	2f637273 	0x2f637273
     19c:	6c77656e 	0x656e
     1a0:	6c2f6269 	0x6269
     1a4:	2f636269 	0x6269
     1a8:	6c636e69 	0x6e69
     1ac:	00656475 	0x6475
     1b0:	6d6f682f 	0x6d6f682f
     1b4:	7a6d2f65 	0x2f65
     1b8:	656d6d69 	0x6d69
     1bc:	65722f72 	0x2f72
     1c0:	72616573 	0x72616573
     1c4:	732f6863 	beq	t0,s3,1078 <$LLST69+0x40>
     1c8:	62646e61 	0x6e61
     1cc:	722f786f 	jal	1c8bfac <_end+0x1c7aa50>
     1d0:	76637369 	0x7369
     1d4:	6363672d 	0x672d
     1d8:	6173692d 	0x692d
     1dc:	2f6d6973 	0x2f6d6973
     1e0:	63736972 	0x6972
     1e4:	63672d76 	0x2d76
     1e8:	75622f63 	bltu	s1,t5,ffe <$LLST68+0xf>
     1ec:	2d646c69 	0x6c69
     1f0:	2d636367 	j	b58f7c <_end+0xb47a20>
     1f4:	6c77656e 	0x656e
     1f8:	732d6269 	0x6269
     1fc:	6e2f6372 	0x6372
     200:	696c7765 	0x7765
     204:	696c2f62 	0x2f62
     208:	692f6362 	0x6362
     20c:	756c636e 	0x636e
     210:	732f6564 	0x6564
     214:	2f007379 	0x7379
     218:	656d6f68 	0x6f68
     21c:	697a6d2f 	0x697a6d2f
     220:	72656d6d 	0x6d6d
     224:	7365722f 	0x7365722f
     228:	63726165 	0x6165
     22c:	61732f68 	0x2f68
     230:	6f62646e 	0x646e
     234:	69722f78 	0x2f78
     238:	2d766373 	0x2d766373
     23c:	2d636367 	j	b58fc8 <_end+0xb47a6c>
     240:	73617369 	0x7369
     244:	722f6d69 	0x6d69
     248:	76637369 	0x7369
     24c:	6363672d 	0x672d
     250:	6975622f 	0x6975622f
     254:	672d646c 	0x646c
     258:	6e2d6363 	bltu	s4,s2,1008 <$LLST68+0x19>
     25c:	696c7765 	0x7765
     260:	2f2e2f62 	0x2f62
     264:	2f636367 	j	bd8ff0 <_end+0xbc7a94>
     268:	6c636e69 	0x6e69
     26c:	00656475 	0x6475
     270:	6d6f682f 	0x6d6f682f
     274:	7a6d2f65 	0x2f65
     278:	656d6d69 	0x6d69
     27c:	65722f72 	0x2f72
     280:	72616573 	0x72616573
     284:	732f6863 	beq	t0,s3,1138 <$LLST73+0x13>
     288:	62646e61 	0x6e61
     28c:	722f786f 	jal	1c8c06c <_end+0x1c7ab10>
     290:	76637369 	0x7369
     294:	6363672d 	0x672d
     298:	6173692d 	0x692d
     29c:	2f6d6973 	0x2f6d6973
     2a0:	63736972 	0x6972
     2a4:	63672d76 	0x2d76
     2a8:	75622f63 	bltu	s1,t5,10be <$LLST71+0x7>
     2ac:	2d646c69 	0x6c69
     2b0:	2d636367 	j	b5903c <_end+0xb47ae0>
     2b4:	6c77656e 	0x656e
     2b8:	722f6269 	0x6269
     2bc:	76637369 	0x7369
     2c0:	666c652d 	0x652d
     2c4:	77656e2f 	0x77656e2f
     2c8:	2f62696c 	0x696c
     2cc:	67726174 	0x6174
     2d0:	636e692d 	0x692d
     2d4:	6564756c 	0x756c
     2d8:	63616d2f 	0x63616d2f
     2dc:	656e6968 	0x6968
     2e0:	78650000 	unimp
     2e4:	632e7469 	0x7469
     2e8:	00000100 	0x100
     2ec:	7079745f 	0x7079745f
     2f0:	682e7365 	0x7365
     2f4:	00000500 	0x500
     2f8:	2f737973 	0x2f737973
     2fc:	6b636f6c 	0x6f6c
     300:	0200682e 	0x682e
     304:	74730000 	unimp
     308:	66656464 	0x6464
     30c:	0400682e 	0x682e
     310:	79730000 	unimp
     314:	745f2f73 	0x745f2f73
     318:	73657079 	0x7079
     31c:	0200682e 	0x682e
     320:	79730000 	unimp
     324:	65722f73 	0x65722f73
     328:	2e746e65 	0x6e65
     32c:	00020068 	0x68
     330:	64747300 	0x7300
     334:	2e62696c 	0x696c
     338:	00020068 	0x68
	...

000000000000033e <$LELTP0>:
     33e:	54020900 	0x900
     342:	00000102 	0x102
     346:	4f000000 	unimp
     34a:	58020900 	0x900
     34e:	00000102 	0x102
     352:	15000000 	unimp
     356:	5c020900 	0x900
     35a:	00000102 	0x102
     35e:	13000000 	unimp
     362:	64020900 	0x900
     366:	00000102 	0x102
     36a:	01000000 	unimp
     36e:	68020900 	0x900
     372:	00000102 	0x102
     376:	15000000 	unimp
     37a:	6c020900 	0x900
     37e:	00000102 	0x102
     382:	16000000 	unimp
     386:	7c020900 	0x900
     38a:	00000102 	0x102
     38e:	15000000 	unimp
     392:	80020900 	0x900
     396:	00000102 	0x102
     39a:	15000000 	unimp
     39e:	88020900 	0x900
     3a2:	00000102 	0x102
     3a6:	00000000 	unimp
     3aa:	01d00101 	0x101

00000000000003ac <$LELT0>:
     3ac:	000001d0 	0x1d0

00000000000003b0 <$LSLT0>:
     3b0:	01bc0002 	0x2
	...

00000000000003b6 <$LASLTP0>:
     3b6:	f5f60101 	0x101
     3ba:	0101000a 	0xa
     3be:	00000101 	0x101
     3c2:	2e2e0100 	0x100
     3c6:	2f2e2e2f 	0x2f2e2e2f
     3ca:	2e2f2e2e 	0x2e2e
     3ce:	2e2e2f2e 	0x2f2e
     3d2:	6975622f 	0x6975622f
     3d6:	672d646c 	0x646c
     3da:	6e2d6363 	bltu	s4,s2,118a <$LLST77+0xe>
     3de:	696c7765 	0x7765
     3e2:	72732d62 	0x2d62
     3e6:	656e2f63 	bltu	s1,s3,ffc <$LLST68+0xd>
     3ea:	62696c77 	0x62696c77
     3ee:	62696c2f 	0x62696c2f
     3f2:	65722f63 	bltu	s1,s5,1008 <$LLST68+0x19>
     3f6:	00746e65 	0x6e65
     3fa:	6d6f682f 	0x6d6f682f
     3fe:	7a6d2f65 	0x2f65
     402:	656d6d69 	0x6d69
     406:	65722f72 	0x2f72
     40a:	72616573 	0x72616573
     40e:	732f6863 	beq	t0,s3,12c2 <$LLST85+0x3c>
     412:	62646e61 	0x6e61
     416:	722f786f 	jal	1c8c1f6 <_end+0x1c7ac9a>
     41a:	76637369 	0x7369
     41e:	6363672d 	0x672d
     422:	6173692d 	0x692d
     426:	2f6d6973 	0x2f6d6973
     42a:	63736972 	0x6972
     42e:	63672d76 	0x2d76
     432:	75622f63 	bltu	s1,t5,1248 <$LLST82+0x1d>
     436:	2d646c69 	0x6c69
     43a:	2d636367 	j	b591c6 <_end+0xb47c6a>
     43e:	6c77656e 	0x656e
     442:	732d6269 	0x6269
     446:	6e2f6372 	0x6372
     44a:	696c7765 	0x7765
     44e:	696c2f62 	0x2f62
     452:	692f6362 	0x6362
     456:	756c636e 	0x636e
     45a:	732f6564 	0x6564
     45e:	2f007379 	0x7379
     462:	656d6f68 	0x6f68
     466:	697a6d2f 	0x697a6d2f
     46a:	72656d6d 	0x6d6d
     46e:	7365722f 	0x7365722f
     472:	63726165 	0x6165
     476:	61732f68 	0x2f68
     47a:	6f62646e 	0x646e
     47e:	69722f78 	0x2f78
     482:	2d766373 	0x2d766373
     486:	2d636367 	j	b59212 <_end+0xb47cb6>
     48a:	73617369 	0x7369
     48e:	722f6d69 	0x6d69
     492:	76637369 	0x7369
     496:	6363672d 	0x672d
     49a:	6975622f 	0x6975622f
     49e:	672d646c 	0x646c
     4a2:	6e2d6363 	bltu	s4,s2,1252 <$LLST84+0x4>
     4a6:	696c7765 	0x7765
     4aa:	2f2e2f62 	0x2f62
     4ae:	2f636367 	j	bd923a <_end+0xbc7cde>
     4b2:	6c636e69 	0x6e69
     4b6:	00656475 	0x6475
     4ba:	6d6f682f 	0x6d6f682f
     4be:	7a6d2f65 	0x2f65
     4c2:	656d6d69 	0x6d69
     4c6:	65722f72 	0x2f72
     4ca:	72616573 	0x72616573
     4ce:	732f6863 	beq	t0,s3,1382 <$LLST88+0x34>
     4d2:	62646e61 	0x6e61
     4d6:	722f786f 	jal	1c8c2b6 <_end+0x1c7ad5a>
     4da:	76637369 	0x7369
     4de:	6363672d 	0x672d
     4e2:	6173692d 	0x692d
     4e6:	2f6d6973 	0x2f6d6973
     4ea:	63736972 	0x6972
     4ee:	63672d76 	0x2d76
     4f2:	75622f63 	bltu	s1,t5,1308 <$LLST86+0x39>
     4f6:	2d646c69 	0x6c69
     4fa:	2d636367 	j	b59286 <_end+0xb47d2a>
     4fe:	6c77656e 	0x656e
     502:	722f6269 	0x6269
     506:	76637369 	0x7369
     50a:	666c652d 	0x652d
     50e:	77656e2f 	0x77656e2f
     512:	2f62696c 	0x696c
     516:	67726174 	0x6174
     51a:	636e692d 	0x692d
     51e:	6564756c 	0x756c
     522:	63616d2f 	0x63616d2f
     526:	656e6968 	0x6968
     52a:	745f0000 	unimp
     52e:	73657079 	0x7079
     532:	0400682e 	0x682e
     536:	6f6c0000 	unimp
     53a:	682e6b63 	bltu	zero,s3,126e <$LLST84+0x20>
     53e:	00000200 	0x200
     542:	64647473 	0x64647473
     546:	682e6665 	0x6665
     54a:	00000300 	0x300
     54e:	7079745f 	0x7079745f
     552:	682e7365 	0x7365
     556:	00000200 	0x200
     55a:	6e656572 	0x6572
     55e:	00682e74 	0x2e74
     562:	69000002 	0x2
     566:	7275706d 	0x706d
     56a:	00632e65 	0x2e65
     56e:	00000001 	0x1

0000000000000572 <$LELTP0>:
     572:	88020900 	0x900
     576:	00000102 	0x102
     57a:	00000000 	unimp
     57e:	04170101 	0x101

0000000000000580 <$LELT0>:
     580:	00000417 	0x417

0000000000000584 <$LSLT0>:
     584:	01cb0002 	0x2
	...

000000000000058a <$LASLTP0>:
     58a:	f5f60101 	0x101
     58e:	0101000a 	0xa
     592:	00000101 	0x101
     596:	2e2e0100 	0x100
     59a:	2f2e2e2f 	0x2f2e2e2f
     59e:	2e2f2e2e 	0x2e2e
     5a2:	2e2e2f2e 	0x2f2e
     5a6:	6975622f 	0x6975622f
     5aa:	672d646c 	0x646c
     5ae:	6e2d6363 	bltu	s4,s2,135e <$LLST88+0x10>
     5b2:	696c7765 	0x7765
     5b6:	72732d62 	0x2d62
     5ba:	656e2f63 	bltu	s1,s3,11d0 <$LLST79+0xe>
     5be:	62696c77 	0x62696c77
     5c2:	62696c2f 	0x62696c2f
     5c6:	74732f63 	bltu	t5,s5,145c <$LLST96+0x3>
     5ca:	62696c64 	0x6c64
     5ce:	6f682f00 	0x2f00
     5d2:	6d2f656d 	0x656d
     5d6:	6d6d697a 	0x697a
     5da:	722f7265 	0x7265
     5de:	61657365 	0x7365
     5e2:	2f686372 	0x6372
     5e6:	646e6173 	0x646e6173
     5ea:	2f786f62 	0x6f62
     5ee:	63736972 	0x6972
     5f2:	63672d76 	0x2d76
     5f6:	73692d63 	0x73692d63
     5fa:	6d697361 	0x7361
     5fe:	7369722f 	0x7369722f
     602:	672d7663 	blt	s8,s2,12bc <$LLST85+0x36>
     606:	622f6363 	bltu	a4,s3,12b6 <$LLST85+0x30>
     60a:	646c6975 	0x6975
     60e:	6363672d 	0x672d
     612:	77656e2d 	0x6e2d
     616:	2d62696c 	0x696c
     61a:	2f637273 	0x2f637273
     61e:	6c77656e 	0x656e
     622:	6c2f6269 	0x6269
     626:	2f636269 	0x6269
     62a:	6c636e69 	0x6e69
     62e:	2f656475 	0x6475
     632:	00737973 	0x737973
     636:	6d6f682f 	0x6d6f682f
     63a:	7a6d2f65 	0x2f65
     63e:	656d6d69 	0x6d69
     642:	65722f72 	0x2f72
     646:	72616573 	0x72616573
     64a:	732f6863 	beq	t0,s3,14fe <$LLST101+0x19>
     64e:	62646e61 	0x6e61
     652:	722f786f 	jal	1c8c432 <_end+0x1c7aed6>
     656:	76637369 	0x7369
     65a:	6363672d 	0x672d
     65e:	6173692d 	0x692d
     662:	2f6d6973 	0x2f6d6973
     666:	63736972 	0x6972
     66a:	63672d76 	0x2d76
     66e:	75622f63 	bltu	s1,t5,1484 <$LLST97+0x8>
     672:	2d646c69 	0x6c69
     676:	2d636367 	j	b59402 <_end+0xb47ea6>
     67a:	6c77656e 	0x656e
     67e:	2e2f6269 	0x6269
     682:	6363672f 	0x6363672f
     686:	636e692f 	0x636e692f
     68a:	6564756c 	0x756c
     68e:	6f682f00 	0x2f00
     692:	6d2f656d 	0x656d
     696:	6d6d697a 	0x697a
     69a:	722f7265 	0x7265
     69e:	61657365 	0x7365
     6a2:	2f686372 	0x6372
     6a6:	646e6173 	0x646e6173
     6aa:	2f786f62 	0x6f62
     6ae:	63736972 	0x6972
     6b2:	63672d76 	0x2d76
     6b6:	73692d63 	0x73692d63
     6ba:	6d697361 	0x7361
     6be:	7369722f 	0x7369722f
     6c2:	672d7663 	blt	s8,s2,137c <$LLST88+0x2e>
     6c6:	622f6363 	bltu	a4,s3,1376 <$LLST88+0x28>
     6ca:	646c6975 	0x6975
     6ce:	6363672d 	0x672d
     6d2:	77656e2d 	0x6e2d
     6d6:	2f62696c 	0x696c
     6da:	63736972 	0x6972
     6de:	6c652d76 	0x2d76
     6e2:	656e2f66 	0x2f66
     6e6:	62696c77 	0x62696c77
     6ea:	7261742f 	0x7261742f
     6ee:	6e692d67 	j	1b9aba2 <_end+0x1b89646>
     6f2:	64756c63 	beq	t5,s6,13a8 <$LLST89+0x22>
     6f6:	616d2f65 	0x2f65
     6fa:	6e696863 	beq	s5,s0,14ae <$LLST98+0xf>
     6fe:	5f000065 	0x65
     702:	6574615f 	0x6574615f
     706:	2e746978 	0x6978
     70a:	00010063 	b	78a <$LLST15>
     70e:	79745f00 	0x5f00
     712:	2e736570 	0x6570
     716:	00040068 	0x68
     71a:	636f6c00 	0x6c00
     71e:	00682e6b 	0x682e6b
     722:	73000002 	0x2
     726:	65646474 	0x6474
     72a:	00682e66 	0x2e66
     72e:	5f000003 	lb	a7,0(s8)
     732:	65707974 	0x7974
     736:	00682e73 	0x682e73
     73a:	72000002 	0x2
     73e:	746e6565 	0x6565
     742:	0200682e 	0x682e
     746:	74610000 	unimp
     74a:	74697865 	0x7865
     74e:	0100682e 	0x682e
     752:	00000000 	unimp

0000000000000755 <$LELTP0>:
     755:	88020900 	0x900
     759:	00000102 	0x102
     75d:	2c000000 	unimp
     761:	8c020900 	0x900
     765:	00000102 	0x102
     769:	1e000000 	unimp
     76d:	90020900 	0x900
     771:	00000102 	0x102
     775:	0a000000 	unimp
     779:	94020900 	0x900
     77d:	00000102 	0x102
     781:	1e000000 	unimp
     785:	98020900 	0x900
     789:	00000102 	0x102
     78d:	0a000000 	unimp
     791:	a0020900 	0x900
     795:	00000102 	0x102
     799:	1e000000 	unimp
     79d:	a4020900 	0x900
     7a1:	00000102 	0x102
     7a5:	0a000000 	unimp
     7a9:	a8020900 	0x900
     7ad:	00000102 	0x102
     7b1:	01000000 	unimp
     7b5:	ac020900 	0x900
     7b9:	00000102 	0x102
     7bd:	1f000000 	unimp
     7c1:	b0020900 	0x900
     7c5:	00000102 	0x102
     7c9:	16000000 	unimp
     7cd:	bc020900 	0x900
     7d1:	00000102 	0x102
     7d5:	1b000000 	unimp
     7d9:	c4020900 	0x900
     7dd:	00000102 	0x102
     7e1:	15000000 	unimp
     7e5:	c8020900 	0x900
     7e9:	00000102 	0x102
     7ed:	13000000 	unimp
     7f1:	cc020900 	0x900
     7f5:	00000102 	0x102
     7f9:	4b000000 	unimp
     7fd:	e8020900 	0x900
     801:	00000102 	0x102
     805:	03000000 	unimp
     809:	0900014c 	0x14c
     80d:	01030002 	0x2
     811:	00000000 	unimp
     815:	09001500 	0x1500
     819:	01031002 	0x1002
     81d:	00000000 	unimp
     821:	09001c00 	0x1c00
     825:	01031402 	0x1402
     829:	00000000 	unimp
     82d:	09001300 	0x1300
     831:	01031802 	0x1802
     835:	00000000 	unimp
     839:	09001900 	0x1900
     83d:	01031c02 	0x1c02
     841:	00000000 	unimp
     845:	09001000 	0x1000
     849:	01032002 	0x2002
     84d:	00000000 	unimp
     851:	09001500 	0x1500
     855:	01032402 	0x2402
     859:	00000000 	unimp
     85d:	09001600 	0x1600
     861:	01032802 	0x2802
     865:	00000000 	unimp
     869:	09001500 	0x1500
     86d:	01032c02 	0x2c02
     871:	00000000 	unimp
     875:	09001900 	0x1900
     879:	01033002 	0x3002
     87d:	00000000 	unimp
     881:	09002c00 	0x2c00
     885:	01033402 	0x3402
     889:	00000000 	unimp
     88d:	09001500 	0x1500
     891:	01033802 	0x3802
     895:	00000000 	unimp
     899:	09001200 	0x1200
     89d:	01033c02 	0x3c02
     8a1:	00000000 	unimp
     8a5:	09001500 	0x1500
     8a9:	01034402 	0x4402
     8ad:	00000000 	unimp
     8b1:	09001500 	0x1500
     8b5:	01034802 	0x4802
     8b9:	00000000 	unimp
     8bd:	09001200 	0x1200
     8c1:	01034c02 	0x4c02
     8c5:	00000000 	unimp
     8c9:	09001500 	0x1500
     8cd:	01035002 	0x5002
     8d1:	00000000 	unimp
     8d5:	09001500 	0x1500
     8d9:	01035402 	0x5402
     8dd:	00000000 	unimp
     8e1:	09001200 	0x1200
     8e5:	01035802 	0x5802
     8e9:	00000000 	unimp
     8ed:	09001700 	0x1700
     8f1:	01035c02 	0x5c02
     8f5:	00000000 	unimp
     8f9:	09001200 	0x1200
     8fd:	01036002 	0x6002
     901:	00000000 	unimp
     905:	09001500 	0x1500
     909:	01036402 	0x6402
     90d:	00000000 	unimp
     911:	09001500 	0x1500
     915:	01036802 	0x6802
     919:	00000000 	unimp
     91d:	09001700 	0x1700
     921:	01036c02 	0x6c02
     925:	00000000 	unimp
     929:	09001900 	0x1900
     92d:	01037002 	0x7002
     931:	00000000 	unimp
     935:	09000f00 	0xf00
     939:	01037802 	0x7802
     93d:	00000000 	unimp
     941:	09001800 	0x1800
     945:	01037c02 	0x7c02
     949:	00000000 	unimp
     94d:	09001000 	0x1000
     951:	01038402 	0x8402
     955:	00000000 	unimp
     959:	09001900 	0x1900
     95d:	01039402 	0x9402
     961:	00000000 	unimp
     965:	09000f00 	0xf00
     969:	01039802 	0x9802
     96d:	00000000 	unimp
     971:	09001900 	0x1900
     975:	0103a002 	0xa002
     979:	00000000 	unimp
     97d:	09000d00 	0xd00
     981:	0103b002 	0xb002
     985:	00000000 	unimp
     989:	01480300 	0x300
     98d:	bc020900 	0x900
     991:	00000103 	lw	zero,0(zero)
     995:	00000000 	unimp
     999:	03f30101 	0x101

000000000000099b <$LELT0>:
     99b:	000003f3 	vf	0(zero)

000000000000099f <$LSLT0>:
     99f:	01c40002 	0x2
	...

00000000000009a5 <$LASLTP0>:
     9a5:	f5f60101 	0x101
     9a9:	0101000a 	0xa
     9ad:	00000101 	0x101
     9b1:	2e2e0100 	0x100
     9b5:	2f2e2e2f 	0x2f2e2e2f
     9b9:	2e2f2e2e 	0x2e2e
     9bd:	2e2e2f2e 	0x2f2e
     9c1:	6975622f 	0x6975622f
     9c5:	672d646c 	0x646c
     9c9:	6e2d6363 	bltu	s4,s2,1779 <$LLST115+0x21>
     9cd:	696c7765 	0x7765
     9d1:	72732d62 	0x2d62
     9d5:	656e2f63 	bltu	s1,s3,15eb <$LLST106+0xe>
     9d9:	62696c77 	0x62696c77
     9dd:	62696c2f 	0x62696c2f
     9e1:	74732f63 	bltu	t5,s5,1877 <$LLST124+0x14>
     9e5:	62696c64 	0x6c64
     9e9:	6f682f00 	0x2f00
     9ed:	6d2f656d 	0x656d
     9f1:	6d6d697a 	0x697a
     9f5:	722f7265 	0x7265
     9f9:	61657365 	0x7365
     9fd:	2f686372 	0x6372
     a01:	646e6173 	0x646e6173
     a05:	2f786f62 	0x6f62
     a09:	63736972 	0x6972
     a0d:	63672d76 	0x2d76
     a11:	73692d63 	0x73692d63
     a15:	6d697361 	0x7361
     a19:	7369722f 	0x7369722f
     a1d:	672d7663 	blt	s8,s2,16d7 <$LLST113>
     a21:	622f6363 	bltu	a4,s3,16d1 <$LLST112+0x30>
     a25:	646c6975 	0x6975
     a29:	6363672d 	0x672d
     a2d:	77656e2d 	0x6e2d
     a31:	2d62696c 	0x696c
     a35:	2f637273 	0x2f637273
     a39:	6c77656e 	0x656e
     a3d:	6c2f6269 	0x6269
     a41:	2f636269 	0x6269
     a45:	6c636e69 	0x6e69
     a49:	2f656475 	0x6475
     a4d:	00737973 	0x737973
     a51:	6d6f682f 	0x6d6f682f
     a55:	7a6d2f65 	0x2f65
     a59:	656d6d69 	0x6d69
     a5d:	65722f72 	0x2f72
     a61:	72616573 	0x72616573
     a65:	732f6863 	beq	t0,s3,1919 <$LLST130+0x7>
     a69:	62646e61 	0x6e61
     a6d:	722f786f 	jal	1c8c84d <_end+0x1c7b2f1>
     a71:	76637369 	0x7369
     a75:	6363672d 	0x672d
     a79:	6173692d 	0x692d
     a7d:	2f6d6973 	0x2f6d6973
     a81:	63736972 	0x6972
     a85:	63672d76 	0x2d76
     a89:	75622f63 	bltu	s1,t5,189f <$LLST125+0x19>
     a8d:	2d646c69 	0x6c69
     a91:	2d636367 	j	b5981d <_end+0xb482c1>
     a95:	6c77656e 	0x656e
     a99:	2e2f6269 	0x6269
     a9d:	6363672f 	0x6363672f
     aa1:	636e692f 	0x636e692f
     aa5:	6564756c 	0x756c
     aa9:	6f682f00 	0x2f00
     aad:	6d2f656d 	0x656d
     ab1:	6d6d697a 	0x697a
     ab5:	722f7265 	0x7265
     ab9:	61657365 	0x7365
     abd:	2f686372 	0x6372
     ac1:	646e6173 	0x646e6173
     ac5:	2f786f62 	0x6f62
     ac9:	63736972 	0x6972
     acd:	63672d76 	0x2d76
     ad1:	73692d63 	0x73692d63
     ad5:	6d697361 	0x7361
     ad9:	7369722f 	0x7369722f
     add:	672d7663 	blt	s8,s2,1797 <$LLST116+0x9>
     ae1:	622f6363 	bltu	a4,s3,1791 <$LLST116+0x3>
     ae5:	646c6975 	0x6975
     ae9:	6363672d 	0x672d
     aed:	77656e2d 	0x6e2d
     af1:	2f62696c 	0x696c
     af5:	63736972 	0x6972
     af9:	6c652d76 	0x2d76
     afd:	656e2f66 	0x2f66
     b01:	62696c77 	0x62696c77
     b05:	7261742f 	0x7261742f
     b09:	6e692d67 	j	1b9afbd <_end+0x1b89a61>
     b0d:	64756c63 	beq	t5,s6,17c3 <$LLST116+0x35>
     b11:	616d2f65 	0x2f65
     b15:	6e696863 	beq	s5,s0,18c9 <$LLST126+0x20>
     b19:	5f000065 	0x65
     b1d:	6c61635f 	0x6c61635f
     b21:	74615f6c 	0x5f6c
     b25:	74697865 	0x7865
     b29:	0100632e 	0x632e
     b2d:	745f0000 	unimp
     b31:	73657079 	0x7079
     b35:	0400682e 	0x682e
     b39:	6f6c0000 	unimp
     b3d:	682e6b63 	bltu	zero,s3,1871 <$LLST124+0xe>
     b41:	00000200 	0x200
     b45:	64647473 	0x64647473
     b49:	682e6665 	0x6665
     b4d:	00000300 	0x300
     b51:	7079745f 	0x7079745f
     b55:	682e7365 	0x7365
     b59:	00000200 	0x200
     b5d:	6e656572 	0x6572
     b61:	00682e74 	0x2e74
     b65:	00000002 	0x2

0000000000000b69 <$LELTP0>:
     b69:	bc020900 	0x900
     b6d:	00000103 	lw	zero,0(zero)
     b71:	28000000 	unimp
     b75:	c8020900 	0x900
     b79:	00000103 	lw	zero,0(zero)
     b7d:	1e000000 	unimp
     b81:	cc020900 	0x900
     b85:	00000103 	lw	zero,0(zero)
     b89:	0a000000 	unimp
     b8d:	f0020900 	0x900
     b91:	00000103 	lw	zero,0(zero)
     b95:	01000000 	unimp
     b99:	f8020900 	0x900
     b9d:	00000103 	lw	zero,0(zero)
     ba1:	2b000000 	unimp
     ba5:	fc020900 	0x900
     ba9:	00000103 	lw	zero,0(zero)
     bad:	10000000 	unimp
     bb1:	00020900 	0x900
     bb5:	00000104 	0x104
     bb9:	0b000000 	unimp
     bbd:	04020900 	0x900
     bc1:	00000104 	0x104
     bc5:	16000000 	unimp
     bc9:	08020900 	0x900
     bcd:	00000104 	0x104
     bd1:	13000000 	unimp
     bd5:	0c020900 	0x900
     bd9:	00000104 	0x104
     bdd:	1c000000 	unimp
     be1:	1c020900 	0x900
     be5:	00000104 	0x104
     be9:	1b000000 	unimp
     bed:	20020900 	0x900
     bf1:	00000104 	0x104
     bf5:	01000000 	unimp
     bf9:	34020900 	0x900
     bfd:	00000104 	0x104
     c01:	0d000000 	unimp
     c05:	40020900 	0x900
     c09:	00000104 	0x104
     c0d:	40000000 	unimp
     c11:	4c020900 	0x900
     c15:	00000104 	0x104
     c19:	2b000000 	unimp
     c1d:	7c020900 	0x900
     c21:	00000104 	0x104
     c25:	03000000 	unimp
     c29:	0900014a 	0x14a
     c2d:	01048002 	0x8002
     c31:	00000000 	unimp
     c35:	09001300 	0x1300
     c39:	01048c02 	0x8c02
     c3d:	00000000 	unimp
     c41:	09001500 	0x1500
     c45:	01049002 	0x9002
     c49:	00000000 	unimp
     c4d:	09001300 	0x1300
     c51:	01049402 	0x9402
     c55:	00000000 	unimp
     c59:	09001500 	0x1500
     c5d:	01049802 	0x9802
     c61:	00000000 	unimp
     c65:	09001700 	0x1700
     c69:	01049c02 	0x9c02
     c6d:	00000000 	unimp
     c71:	09001700 	0x1700
     c75:	0104a002 	0xa002
     c79:	00000000 	unimp
     c7d:	09001a00 	0x1a00
     c81:	0104a402 	0xa402
     c85:	00000000 	unimp
     c89:	016b0300 	0x300
     c8d:	a8020900 	0x900
     c91:	00000104 	0x104
     c95:	26000000 	unimp
     c99:	ac020900 	0x900
     c9d:	00000104 	0x104
     ca1:	17000000 	unimp
     ca5:	b4020900 	0x900
     ca9:	00000104 	0x104
     cad:	16000000 	unimp
     cb1:	c0020900 	0x900
     cb5:	00000104 	0x104
     cb9:	15000000 	unimp
     cbd:	d4020900 	0x900
     cc1:	00000104 	0x104
     cc5:	1b000000 	unimp
     cc9:	dc020900 	0x900
     ccd:	00000104 	0x104
     cd1:	01000000 	unimp
     cd5:	e8020900 	0x900
     cd9:	00000104 	0x104
     cdd:	0b000000 	unimp
     ce1:	f0020900 	0x900
     ce5:	00000104 	0x104
     ce9:	03000000 	unimp
     ced:	09000174 	0x174
     cf1:	0104f802 	0xf802
     cf5:	00000000 	unimp
     cf9:	09002400 	0x2400
     cfd:	01050c02 	0xc02
     d01:	00000000 	unimp
     d05:	09002700 	0x2700
     d09:	01051402 	0x1402
     d0d:	00000000 	unimp
     d11:	09000100 	0x100
     d15:	01051c02 	0x1c02
     d19:	00000000 	unimp
     d1d:	09001c00 	0x1c00
     d21:	01052002 	0x2002
     d25:	00000000 	unimp
     d29:	09000f00 	0xf00
     d2d:	01052402 	0x2402
     d31:	00000000 	unimp
     d35:	09001900 	0x1900
     d39:	01052802 	0x2802
     d3d:	00000000 	unimp
     d41:	09001500 	0x1500
     d45:	01052c02 	0x2c02
     d49:	00000000 	unimp
     d4d:	7fbf0300 	0x300
     d51:	02090001 	0x1
     d55:	00010534 	0x534
     d59:	00000000 	unimp
     d5d:	02090055 	0x55
     d61:	00010538 	0x538
     d65:	00000000 	unimp
     d69:	02090018 	0x18
     d6d:	0001053c 	0x53c
     d71:	00000000 	unimp
     d75:	02090015 	0x15
     d79:	00010544 	0x544
     d7d:	00000000 	unimp
     d81:	00017203 	lbu	zero,92(zero)
     d85:	054c0209 	0x209
     d89:	00000001 	0x1
     d8d:	01000000 	unimp
     d91:	000ce201 	0xe201

0000000000000d92 <$LELT0>:
     d92:	00000ce2 	0xce2

0000000000000d96 <$LSLT0>:
     d96:	023c0002 	0x2
	...

0000000000000d9c <$LASLTP0>:
     d9c:	f5f60101 	0x101
     da0:	0101000a 	0xa
     da4:	00000101 	0x101
     da8:	2e2e0100 	0x100
     dac:	2f2e2e2f 	0x2f2e2e2f
     db0:	2e2f2e2e 	0x2e2e
     db4:	75622f2e 	0x2f2e
     db8:	2d646c69 	0x6c69
     dbc:	2d636367 	j	b59b48 <_end+0xb485ec>
     dc0:	6c77656e 	0x656e
     dc4:	732d6269 	0x6269
     dc8:	6c2f6372 	0x6372
     dcc:	6c676269 	0x6269
     dd0:	2f73736f 	jal	bddb9c <_end+0xbcc640>
     dd4:	63736972 	0x6972
     dd8:	2e2e0076 	0x76
     ddc:	2f2e2e2f 	0x2f2e2e2f
     de0:	2e2f2e2e 	0x2e2e
     de4:	75622f2e 	0x2f2e
     de8:	2d646c69 	0x6c69
     dec:	2d636367 	j	b59b78 <_end+0xb4861c>
     df0:	6c77656e 	0x656e
     df4:	732d6269 	0x6269
     df8:	6c2f6372 	0x6372
     dfc:	6c676269 	0x6269
     e00:	2f73736f 	jal	bddbcc <_end+0xbcc670>
     e04:	63736972 	0x6972
     e08:	616d2f76 	0x2f76
     e0c:	6e696863 	beq	s5,s0,1bc0 <$LLST147+0x18>
     e10:	682f0065 	0x65
     e14:	2f656d6f 	jal	bda3c8 <_end+0xbc8e6c>
     e18:	6d697a6d 	0x7a6d
     e1c:	2f72656d 	0x656d
     e20:	65736572 	0x6572
     e24:	68637261 	0x7261
     e28:	6e61732f 	0x6e61732f
     e2c:	786f6264 	0x6264
     e30:	7369722f 	0x7369722f
     e34:	672d7663 	blt	s8,s2,1aee <$LLST141+0xa>
     e38:	692d6363 	bltu	a0,s2,1be8 <$LLST148+0x1d>
     e3c:	69736173 	0x69736173
     e40:	69722f6d 	0x2f6d
     e44:	2d766373 	0x2d766373
     e48:	2f636367 	j	bd9bd4 <_end+0xbc8678>
     e4c:	6c697562 	0x7562
     e50:	63672d64 	0x2d64
     e54:	656e2d63 	0x656e2d63
     e58:	62696c77 	0x62696c77
     e5c:	6372732d 	0x732d
     e60:	77656e2f 	0x77656e2f
     e64:	2f62696c 	0x696c
     e68:	6362696c 	0x696c
     e6c:	636e692f 	0x636e692f
     e70:	6564756c 	0x756c
     e74:	7379732f 	0x7379732f
     e78:	6f682f00 	0x2f00
     e7c:	6d2f656d 	0x656d
     e80:	6d6d697a 	0x697a
     e84:	722f7265 	0x7265
     e88:	61657365 	0x7365
     e8c:	2f686372 	0x6372
     e90:	646e6173 	0x646e6173
     e94:	2f786f62 	0x6f62
     e98:	63736972 	0x6972
     e9c:	63672d76 	0x2d76
     ea0:	73692d63 	0x73692d63
     ea4:	6d697361 	0x7361
     ea8:	7369722f 	0x7369722f
     eac:	672d7663 	blt	s8,s2,1b66 <$LLST145+0x4>
     eb0:	622f6363 	bltu	a4,s3,1b60 <$LLST144+0x36>
     eb4:	646c6975 	0x6975
     eb8:	6363672d 	0x672d
     ebc:	77656e2d 	0x6e2d
     ec0:	2f62696c 	0x696c
     ec4:	63672f2e 	0x2f2e
     ec8:	6e692f63 	bltu	s5,s0,1c5e <$LLST151>
     ecc:	64756c63 	beq	t5,s6,1b82 <$LLST145+0x20>
     ed0:	682f0065 	0x65
     ed4:	2f656d6f 	jal	bda488 <_end+0xbc8f2c>
     ed8:	6d697a6d 	0x7a6d
     edc:	2f72656d 	0x656d
     ee0:	65736572 	0x6572
     ee4:	68637261 	0x7261
     ee8:	6e61732f 	0x6e61732f
     eec:	786f6264 	0x6264
     ef0:	7369722f 	0x7369722f
     ef4:	672d7663 	blt	s8,s2,1bae <$LLST147+0x6>
     ef8:	692d6363 	bltu	a0,s2,1ca8 <$LASLTP0+0x24>
     efc:	69736173 	0x69736173
     f00:	69722f6d 	0x2f6d
     f04:	2d766373 	0x2d766373
     f08:	2f636367 	j	bd9c94 <_end+0xbc8738>
     f0c:	6c697562 	0x7562
     f10:	63672d64 	0x2d64
     f14:	656e2d63 	0x656e2d63
     f18:	62696c77 	0x62696c77
     f1c:	7369722f 	0x7369722f
     f20:	652d7663 	blt	s0,s2,1bda <$LLST148+0xf>
     f24:	6e2f666c 	0x666c
     f28:	696c7765 	0x7765
     f2c:	61742f62 	0x2f62
     f30:	692d6772 	0x6772
     f34:	756c636e 	0x636e
     f38:	6d2f6564 	0x6564
     f3c:	69686361 	0x6361
     f40:	0000656e 	0x656e
     f44:	63737973 	0x63737973
     f48:	736c6c61 	0x6c61
     f4c:	0100632e 	0x632e
     f50:	616d0000 	unimp
     f54:	6e696863 	beq	s5,s0,1d08 <$LLST154+0x2c>
     f58:	79732f65 	0x2f65
     f5c:	6c616373 	0x6c616373
     f60:	00682e6c 	0x2e6c
     f64:	5f000001 	0x1
     f68:	65707974 	0x7974
     f6c:	00682e73 	0x682e73
     f70:	5f000005 	0x5
     f74:	65707974 	0x7974
     f78:	00682e73 	0x682e73
     f7c:	73000003 	lb	t2,0(t0)
     f80:	65646474 	0x6474
     f84:	00682e66 	0x2e66
     f88:	74000004 	0x4
     f8c:	73657079 	0x7079
     f90:	0300682e 	0x682e
     f94:	74730000 	unimp
     f98:	682e7461 	0x7461
     f9c:	00000300 	0x300
     fa0:	656d6974 	0x6974
     fa4:	00682e73 	0x682e73
     fa8:	74000003 	lb	t2,0(t4)
     fac:	2e656d69 	0x6d69
     fb0:	00030068 	0x68
     fb4:	6d697400 	0x7400
     fb8:	682e6265 	0x6265
     fbc:	00000300 	0x300
     fc0:	6d697475 	0x7475
     fc4:	00682e65 	0x2e65
     fc8:	75000003 	lb	t2,0(s0)
     fcc:	7473696e 	0x696e
     fd0:	00682e64 	0x2e64
     fd4:	00000003 	lb	zero,0(zero)

0000000000000fd8 <$LELTP0>:
     fd8:	4c020900 	0x900
     fdc:	00000105 	0x105
     fe0:	78000000 	unimp
     fe4:	6c020900 	0x900
     fe8:	00000105 	0x105
     fec:	15000000 	unimp
     ff0:	74020900 	0x900
     ff4:	00000105 	0x105
     ff8:	04000000 	unimp
     ffc:	7fbc0302 	0x302
    1000:	02090001 	0x1
    1004:	00010578 	0x578
    1008:	00000000 	unimp
    100c:	00580104 	0x104
    1010:	05800209 	0x209
    1014:	00000001 	0x1
    1018:	02040000 	unimp
    101c:	00014103 	lw	zero,80(zero)
    1020:	05840209 	0x209
    1024:	00000001 	0x1
    1028:	00150000 	unimp
    102c:	05880209 	0x209
    1030:	00000001 	0x1
    1034:	001a0000 	unimp
    1038:	058c0209 	0x209
    103c:	00000001 	0x1
    1040:	00130000 	unimp
    1044:	05900209 	0x209
    1048:	00000001 	0x1
    104c:	01040000 	unimp
    1050:	02090047 	fmsub.s	ft0,fa4,fa0,ft6,rne
    1054:	00010594 	0x594
    1058:	00000000 	unimp
    105c:	0209001b 	addw	zero,a4,576
    1060:	00010598 	0x598
    1064:	00000000 	unimp
    1068:	02090013 	add	zero,a4,576
    106c:	0001059c 	0x59c
    1070:	00000000 	unimp
    1074:	0209000e 	0xe
    1078:	000105a0 	0x5a0
    107c:	00000000 	unimp
    1080:	0209001b 	addw	zero,a4,576
    1084:	000105b8 	0x5b8
    1088:	00000000 	unimp
    108c:	0209001c 	0x1c
    1090:	000105c8 	0x5c8
    1094:	00000000 	unimp
    1098:	b6030204 	0x204
    109c:	0900017f 	0x900017f
    10a0:	0105cc02 	0xcc02
    10a4:	00000000 	unimp
    10a8:	09001600 	0x1600
    10ac:	0105d002 	0xd002
    10b0:	00000000 	unimp
    10b4:	09001500 	0x1500
    10b8:	0105d402 	0xd402
    10bc:	00000000 	unimp
    10c0:	09001900 	0x1900
    10c4:	0105d802 	0xd802
    10c8:	00000000 	unimp
    10cc:	09001500 	0x1500
    10d0:	0105dc02 	0xdc02
    10d4:	00000000 	unimp
    10d8:	46010400 	0x400
    10dc:	e0020900 	0x900
    10e0:	00000105 	0x105
    10e4:	25000000 	unimp
    10e8:	e4020900 	0x900
    10ec:	00000105 	0x105
    10f0:	03000000 	unimp
    10f4:	0900016f 	jal	2410f8 <_end+0x22fb9c>
    10f8:	0105e802 	0xe802
    10fc:	00000000 	unimp
    1100:	09002500 	0x2500
    1104:	0105fc02 	0xfc02
    1108:	00000000 	unimp
    110c:	09001c00 	0x1c00
    1110:	01060c02 	0xc02
    1114:	00000000 	unimp
    1118:	03020400 	0x400
    111c:	00017fac 	0x7fac
    1120:	06100209 	0x209
    1124:	00000001 	0x1
    1128:	00160000 	unimp
    112c:	06140209 	0x209
    1130:	00000001 	0x1
    1134:	00150000 	unimp
    1138:	06180209 	0x209
    113c:	00000001 	0x1
    1140:	001a0000 	unimp
    1144:	061c0209 	0x209
    1148:	00000001 	0x1
    114c:	00130000 	unimp
    1150:	06200209 	0x209
    1154:	00000001 	0x1
    1158:	01040000 	unimp
    115c:	02090047 	fmsub.s	ft0,fa4,fa0,ft6,rne
    1160:	00010624 	0x624
    1164:	00000000 	unimp
    1168:	0209002f 	0x209002f
    116c:	00010628 	0x628
    1170:	00000000 	unimp
    1174:	02090013 	add	zero,a4,576
    1178:	0001062c 	0x62c
    117c:	00000000 	unimp
    1180:	00016603 	lbu	zero,89(zero)
    1184:	06300209 	0x209
    1188:	00000001 	0x1
    118c:	002f0000 	unimp
    1190:	06440209 	0x209
    1194:	00000001 	0x1
    1198:	001c0000 	unimp
    119c:	06540209 	0x209
    11a0:	00000001 	0x1
    11a4:	02040000 	unimp
    11a8:	017fa203 	lbu	zero,-24(a1)
    11ac:	58020900 	0x900
    11b0:	00000106 	0x106
    11b4:	16000000 	unimp
    11b8:	5c020900 	0x900
    11bc:	00000106 	0x106
    11c0:	15000000 	unimp
    11c4:	60020900 	0x900
    11c8:	00000106 	0x106
    11cc:	1a000000 	unimp
    11d0:	64020900 	0x900
    11d4:	00000106 	0x106
    11d8:	13000000 	unimp
    11dc:	68020900 	0x900
    11e0:	00000106 	0x106
    11e4:	04000000 	unimp
    11e8:	09004701 	0x4701
    11ec:	01066c02 	0x6c02
    11f0:	00000000 	unimp
    11f4:	09003900 	0x3900
    11f8:	01067002 	0x7002
    11fc:	00000000 	unimp
    1200:	09001300 	0x1300
    1204:	01067402 	0x7402
    1208:	00000000 	unimp
    120c:	015c0300 	0x300
    1210:	78020900 	0x900
    1214:	00000106 	0x106
    1218:	39000000 	unimp
    121c:	8c020900 	0x900
    1220:	00000106 	0x106
    1224:	1d000000 	unimp
    1228:	9c020900 	0x900
    122c:	00000106 	0x106
    1230:	04000000 	unimp
    1234:	7f960302 	0x302
    1238:	02090001 	0x1
    123c:	000106a0 	0x6a0
    1240:	00000000 	unimp
    1244:	02090015 	0x15
    1248:	000106a4 	0x6a4
    124c:	00000000 	unimp
    1250:	02090016 	0x16
    1254:	000106a8 	0x6a8
    1258:	00000000 	unimp
    125c:	02090015 	0x15
    1260:	000106ac 	0x6ac
    1264:	00000000 	unimp
    1268:	0209001a 	0x1a
    126c:	000106b0 	0x6b0
    1270:	00000000 	unimp
    1274:	02090013 	add	zero,a4,576
    1278:	000106b4 	0x6b4
    127c:	00000000 	unimp
    1280:	00470104 	0x104
    1284:	06b80209 	0x209
    1288:	00000001 	0x1
    128c:	00440000 	unimp
    1290:	06bc0209 	0x209
    1294:	00000001 	0x1
    1298:	00130000 	unimp
    129c:	06c00209 	0x209
    12a0:	00000001 	0x1
    12a4:	51030000 	unimp
    12a8:	02090001 	0x1
    12ac:	000106c4 	0x6c4
    12b0:	00000000 	unimp
    12b4:	02090044 	0x44
    12b8:	000106d8 	0x6d8
    12bc:	00000000 	unimp
    12c0:	0209001c 	0x1c
    12c4:	000106f0 	0x6f0
    12c8:	00000000 	unimp
    12cc:	02090015 	0x15
    12d0:	000106f8 	0x6f8
    12d4:	00000000 	unimp
    12d8:	89030204 	0x204
    12dc:	0900017f 	0x900017f
    12e0:	0106fc02 	0xfc02
    12e4:	00000000 	unimp
    12e8:	09001600 	0x1600
    12ec:	01070002 	0x2
    12f0:	00000000 	unimp
    12f4:	09001500 	0x1500
    12f8:	01070402 	0x402
    12fc:	00000000 	unimp
    1300:	09001600 	0x1600
    1304:	01070802 	0x802
    1308:	00000000 	unimp
    130c:	09001500 	0x1500
    1310:	01070c02 	0xc02
    1314:	00000000 	unimp
    1318:	09001a00 	0x1a00
    131c:	01071002 	0x1002
    1320:	00000000 	unimp
    1324:	09001300 	0x1300
    1328:	01071402 	0x1402
    132c:	00000000 	unimp
    1330:	47010400 	0x400
    1334:	18020900 	0x900
    1338:	00000107 	flw	ft0,0(zero)
    133c:	4e000000 	unimp
    1340:	1c020900 	0x900
    1344:	00000107 	flw	ft0,0(zero)
    1348:	13000000 	unimp
    134c:	20020900 	0x900
    1350:	00000107 	flw	ft0,0(zero)
    1354:	03000000 	unimp
    1358:	09000147 	0x9000147
    135c:	01072402 	0x2402
    1360:	00000000 	unimp
    1364:	09004e00 	0x4e00
    1368:	01073802 	0x3802
    136c:	00000000 	unimp
    1370:	09001c00 	0x1c00
    1374:	01075002 	0x5002
    1378:	00000000 	unimp
    137c:	09001500 	0x1500
    1380:	01075802 	0x5802
    1384:	00000000 	unimp
    1388:	03020400 	0x400
    138c:	00017eff 	0x17eff
    1390:	075c0209 	0x209
    1394:	00000001 	0x1
    1398:	00160000 	unimp
    139c:	07600209 	0x209
    13a0:	00000001 	0x1
    13a4:	00150000 	unimp
    13a8:	07640209 	0x209
    13ac:	00000001 	0x1
    13b0:	00160000 	unimp
    13b4:	07680209 	0x209
    13b8:	00000001 	0x1
    13bc:	00150000 	unimp
    13c0:	076c0209 	0x209
    13c4:	00000001 	0x1
    13c8:	001a0000 	unimp
    13cc:	07700209 	0x209
    13d0:	00000001 	0x1
    13d4:	00130000 	unimp
    13d8:	07740209 	0x209
    13dc:	00000001 	0x1
    13e0:	01040000 	unimp
    13e4:	02090047 	fmsub.s	ft0,fa4,fa0,ft6,rne
    13e8:	00010778 	0x778
    13ec:	00000000 	unimp
    13f0:	02090058 	0x58
    13f4:	0001077c 	0x77c
    13f8:	00000000 	unimp
    13fc:	02090013 	add	zero,a4,576
    1400:	00010780 	0x780
    1404:	00000000 	unimp
    1408:	017fbd03 	lw	zero,-17(a1)
    140c:	84020900 	0x900
    1410:	00000107 	flw	ft0,0(zero)
    1414:	58000000 	unimp
    1418:	98020900 	0x900
    141c:	00000107 	flw	ft0,0(zero)
    1420:	1c000000 	unimp
    1424:	a8020900 	0x900
    1428:	00000107 	flw	ft0,0(zero)
    142c:	04000000 	unimp
    1430:	7ef70302 	0x302
    1434:	02090001 	0x1
    1438:	000107ac 	0x7ac
    143c:	00000000 	unimp
    1440:	02090015 	0x15
    1444:	000107b0 	0x7b0
    1448:	00000000 	unimp
    144c:	02090015 	0x15
    1450:	000107b4 	0x7b4
    1454:	00000000 	unimp
    1458:	02090016 	0x16
    145c:	000107b8 	0x7b8
    1460:	00000000 	unimp
    1464:	02090015 	0x15
    1468:	000107bc 	0x7bc
    146c:	00000000 	unimp
    1470:	0209001a 	0x1a
    1474:	000107c0 	0x7c0
    1478:	00000000 	unimp
    147c:	02090013 	add	zero,a4,576
    1480:	000107c4 	0x7c4
    1484:	00000000 	unimp
    1488:	00470104 	0x104
    148c:	07c80209 	0x209
    1490:	00000001 	0x1
    1494:	00620000 	unimp
    1498:	07cc0209 	0x209
    149c:	00000001 	0x1
    14a0:	00130000 	unimp
    14a4:	07d00209 	0x209
    14a8:	00000001 	0x1
    14ac:	b3030000 	unimp
    14b0:	0900017f 	0x900017f
    14b4:	0107d402 	0xd402
    14b8:	00000000 	unimp
    14bc:	09006200 	0x6200
    14c0:	0107e802 	0xe802
    14c4:	00000000 	unimp
    14c8:	09001c00 	0x1c00
    14cc:	01080402 	0x402
    14d0:	00000000 	unimp
    14d4:	09001500 	0x1500
    14d8:	01081802 	0x1802
    14dc:	00000000 	unimp
    14e0:	03020400 	0x400
    14e4:	00017eeb 	0x17eeb
    14e8:	081c0209 	0x209
    14ec:	00000001 	0x1
    14f0:	01040000 	unimp
    14f4:	020900a9 	0xa9
    14f8:	00010820 	0x820
    14fc:	00000000 	unimp
    1500:	ed030204 	0x204
    1504:	0900017e 	0x17e
    1508:	01082402 	0x2402
    150c:	00000000 	unimp
    1510:	09001700 	0x1700
    1514:	01082802 	0x2802
    1518:	00000000 	unimp
    151c:	09001500 	0x1500
    1520:	01082c02 	0x2c02
    1524:	00000000 	unimp
    1528:	09001a00 	0x1a00
    152c:	01083002 	0x3002
    1530:	00000000 	unimp
    1534:	09001300 	0x1300
    1538:	01083402 	0x3402
    153c:	00000000 	unimp
    1540:	47010400 	0x400
    1544:	38020900 	0x900
    1548:	00000108 	0x108
    154c:	6d000000 	unimp
    1550:	3c020900 	0x900
    1554:	00000108 	0x108
    1558:	12000000 	unimp
    155c:	40020900 	0x900
    1560:	00000108 	0x108
    1564:	03000000 	unimp
    1568:	00017fa9 	0x7fa9
    156c:	08440209 	0x209
    1570:	00000001 	0x1
    1574:	006d0000 	unimp
    1578:	085c0209 	0x209
    157c:	00000001 	0x1
    1580:	001c0000 	unimp
    1584:	08700209 	0x209
    1588:	00000001 	0x1
    158c:	00150000 	unimp
    1590:	08780209 	0x209
    1594:	00000001 	0x1
    1598:	02040000 	unimp
    159c:	017ee003 	lb	zero,-72(a1)
    15a0:	7c020900 	0x900
    15a4:	00000108 	0x108
    15a8:	16000000 	unimp
    15ac:	80020900 	0x900
    15b0:	00000108 	0x108
    15b4:	15000000 	unimp
    15b8:	84020900 	0x900
    15bc:	00000108 	0x108
    15c0:	16000000 	unimp
    15c4:	88020900 	0x900
    15c8:	00000108 	0x108
    15cc:	15000000 	unimp
    15d0:	8c020900 	0x900
    15d4:	00000108 	0x108
    15d8:	1a000000 	unimp
    15dc:	90020900 	0x900
    15e0:	00000108 	0x108
    15e4:	13000000 	unimp
    15e8:	94020900 	0x900
    15ec:	00000108 	0x108
    15f0:	04000000 	unimp
    15f4:	09004701 	0x4701
    15f8:	01089802 	0x9802
    15fc:	00000000 	unimp
    1600:	09007700 	0x7700
    1604:	01089c02 	0x9c02
    1608:	00000000 	unimp
    160c:	09001300 	0x1300
    1610:	0108a002 	0xa002
    1614:	00000000 	unimp
    1618:	7f9e0300 	0x300
    161c:	02090001 	0x1
    1620:	000108a4 	0x8a4
    1624:	00000000 	unimp
    1628:	02090077 	0x2090077
    162c:	000108b8 	0x8b8
    1630:	00000000 	unimp
    1634:	0209001d 	0x1d
    1638:	000108c0 	0x8c0
    163c:	00000000 	unimp
    1640:	02090015 	0x15
    1644:	000108c4 	0x8c4
    1648:	00000000 	unimp
    164c:	02090016 	0x16
    1650:	000108c8 	0x8c8
    1654:	00000000 	unimp
    1658:	02090012 	0x12
    165c:	000108d0 	0x8d0
    1660:	00000000 	unimp
    1664:	02090016 	0x16
    1668:	000108dc 	0x8dc
    166c:	00000000 	unimp
    1670:	0209001d 	0x1d
    1674:	000108e4 	0x8e4
    1678:	00000000 	unimp
    167c:	02090015 	0x15
    1680:	000108e8 	0x8e8
    1684:	00000000 	unimp
    1688:	02090016 	0x16
    168c:	000108ec 	0x8ec
    1690:	00000000 	unimp
    1694:	02090012 	0x12
    1698:	000108f4 	0x8f4
    169c:	00000000 	unimp
    16a0:	02090016 	0x16
    16a4:	00010900 	0x900
    16a8:	00000000 	unimp
    16ac:	0209001e 	0x1e
    16b0:	00010900 	0x900
    16b4:	00000000 	unimp
    16b8:	02090016 	0x16
    16bc:	00010908 	0x908
    16c0:	00000000 	unimp
    16c4:	0209001d 	0x1d
    16c8:	00010910 	0x910
    16cc:	00000000 	unimp
    16d0:	02090015 	0x15
    16d4:	00010914 	0x914
    16d8:	00000000 	unimp
    16dc:	02090016 	0x16
    16e0:	00010918 	0x918
    16e4:	00000000 	unimp
    16e8:	02090012 	0x12
    16ec:	00010920 	0x920
    16f0:	00000000 	unimp
    16f4:	02090016 	0x16
    16f8:	0001092c 	0x92c
    16fc:	00000000 	unimp
    1700:	0209001d 	0x1d
    1704:	00010934 	0x934
    1708:	00000000 	unimp
    170c:	02090015 	0x15
    1710:	00010938 	0x938
    1714:	00000000 	unimp
    1718:	02090016 	0x16
    171c:	0001093c 	0x93c
    1720:	00000000 	unimp
    1724:	02090012 	0x12
    1728:	00010944 	0x944
    172c:	00000000 	unimp
    1730:	02090016 	0x16
    1734:	00010950 	0x950
    1738:	00000000 	unimp
    173c:	0209001e 	0x1e
    1740:	00010954 	0x954
    1744:	00000000 	unimp
    1748:	02090016 	0x16
    174c:	00010958 	0x958
    1750:	00000000 	unimp
    1754:	02090012 	0x12
    1758:	0001095c 	0x95c
    175c:	00000000 	unimp
    1760:	02090016 	0x16
    1764:	00010960 	0x960
    1768:	00000000 	unimp
    176c:	02090015 	0x15
    1770:	0001096c 	0x96c
    1774:	00000000 	unimp
    1778:	02090001 	0x1
    177c:	00010978 	0x978
    1780:	00000000 	unimp
    1784:	02090015 	0x15
    1788:	00010988 	0x988
    178c:	00000000 	unimp
    1790:	02090027 	0x2090027
    1794:	00010988 	0x988
    1798:	00000000 	unimp
    179c:	02090017 	0x2090017
    17a0:	00010994 	0x994
    17a4:	00000000 	unimp
    17a8:	02090028 	0x28
    17ac:	000109a0 	0x9a0
    17b0:	00000000 	unimp
    17b4:	00017303 	lwu	zero,92(zero)
    17b8:	09a40209 	0x209
    17bc:	00000001 	0x1
    17c0:	00210000 	unimp
    17c4:	09a80209 	0x209
    17c8:	00000001 	0x1
    17cc:	74030000 	unimp
    17d0:	02090001 	0x1
    17d4:	000109b4 	0x9b4
    17d8:	00000000 	unimp
    17dc:	02090017 	0x2090017
    17e0:	000109bc 	0x9bc
    17e4:	00000000 	unimp
    17e8:	00017503 	lw	zero,93(zero)
    17ec:	09e80209 	0x209
    17f0:	00000001 	0x1
    17f4:	001b0000 	unimp
    17f8:	09ec0209 	0x209
    17fc:	00000001 	0x1
    1800:	00150000 	unimp
    1804:	09f80209 	0x209
    1808:	00000001 	0x1
    180c:	00170000 	unimp
    1810:	0a000209 	0x209
    1814:	00000001 	0x1
    1818:	001c0000 	unimp
    181c:	0a000209 	0x209
    1820:	00000001 	0x1
    1824:	00150000 	unimp
    1828:	0a080209 	0x209
    182c:	00000001 	0x1
    1830:	00160000 	unimp
    1834:	0a100209 	0x209
    1838:	00000001 	0x1
    183c:	001c0000 	unimp
    1840:	0a100209 	0x209
    1844:	00000001 	0x1
    1848:	00150000 	unimp
    184c:	0a180209 	0x209
    1850:	00000001 	0x1
    1854:	00160000 	unimp
    1858:	0a200209 	0x209
    185c:	00000001 	0x1
    1860:	001c0000 	unimp
    1864:	0a200209 	0x209
    1868:	00000001 	0x1
    186c:	00160000 	unimp
    1870:	0a280209 	0x209
    1874:	00000001 	0x1
    1878:	001c0000 	unimp
    187c:	0a280209 	0x209
    1880:	00000001 	0x1
    1884:	00160000 	unimp
    1888:	0a300209 	0x209
    188c:	00000001 	0x1
    1890:	001c0000 	unimp
    1894:	0a300209 	0x209
    1898:	00000001 	0x1
    189c:	00160000 	unimp
    18a0:	0a380209 	0x209
    18a4:	00000001 	0x1
    18a8:	001c0000 	unimp
    18ac:	0a380209 	0x209
    18b0:	00000001 	0x1
    18b4:	00160000 	unimp
    18b8:	0a400209 	0x209
    18bc:	00000001 	0x1
    18c0:	001c0000 	unimp
    18c4:	0a400209 	0x209
    18c8:	00000001 	0x1
    18cc:	00160000 	unimp
    18d0:	0a480209 	0x209
    18d4:	00000001 	0x1
    18d8:	001c0000 	unimp
    18dc:	0a480209 	0x209
    18e0:	00000001 	0x1
    18e4:	00010000 	unimp
    18e8:	0a600209 	0x209
    18ec:	00000001 	0x1
    18f0:	001c0000 	unimp
    18f4:	0a640209 	0x209
    18f8:	00000001 	0x1
    18fc:	001f0000 	unimp
    1900:	0a6c0209 	0x209
    1904:	00000001 	0x1
    1908:	00180000 	unimp
    190c:	0a740209 	0x209
    1910:	00000001 	0x1
    1914:	00100000 	unimp
    1918:	0a840209 	0x209
    191c:	00000001 	0x1
    1920:	00180000 	unimp
    1924:	0a880209 	0x209
    1928:	00000001 	0x1
    192c:	00160000 	unimp
    1930:	0a900209 	0x209
    1934:	00000001 	0x1
    1938:	00170000 	unimp
    193c:	0a980209 	0x209
    1940:	00000001 	0x1
    1944:	00150000 	unimp
    1948:	0a9c0209 	0x209
    194c:	00000001 	0x1
    1950:	00150000 	unimp
    1954:	0ab80209 	0x209
    1958:	00000001 	0x1
    195c:	000f0000 	unimp
    1960:	0abc0209 	0x209
    1964:	00000001 	0x1
    1968:	02040000 	unimp
    196c:	017d8c03 	lb	zero,-157(a1)
    1970:	c0020900 	0x900
    1974:	0000010a 	0x10a
    1978:	04000000 	unimp
    197c:	02f40301 	0x301
    1980:	02090001 	0x1
    1984:	00010ac4 	0xac4
    1988:	00000000 	unimp
    198c:	8d030204 	0x204
    1990:	0900017d 	0x17d
    1994:	010ac802 	0xc802
    1998:	00000000 	unimp
    199c:	09001500 	0x1500
    19a0:	010acc02 	0xcc02
    19a4:	00000000 	unimp
    19a8:	09001600 	0x1600
    19ac:	010ad002 	0xd002
    19b0:	00000000 	unimp
    19b4:	09001500 	0x1500
    19b8:	010ad402 	0xd402
    19bc:	00000000 	unimp
    19c0:	09001a00 	0x1a00
    19c4:	010ad802 	0xd802
    19c8:	00000000 	unimp
    19cc:	09001300 	0x1300
    19d0:	010adc02 	0xdc02
    19d4:	00000000 	unimp
    19d8:	47010400 	0x400
    19dc:	e4020900 	0x900
    19e0:	0000010a 	0x10a
    19e4:	03000000 	unimp
    19e8:	000102b8 	0x2b8
    19ec:	0ae80209 	0x209
    19f0:	00000001 	0x1
    19f4:	00130000 	unimp
    19f8:	0aec0209 	0x209
    19fc:	00000001 	0x1
    1a00:	00010000 	unimp
    1a04:	0af40209 	0x209
    1a08:	00000001 	0x1
    1a0c:	00130000 	unimp
    1a10:	0b040209 	0x209
    1a14:	00000001 	0x1
    1a18:	00220000 	unimp
    1a1c:	0b0c0209 	0x209
    1a20:	00000001 	0x1
    1a24:	02040000 	unimp
    1a28:	017cff03 	lwu	zero,-193(a1)
    1a2c:	10020900 	0x900
    1a30:	0000010b 	vlw	vzero,zero
    1a34:	15000000 	unimp
    1a38:	14020900 	0x900
    1a3c:	0000010b 	vlw	vzero,zero
    1a40:	15000000 	unimp
    1a44:	18020900 	0x900
    1a48:	0000010b 	vlw	vzero,zero
    1a4c:	16000000 	unimp
    1a50:	1c020900 	0x900
    1a54:	0000010b 	vlw	vzero,zero
    1a58:	15000000 	unimp
    1a5c:	20020900 	0x900
    1a60:	0000010b 	vlw	vzero,zero
    1a64:	04000000 	unimp
    1a68:	09004c01 	0x4c01
    1a6c:	010b3402 	0x3402
    1a70:	00000000 	unimp
    1a74:	01010000 	unimp

0000000000001a78 <$LELT0>:
    1a78:	000001fe 	0x1fe

0000000000001a7c <$LSLT0>:
    1a7c:	01c60002 	0x2
	...

0000000000001a82 <$LASLTP0>:
    1a82:	f5f60101 	0x101
    1a86:	0101000a 	0xa
    1a8a:	00000101 	0x101
    1a8e:	2e2e0100 	0x100
    1a92:	2f2e2e2f 	0x2f2e2e2f
    1a96:	2e2f2e2e 	0x2e2e
    1a9a:	2e2e2f2e 	0x2f2e
    1a9e:	6975622f 	0x6975622f
    1aa2:	672d646c 	0x646c
    1aa6:	6e2d6363 	bltu	s4,s2,2856 <$Ldebug_info0+0x48>
    1aaa:	696c7765 	0x7765
    1aae:	72732d62 	0x2d62
    1ab2:	656e2f63 	bltu	s1,s3,26c8 <$LLST2+0x4fb>
    1ab6:	62696c77 	0x62696c77
    1aba:	62696c2f 	0x62696c2f
    1abe:	72652f63 	bltu	a5,t6,2954 <$Ldebug_info0+0x146>
    1ac2:	006f6e72 	0x6e72
    1ac6:	6d6f682f 	0x6d6f682f
    1aca:	7a6d2f65 	0x2f65
    1ace:	656d6d69 	0x6d69
    1ad2:	65722f72 	0x2f72
    1ad6:	72616573 	0x72616573
    1ada:	732f6863 	beq	t0,s3,298e <$Ldebug_info0+0x180>
    1ade:	62646e61 	0x6e61
    1ae2:	722f786f 	jal	1c8d8c2 <_end+0x1c7c366>
    1ae6:	76637369 	0x7369
    1aea:	6363672d 	0x672d
    1aee:	6173692d 	0x692d
    1af2:	2f6d6973 	0x2f6d6973
    1af6:	63736972 	0x6972
    1afa:	63672d76 	0x2d76
    1afe:	75622f63 	bltu	s1,t5,2914 <$Ldebug_info0+0x106>
    1b02:	2d646c69 	0x6c69
    1b06:	2d636367 	j	b5a892 <_end+0xb49336>
    1b0a:	6c77656e 	0x656e
    1b0e:	732d6269 	0x6269
    1b12:	6e2f6372 	0x6372
    1b16:	696c7765 	0x7765
    1b1a:	696c2f62 	0x2f62
    1b1e:	692f6362 	0x6362
    1b22:	756c636e 	0x636e
    1b26:	732f6564 	0x6564
    1b2a:	2f007379 	0x7379
    1b2e:	656d6f68 	0x6f68
    1b32:	697a6d2f 	0x697a6d2f
    1b36:	72656d6d 	0x6d6d
    1b3a:	7365722f 	0x7365722f
    1b3e:	63726165 	0x6165
    1b42:	61732f68 	0x2f68
    1b46:	6f62646e 	0x646e
    1b4a:	69722f78 	0x2f78
    1b4e:	2d766373 	0x2d766373
    1b52:	2d636367 	j	b5a8de <_end+0xb49382>
    1b56:	73617369 	0x7369
    1b5a:	722f6d69 	0x6d69
    1b5e:	76637369 	0x7369
    1b62:	6363672d 	0x672d
    1b66:	6975622f 	0x6975622f
    1b6a:	672d646c 	0x646c
    1b6e:	6e2d6363 	bltu	s4,s2,291e <$Ldebug_info0+0x110>
    1b72:	696c7765 	0x7765
    1b76:	2f2e2f62 	0x2f62
    1b7a:	2f636367 	j	bda906 <_end+0xbc93aa>
    1b7e:	6c636e69 	0x6e69
    1b82:	00656475 	0x6475
    1b86:	6d6f682f 	0x6d6f682f
    1b8a:	7a6d2f65 	0x2f65
    1b8e:	656d6d69 	0x6d69
    1b92:	65722f72 	0x2f72
    1b96:	72616573 	0x72616573
    1b9a:	732f6863 	beq	t0,s3,2a4e <$Ldebug_info0+0x240>
    1b9e:	62646e61 	0x6e61
    1ba2:	722f786f 	jal	1c8d982 <_end+0x1c7c426>
    1ba6:	76637369 	0x7369
    1baa:	6363672d 	0x672d
    1bae:	6173692d 	0x692d
    1bb2:	2f6d6973 	0x2f6d6973
    1bb6:	63736972 	0x6972
    1bba:	63672d76 	0x2d76
    1bbe:	75622f63 	bltu	s1,t5,29d4 <$Ldebug_info0+0x1c6>
    1bc2:	2d646c69 	0x6c69
    1bc6:	2d636367 	j	b5a952 <_end+0xb493f6>
    1bca:	6c77656e 	0x656e
    1bce:	722f6269 	0x6269
    1bd2:	76637369 	0x7369
    1bd6:	666c652d 	0x652d
    1bda:	77656e2f 	0x77656e2f
    1bde:	2f62696c 	0x696c
    1be2:	67726174 	0x6174
    1be6:	636e692d 	0x692d
    1bea:	6564756c 	0x756c
    1bee:	63616d2f 	0x63616d2f
    1bf2:	656e6968 	0x6968
    1bf6:	72650000 	unimp
    1bfa:	2e6f6e72 	0x6e72
    1bfe:	00010063 	b	1c7e <$LSLT0>
    1c02:	79745f00 	0x5f00
    1c06:	2e736570 	0x6570
    1c0a:	00040068 	0x68
    1c0e:	636f6c00 	0x6c00
    1c12:	00682e6b 	0x682e6b
    1c16:	73000002 	0x2
    1c1a:	65646474 	0x6474
    1c1e:	00682e66 	0x2e66
    1c22:	5f000003 	lb	a7,0(s8)
    1c26:	65707974 	0x7974
    1c2a:	00682e73 	0x682e73
    1c2e:	72000002 	0x2
    1c32:	746e6565 	0x6565
    1c36:	0200682e 	0x682e
    1c3a:	72650000 	unimp
    1c3e:	2e6f6e72 	0x6e72
    1c42:	00020068 	0x68
	...

0000000000001c48 <$LELTP0>:
    1c48:	34020900 	0x900
    1c4c:	0000010b 	vlw	vzero,zero
    1c50:	1f000000 	unimp
    1c54:	34020900 	0x900
    1c58:	0000010b 	vlw	vzero,zero
    1c5c:	15000000 	unimp
    1c60:	38020900 	0x900
    1c64:	0000010b 	vlw	vzero,zero
    1c68:	15000000 	unimp
    1c6c:	40020900 	0x900
    1c70:	0000010b 	vlw	vzero,zero
    1c74:	00000000 	unimp
    1c78:	020b0101 	0x101

0000000000001c7a <$LELT0>:
    1c7a:	0000020b 	vlbu	vzero,zero

0000000000001c7e <$LSLT0>:
    1c7e:	013d0002 	0x2
	...

0000000000001c84 <$LASLTP0>:
    1c84:	f5f60101 	0x101
    1c88:	0101000a 	0xa
    1c8c:	00000101 	0x101
    1c90:	2e2e0100 	0x100
    1c94:	2f2e2e2f 	0x2f2e2e2f
    1c98:	2e2f2e2e 	0x2e2e
    1c9c:	2e2e2f2e 	0x2f2e
    1ca0:	2f2e2e2f 	0x2f2e2e2f
    1ca4:	6c697562 	0x7562
    1ca8:	63672d64 	0x2d64
    1cac:	656e2d63 	0x656e2d63
    1cb0:	62696c77 	0x62696c77
    1cb4:	6372732d 	0x732d
    1cb8:	77656e2f 	0x77656e2f
    1cbc:	2f62696c 	0x696c
    1cc0:	6362696c 	0x696c
    1cc4:	63616d2f 	0x63616d2f
    1cc8:	656e6968 	0x6968
    1ccc:	7369722f 	0x7369722f
    1cd0:	2f007663 	bltz	s8,220a <$LLST2+0x3d>
    1cd4:	656d6f68 	0x6f68
    1cd8:	697a6d2f 	0x697a6d2f
    1cdc:	72656d6d 	0x6d6d
    1ce0:	7365722f 	0x7365722f
    1ce4:	63726165 	0x6165
    1ce8:	61732f68 	0x2f68
    1cec:	6f62646e 	0x646e
    1cf0:	69722f78 	0x2f78
    1cf4:	2d766373 	0x2d766373
    1cf8:	2d636367 	j	b5aa84 <_end+0xb49528>
    1cfc:	73617369 	0x7369
    1d00:	722f6d69 	0x6d69
    1d04:	76637369 	0x7369
    1d08:	6363672d 	0x672d
    1d0c:	6975622f 	0x6975622f
    1d10:	672d646c 	0x646c
    1d14:	6e2d6363 	bltu	s4,s2,2ac4 <$Ldebug_info0+0x2b6>
    1d18:	696c7765 	0x7765
    1d1c:	72732d62 	0x2d62
    1d20:	656e2f63 	bltu	s1,s3,2936 <$Ldebug_info0+0x128>
    1d24:	62696c77 	0x62696c77
    1d28:	62696c2f 	0x62696c2f
    1d2c:	6e692f63 	bltu	s5,s0,2ac2 <$Ldebug_info0+0x2b4>
    1d30:	64756c63 	beq	t5,s6,29e6 <$Ldebug_info0+0x1d8>
    1d34:	682f0065 	0x65
    1d38:	2f656d6f 	jal	bdb2ec <_end+0xbc9d90>
    1d3c:	6d697a6d 	0x7a6d
    1d40:	2f72656d 	0x656d
    1d44:	65736572 	0x6572
    1d48:	68637261 	0x7261
    1d4c:	6e61732f 	0x6e61732f
    1d50:	786f6264 	0x6264
    1d54:	7369722f 	0x7369722f
    1d58:	672d7663 	blt	s8,s2,2a12 <$Ldebug_info0+0x204>
    1d5c:	692d6363 	bltu	a0,s2,2b0c <$Ldebug_info0+0x2fe>
    1d60:	69736173 	0x69736173
    1d64:	69722f6d 	0x2f6d
    1d68:	2d766373 	0x2d766373
    1d6c:	2f636367 	j	bdaaf8 <_end+0xbc959c>
    1d70:	6c697562 	0x7562
    1d74:	63672d64 	0x2d64
    1d78:	656e2d63 	0x656e2d63
    1d7c:	62696c77 	0x62696c77
    1d80:	672f2e2f 	0x672f2e2f
    1d84:	692f6363 	bltu	a0,s3,2b34 <$Ldebug_info0+0x326>
    1d88:	756c636e 	0x636e
    1d8c:	00006564 	0x6564
    1d90:	6c727473 	0x6c727473
    1d94:	632e6e65 	0x6e65
    1d98:	00000100 	0x100
    1d9c:	64647473 	0x64647473
    1da0:	682e6665 	0x6665
    1da4:	00000300 	0x300
    1da8:	69647473 	0x69647473
    1dac:	682e746e 	0x746e
    1db0:	00000200 	0x200
    1db4:	69727473 	0x69727473
    1db8:	682e676e 	0x676e
    1dbc:	00000200 	0x200
	...

0000000000001dc1 <$LELTP0>:
    1dc1:	40020900 	0x900
    1dc5:	0000010b 	vlw	vzero,zero
    1dc9:	29000000 	unimp
    1dcd:	40020900 	0x900
    1dd1:	0000010b 	vlw	vzero,zero
    1dd5:	18000000 	unimp
    1dd9:	4c020900 	0x900
    1ddd:	0000010b 	vlw	vzero,zero
    1de1:	03000000 	unimp
    1de5:	09000173 	vfmvv	vf1,vf4
    1de9:	010b5402 	0x5402
    1ded:	00000000 	unimp
    1df1:	09002e00 	0x2e00
    1df5:	010b5802 	0x5802
    1df9:	00000000 	unimp
    1dfd:	01670300 	0x300
    1e01:	60020900 	0x900
    1e05:	0000010b 	vlw	vzero,zero
    1e09:	2d000000 	unimp
    1e0d:	7c020900 	0x900
    1e11:	0000010b 	vlw	vzero,zero
    1e15:	15000000 	unimp
    1e19:	80020900 	0x900
    1e1d:	0000010b 	vlw	vzero,zero
    1e21:	13000000 	unimp
    1e25:	98020900 	0x900
    1e29:	0000010b 	vlw	vzero,zero
    1e2d:	19000000 	unimp
    1e31:	a4020900 	0x900
    1e35:	0000010b 	vlw	vzero,zero
    1e39:	18000000 	unimp
    1e3d:	a8020900 	0x900
    1e41:	0000010b 	vlw	vzero,zero
    1e45:	15000000 	unimp
    1e49:	b0020900 	0x900
    1e4d:	0000010b 	vlw	vzero,zero
    1e51:	03000000 	unimp
    1e55:	0900016b 	jalr.j	a0
    1e59:	010bb802 	0xb802
    1e5d:	00000000 	unimp
    1e61:	09001600 	0x1600
    1e65:	010bbc02 	0xbc02
    1e69:	00000000 	unimp
    1e6d:	09001500 	0x1500
    1e71:	010bc002 	0xc002
    1e75:	00000000 	unimp
    1e79:	09001500 	0x1500
    1e7d:	010bc802 	0xc802
    1e81:	00000000 	unimp
    1e85:	01010000 	unimp

Disassembly of section .debug_str:

0000000000000000 <$LASF15>:
   0:	676e6f6c 	0x6f6c
   4:	6e6f6c20 	0x6c20

0000000000000005 <$LASF0>:
   5:	676e6f6c 	0x6f6c
   9:	746e6920 	0x6920
	...

000000000000000e <$LASF3>:
   e:	726f6873 	0x726f6873
  12:	6e752074 	0x2074
  16:	6e676973 	0x6e676973
  1a:	69206465 	0x6465
  1e:	5f00746e 	0x746e

0000000000000021 <$LASF125>:
  21:	74615f5f 	0x74615f5f
  25:	74697865 	0x7865
  29:	7079745f 	0x7079745f
  2d:	2f007365 	0x7365

0000000000000030 <$LASF118>:
  30:	6d6f682f 	0x6d6f682f
  34:	7a6d2f65 	0x2f65
  38:	656d6d69 	0x6d69
  3c:	65722f72 	0x2f72
  40:	72616573 	0x72616573
  44:	732f6863 	beq	t0,s3,ef8 <$LLST60+0x13>
  48:	62646e61 	0x6e61
  4c:	722f786f 	jal	1c8be2c <_end+0x1c7a8d0>
  50:	76637369 	0x7369
  54:	6363672d 	0x672d
  58:	6173692d 	0x692d
  5c:	2f6d6973 	0x2f6d6973
  60:	63736972 	0x6972
  64:	63672d76 	0x2d76
  68:	75622f63 	bltu	s1,t5,e7e <$LLST58+0x13>
  6c:	2d646c69 	0x6c69
  70:	2d636367 	j	b58dfc <_end+0xb478a0>
  74:	6c77656e 	0x656e
  78:	722f6269 	0x6269
  7c:	76637369 	0x7369
  80:	666c652d 	0x652d
  84:	77656e2f 	0x77656e2f
  88:	2f62696c 	0x696c
  8c:	6362696c 	0x696c
  90:	6474732f 	0x6474732f
  94:	0062696c 	0x696c

0000000000000098 <$LASF7>:
  98:	676e6f6c 	0x6f6c
  9c:	6e6f6c20 	0x6c20

000000000000009d <$LASF0>:
  9d:	676e6f6c 	0x6f6c
  a1:	736e7520 	0x7520

00000000000000a2 <$LASF4>:
  a2:	69736e75 	0x6e75
  a6:	64656e67 	j	191965e <_end+0x1908102>
  aa:	746e6920 	0x6920
	...

00000000000000af <$LASF1>:
  af:	69736e75 	0x6e75

00000000000000b1 <$LASF0>:
  b1:	6e676973 	0x6e676973
  b5:	63206465 	0x6465

00000000000000b8 <$LASF17>:
  b8:	72616863 	beq	a5,t4,f6c <$LLST63+0x1e>
	...

00000000000000bd <$LASF10>:
  bd:	74655f5f 	0x74655f5f

00000000000000c1 <$LASF39>:
  c1:	6574615f 	0x6574615f

00000000000000c2 <$LASF17>:
  c2:	78657461 	0x7461
  c6:	47007469 	0x7469

00000000000000c9 <$LASF107>:
  c9:	20554e47 	fmsub.s	fa0,ft1,fa6,fs0
  cd:	2e342043 	fmadd.s	fa1,fs4,fs6,fv0,rne
  d1:	00312e36 	0x2e36

00000000000000d5 <$LASF11>:
  d5:	74655f5f 	0x74655f5f
  d9:	656e6f5f 	0x656e6f5f
  dd:	00746978 	0x6978

00000000000000e1 <$LASF117>:
  e1:	74655f5f 	0x74655f5f
  e5:	6178635f 	0x6178635f
	...

00000000000000ea <$LASF2>:
  ea:	726f6873 	0x726f6873
  ee:	6e692074 	0x2074
  f2:	2e2e0074 	0x74

00000000000000f4 <$LASF14>:
  f4:	2e2f2e2e 	0x2e2e
  f8:	2e2e2f2e 	0x2f2e
  fc:	2f2e2e2f 	0x2f2e2e2f
 100:	622f2e2e 	0x2e2e
 104:	646c6975 	0x6975
 108:	6363672d 	0x672d
 10c:	77656e2d 	0x6e2d
 110:	2d62696c 	0x696c
 114:	2f637273 	0x2f637273
 118:	6c77656e 	0x656e
 11c:	6c2f6269 	0x6269
 120:	2f636269 	0x6269
 124:	6c647473 	0x6c647473
 128:	612f6269 	0x6269
 12c:	69786574 	0x6574
 130:	00632e74 	0x2e74

0000000000000134 <$LASF36>:
 134:	6f73645f 	0x6f73645f
 138:	6e61685f 	0x6e61685f
 13c:	00656c64 	0x6c64

0000000000000140 <$LASF89>:
 140:	6e61725f 	0x6e61725f
 144:	00383464 	0x3464

0000000000000148 <$LASF68>:
 148:	656d655f 	0x656d655f
 14c:	6e656772 	0x6772
 150:	5f007963 	0x5f007963

0000000000000153 <$LASF109>:
 153:	7263775f 	0x7263775f
 157:	626d6f74 	0x6f74
 15b:	6174735f 	0x6174735f
 15f:	5f006574 	0x6574

0000000000000162 <$LASF110>:
 162:	7363775f 	0x7363775f
 166:	6d6f7472 	0x7472
 16a:	735f7362 	0x7362
 16e:	65746174 	0x6174
	...

0000000000000173 <$LASF117>:
 173:	2e2f2e2e 	0x2e2e
 177:	2e2e2f2e 	0x2f2e
 17b:	2f2e2e2f 	0x2f2e2e2f
 17f:	622f2e2e 	0x2e2e
 183:	646c6975 	0x6975
 187:	6363672d 	0x672d
 18b:	77656e2d 	0x6e2d
 18f:	2d62696c 	0x696c
 193:	2f637273 	0x2f637273
 197:	6c77656e 	0x656e
 19b:	6c2f6269 	0x6269
 19f:	2f636269 	0x6269
 1a3:	6c647473 	0x6c647473
 1a7:	652f6269 	0x6269
 1ab:	2e746978 	0x6978
 1af:	6c5f0063 	beq	t5,t3,f2f <$LLST62+0x4>

00000000000001b1 <$LASF48>:
 1b1:	66626c5f 	0x66626c5f
 1b5:	657a6973 	0x657a6973
	...

00000000000001ba <$LASF107>:
 1ba:	72626d5f 	0x72626d5f
 1be:	63776f74 	0x6f74
 1c2:	6174735f 	0x6174735f
 1c6:	5f006574 	0x6574

00000000000001c9 <$LASF102>:
 1c9:	7463775f 	0x7463775f
 1cd:	5f626d6f 	jal	17d8b81 <_end+0x17c7625>
 1d1:	74617473 	0x74617473
 1d5:	5f5f0065 	0x65

00000000000001d7 <$LASF25>:
 1d7:	6d745f5f 	0x6d745f5f
 1db:	6365735f 	0x6365735f
	...

00000000000001e0 <$LASF54>:
 1e0:	7562755f 	0x7562755f
 1e4:	625f0066 	0x66

00000000000001e6 <$LASF43>:
 1e6:	7361625f 	0x7361625f
 1ea:	5f5f0065 	0x65

00000000000001ec <$LASF27>:
 1ec:	6d745f5f 	0x6d745f5f
 1f0:	756f685f 	0x756f685f
 1f4:	5f5f0072 	0x72

00000000000001f6 <$LASF83>:
 1f6:	66735f5f 	0x66735f5f
	...

00000000000001fb <$LASF34>:
 1fb:	5f6e6f5f 	0x5f6e6f5f
 1ff:	74697865 	0x7865
 203:	6772615f 	0x6772615f

0000000000000204 <$LASF117>:
 204:	73677261 	0x7261
	...

0000000000000209 <$LASF49>:
 209:	6f6f635f 	0x6f6f635f
 20d:	0065696b 	jr	ra,-1702

0000000000000211 <$LASF82>:
 211:	67735f5f 	0x67735f5f
 215:	0065756c 	0x756c

0000000000000219 <$LASF46>:
 219:	616c665f 	0x616c665f

000000000000021a <$LASF68>:
 21a:	67616c66 	0x6c66
 21e:	695f0073 	0x695f0073

0000000000000220 <$LASF38>:
 220:	5f73695f 	0x5f73695f
 224:	00617863 	beq	ra,t4,2e0 <$LASF95+0x8>

0000000000000228 <$LASF64>:
 228:	6474735f 	0x6474735f
 22c:	5f006e69 	0x6e69

000000000000022f <$LASF78>:
 22f:	7476635f 	0x7476635f
 233:	00667562 	0x7562

0000000000000237 <$LASF57>:
 237:	66666f5f 	0x66666f5f
 23b:	00746573 	0x746573

000000000000023f <$LASF108>:
 23f:	73626d5f 	0x73626d5f
 243:	776f7472 	0x7472
 247:	735f7363 	bltu	t1,t3,10ff <$LLST72+0x10>
 24b:	65746174 	0x6174
	...

0000000000000250 <$LASF106>:
 250:	72626d5f 	0x72626d5f
 254:	5f6e656c 	0x656c
 258:	74617473 	0x74617473
 25c:	665f0065 	0x65

000000000000025e <$LASF35>:
 25e:	616e665f 	0x616e665f
 262:	00736772 	0x6772

0000000000000266 <$LASF41>:
 266:	736e665f 	0x736e665f
	...

000000000000026b <$LASF21>:
 26b:	6769735f 	0x6769735f
 26f:	665f006e 	0x6e

0000000000000271 <$LASF17>:
 271:	6f6c665f 	0x6f6c665f
 275:	745f6b63 	bltu	t5,t3,1129 <$LLST73+0x4>
	...

000000000000027a <$LASF66>:
 27a:	6474735f 	0x6474735f
 27e:	00727265 	0x7265

0000000000000282 <$LASF23>:
 282:	6769425f 	0x6769425f
 286:	00746e69 	0x6e69

000000000000028a <$LASF50>:
 28a:	6165725f 	0x6165725f

000000000000028b <$LASF73>:
 28b:	64616572 	0x6572
	...

0000000000000290 <$LASF74>:
 290:	7365725f 	0x7365725f
 294:	5f746c75 	0x6c75
 298:	5f5f006b 	jalr	a7,s9,1984

000000000000029a <$LASF24>:
 29a:	6d745f5f 	0x6d745f5f
	...

000000000000029f <$LASF13>:
 29f:	63775f5f 	0x63775f5f
 2a3:	5f006268 	0x6268

00000000000002a6 <$LASF65>:
 2a6:	6474735f 	0x6474735f
 2aa:	0074756f 	jal	1d47e <_end+0xbf22>

00000000000002ae <$LASF77>:
 2ae:	7476635f 	0x7476635f
 2b2:	006e656c 	0x656c

00000000000002b6 <$LASF47>:
 2b6:	6c69665f 	0x6c69665f

00000000000002b7 <$LASF72>:
 2b7:	656c6966 	0x6966
	...

00000000000002bc <$LASF87>:
 2bc:	6f696e5f 	0x6f696e5f
 2c0:	5f007362 	0x7362

00000000000002c3 <$LASF80>:
 2c3:	6574615f 	0x6574615f
 2c7:	30746978 	0x6978
	...

00000000000002cc <$LASF104>:
 2cc:	6769735f 	0x6769735f
 2d0:	5f6c616e 	0x616e
 2d4:	00667562 	0x7562

00000000000002d8 <$LASF95>:
 2d8:	6373615f 	0x6373615f
 2dc:	656d6974 	0x6974
 2e0:	6675625f 	0x6675625f
	...

00000000000002e5 <$LASF73>:
 2e5:	7365725f 	0x7365725f

00000000000002e6 <$LASF0>:
 2e6:	75736572 	0x6572
 2ea:	5f00746c 	0x746c

00000000000002ed <$LASF12>:
 2ed:	63775f5f 	0x63775f5f
 2f1:	69770068 	0x68

00000000000002f3 <$LASF11>:
 2f3:	746e6977 	0x746e6977
 2f7:	5f00745f 	0x5f00745f

00000000000002fa <$LASF59>:
 2fa:	636f6c5f 	0x636f6c5f

00000000000002fb <$LASF120>:
 2fb:	6b636f6c 	0x6f6c
	...

0000000000000300 <$LASF61>:
 300:	616c665f 	0x616c665f
 304:	00327367 	j	ccd0 <$Ldebug_info0+0x85bc>

0000000000000308 <$LASF51>:
 308:	6972775f 	0x6972775f

0000000000000309 <$LASF74>:
 309:	74697277 	0x74697277
 30d:	5f5f0065 	0x65

000000000000030f <$LASF30>:
 30f:	6d745f5f 	0x6d745f5f
 313:	6165795f 	0x6165795f
 317:	6e5f0072 	0x72

0000000000000319 <$LASF112>:
 319:	78656e5f 	0x78656e5f
 31d:	5f006674 	0x6674

0000000000000320 <$LASF29>:
 320:	6d745f5f 	0x6d745f5f
 324:	6e6f6d5f 	0x6e6f6d5f
	...

0000000000000329 <$LASF71>:
 329:	64735f5f 	0x64735f5f
 32d:	6e696469 	0x6469
 331:	5f007469 	0x7469

0000000000000334 <$LASF97>:
 334:	6d61675f 	0x6d61675f
 338:	735f616d 	0x616d
 33c:	676e6769 	0x6769
 340:	5f006d61 	0x6d61

0000000000000343 <$LASF76>:
 343:	6572665f 	0x6572665f
 347:	73696c65 	0x6c65
 34b:	4c5f0074 	0x74

000000000000034d <$LASF10>:
 34d:	434f4c5f 	0x434f4c5f
 351:	45525f4b 	0x45525f4b
 355:	53525543 	0x53525543
 359:	5f455649 	0x5649
 35d:	6e5f0054 	0x54

000000000000035f <$LASF79>:
 35f:	77656e5f 	0x77656e5f
	...

0000000000000364 <$LASF111>:
 364:	655f685f 	0x655f685f
 368:	6f6e7272 	0x7272
	...

000000000000036d <$LASF32>:
 36d:	6d745f5f 	0x6d745f5f
 371:	6164795f 	0x6164795f
 375:	5f5f0079 	0x79

0000000000000377 <$LASF42>:
 377:	62735f5f 	0x62735f5f
 37b:	5f006675 	0x6675

000000000000037e <$LASF88>:
 37e:	626f695f 	0x626f695f
 382:	5f5f0073 	0x5f5f0073

0000000000000384 <$LASF85>:
 384:	49465f5f 	0x49465f5f
 388:	5f00454c 	0x454c

000000000000038b <$LASF16>:
 38b:	73626d5f 	0x73626d5f
 38f:	65746174 	0x6174
 393:	5f00745f 	0x5f00745f

0000000000000396 <$LASF45>:
 396:	46735f5f 	0x46735f5f
 39a:	00454c49 	0x4c49

000000000000039e <$LASF60>:
 39e:	73626d5f 	0x73626d5f
 3a2:	65746174 	0x6174
	...

00000000000003a7 <$LASF98>:
 3a7:	6e61725f 	0x6e61725f
 3ab:	656e5f64 	0x5f64

00000000000003ac <$LASF19>:
 3ac:	78656e5f 	0x78656e5f
 3b0:	6d5f0074 	0x74

00000000000003b2 <$LASF100>:
 3b2:	6c626d5f 	0x6c626d5f
 3b6:	735f6e65 	0x6e65
 3ba:	65746174 	0x6174
	...

00000000000003bf <$LASF67>:
 3bf:	636e695f 	0x636e695f
	...

00000000000003c4 <$LASF40>:
 3c4:	646e695f 	0x646e695f
	...

00000000000003c9 <$LASF70>:
 3c9:	7275635f 	0x7275635f
 3cd:	746e6572 	0x6572
 3d1:	636f6c5f 	0x636f6c5f
 3d5:	00656c61 	0x6c61

00000000000003d9 <$LASF72>:
 3d9:	6c635f5f 	0x6c635f5f
 3dd:	756e6165 	0x6165
 3e1:	6d5f0070 	0x70

00000000000003e3 <$LASF20>:
 3e3:	78616d5f 	0x78616d5f
 3e7:	00736477 	0x736477

00000000000003eb <$LASF62>:
 3eb:	6565725f 	0x6565725f
 3ef:	5f00746e 	0x746e

00000000000003f2 <$LASF90>:
 3f2:	6565735f 	0x6565735f
 3f6:	5f5f0064 	0x64

00000000000003f8 <$LASF14>:
 3f8:	6f635f5f 	0x6f635f5f
 3fc:	00746e75 	0x6e75

0000000000000400 <$LASF15>:
 400:	61765f5f 	0x61765f5f
 404:	0065756c 	0x756c

0000000000000408 <$LASF52>:
 408:	6565735f 	0x6565735f
 40c:	665f006b 	jalr	t0,s5,1984

000000000000040e <$LASF9>:
 40e:	6f70665f 	0x6f70665f
 412:	00745f73 	0x745f73

0000000000000416 <$LASF26>:
 416:	6d745f5f 	0x6d745f5f
 41a:	6e696d5f 	0x6e696d5f
	...

000000000000041f <$LASF91>:
 41f:	6c756d5f 	0x6c756d5f
 423:	735f0074 	0x74

0000000000000425 <$LASF94>:
 425:	7274735f 	0x7274735f
 429:	5f6b6f74 	0x6f74
 42d:	7473616c 	0x616c
	...

0000000000000432 <$LASF37>:
 432:	746e665f 	0x746e665f
 436:	73657079 	0x7079
	...

000000000000043b <$LASF92>:
 43b:	6464615f 	0x6464615f
	...

0000000000000440 <$LASF18>:
 440:	4c555f5f 	0x4c555f5f
 444:	00676e6f 	jal	1a1fc <_end+0x8ca0>

0000000000000448 <$LASF105>:
 448:	7465675f 	0x7465675f
 44c:	65746164 	0x6164
 450:	7272655f 	0x7272655f
	...

0000000000000455 <$LASF115>:
 455:	6f6c675f 	0x6f6c675f
 459:	5f6c6162 	0x6162

000000000000045c <$LASF115>:
 45c:	706d695f 	0x706d695f
 460:	5f657275 	0x7275
 464:	00727470 	0x7470

0000000000000468 <$LASF69>:
 468:	7275635f 	0x7275635f
 46c:	746e6572 	0x6572
 470:	7461635f 	0x7461635f
 474:	726f6765 	0x6765
 478:	6f630079 	0x79

000000000000047a <$LASF115>:
 47a:	65646f63 	bltu	s1,t6,10b0 <$LLST70+0x2f>
	...

000000000000047f <$LASF93>:
 47f:	756e755f 	0x756e755f
 483:	5f646573 	0x5f646573
 487:	646e6172 	0x6172
	...

000000000000048c <$LASF22>:
 48c:	7364775f 	0x7364775f
	...

0000000000000491 <$LASF31>:
 491:	6d745f5f 	0x6d745f5f
 495:	6164775f 	0x6164775f
 499:	675f0079 	0x79

000000000000049b <$LASF86>:
 49b:	756c675f 	0x756c675f
 49f:	6e5f0065 	0x65

00000000000004a1 <$LASF113>:
 4a1:	616d6e5f 	0x616d6e5f
 4a5:	636f6c6c 	0x6c6c
	...

00000000000004aa <$LASF103>:
 4aa:	34366c5f 	0x34366c5f
 4ae:	75625f61 	0x5f61
 4b2:	735f0066 	0x66

00000000000004b4 <$LASF81>:
 4b4:	6769735f 	0x6769735f
 4b8:	6e75665f 	0x6e75665f
 4bc:	6e5f0063 	beq	s5,t3,123c <$LLST82+0x11>

00000000000004be <$LASF55>:
 4be:	75626e5f 	0x75626e5f
 4c2:	755f0066 	0x66

00000000000004c4 <$LASF114>:
 4c4:	756e755f 	0x756e755f
 4c8:	00646573 	0x646573

00000000000004cc <$LASF33>:
 4cc:	6d745f5f 	0x6d745f5f
 4d0:	6473695f 	0x6473695f
 4d4:	5f007473 	0x5f007473

00000000000004d7 <$LASF96>:
 4d7:	636f6c5f 	0x636f6c5f
 4db:	69746c61 	0x6c61
 4df:	625f656d 	0x656d
 4e3:	5f006675 	0x6675

00000000000004e6 <$LASF53>:
 4e6:	6f6c635f 	0x6f6c635f

00000000000004e7 <$LASF77>:
 4e7:	736f6c63 	beq	t1,s3,139d <$LLST89+0x17>
 4eb:	725f0065 	0x65

00000000000004ed <$LASF99>:
 4ed:	3834725f 	0x3834725f
	...

00000000000004f2 <$LASF101>:
 4f2:	74626d5f 	0x74626d5f
 4f6:	5f63776f 	jal	17d92d2 <_end+0x17c7d76>
 4fa:	74617473 	0x74617473
 4fe:	705f0065 	0x65

0000000000000500 <$LASF75>:
 500:	7335705f 	0x7335705f
	...

0000000000000505 <$LASF28>:
 505:	6d745f5f 	0x6d745f5f
 509:	61646d5f 	0x61646d5f
 50d:	6d690079 	0x79

000000000000050f <$LASF120>:
 50f:	75706d69 	0x6d69
 513:	645f6572 	0x6572

0000000000000515 <$LASF58>:
 515:	7461645f 	0x7461645f
 519:	682f0061 	0x61

000000000000051b <$LASF119>:
 51b:	6d6f682f 	0x6d6f682f
 51f:	7a6d2f65 	0x2f65
 523:	656d6d69 	0x6d69
 527:	65722f72 	0x2f72
 52b:	72616573 	0x72616573
 52f:	732f6863 	beq	t0,s3,13e3 <$LLST90+0x27>
 533:	62646e61 	0x6e61
 537:	722f786f 	jal	1c8c317 <_end+0x1c7adbb>
 53b:	76637369 	0x7369
 53f:	6363672d 	0x672d
 543:	6173692d 	0x692d
 547:	2f6d6973 	0x2f6d6973
 54b:	63736972 	0x6972
 54f:	63672d76 	0x2d76
 553:	75622f63 	bltu	s1,t5,1369 <$LLST88+0x1b>
 557:	2d646c69 	0x6c69
 55b:	2d636367 	j	b592e7 <_end+0xb47d8b>
 55f:	6c77656e 	0x656e
 563:	722f6269 	0x6269
 567:	76637369 	0x7369
 56b:	666c652d 	0x652d
 56f:	77656e2f 	0x77656e2f
 573:	2f62696c 	0x696c
 577:	6362696c 	0x696c
 57b:	6565722f 	0x6565722f
 57f:	2e00746e 	0x746e

0000000000000582 <$LASF118>:
 582:	2e2f2e2e 	0x2e2e
 586:	2e2e2f2e 	0x2f2e
 58a:	2f2e2e2f 	0x2f2e2e2f
 58e:	622f2e2e 	0x2e2e
 592:	646c6975 	0x6975
 596:	6363672d 	0x672d
 59a:	77656e2d 	0x6e2d
 59e:	2d62696c 	0x696c
 5a2:	2f637273 	0x2f637273
 5a6:	6c77656e 	0x656e
 5aa:	6c2f6269 	0x6269
 5ae:	2f636269 	0x6269
 5b2:	6e656572 	0x6572
 5b6:	6d692f74 	0x2f74
 5ba:	65727570 	0x7570
 5be:	2e00632e 	0x632e

00000000000005c1 <$LASF123>:
 5c1:	2e2f2e2e 	0x2e2e
 5c5:	2e2e2f2e 	0x2f2e
 5c9:	2f2e2e2f 	0x2f2e2e2f
 5cd:	622f2e2e 	0x2e2e
 5d1:	646c6975 	0x6975
 5d5:	6363672d 	0x672d
 5d9:	77656e2d 	0x6e2d
 5dd:	2d62696c 	0x696c
 5e1:	2f637273 	0x2f637273
 5e5:	6c77656e 	0x656e
 5e9:	6c2f6269 	0x6269
 5ed:	2f636269 	0x6269
 5f1:	6c647473 	0x6c647473
 5f5:	5f2f6269 	0x6269
 5f9:	6574615f 	0x6574615f
 5fd:	2e746978 	0x6978
 601:	79740063 	beq	a1,s6,1501 <$LLST101+0x1c>

0000000000000603 <$LASF118>:
 603:	65707974 	0x7974
	...

0000000000000608 <$LASF126>:
 608:	65725f5f 	0x65725f5f
 60c:	74736967 	j	1d1d3b0 <_end+0x1d0be54>
 610:	655f7265 	0x7265
 614:	70746978 	0x6978
 618:	00636f72 	0x6f72

000000000000061c <$LASF120>:
 61c:	2e2f2e2e 	0x2e2e
 620:	2e2e2f2e 	0x2f2e
 624:	2f2e2e2f 	0x2f2e2e2f
 628:	622f2e2e 	0x2e2e
 62c:	646c6975 	0x6975
 630:	6363672d 	0x672d
 634:	77656e2d 	0x6e2d
 638:	2d62696c 	0x696c
 63c:	2f637273 	0x2f637273
 640:	6c77656e 	0x656e
 644:	6c2f6269 	0x6269
 648:	2f636269 	0x6269
 64c:	6c647473 	0x6c647473
 650:	5f2f6269 	0x6269
 654:	6c61635f 	0x6c61635f
 658:	74615f6c 	0x5f6c
 65c:	74697865 	0x7865
 660:	5f00632e 	0x632e

0000000000000663 <$LASF122>:
 663:	61635f5f 	0x61635f5f
 667:	655f6c6c 	0x6c6c
 66b:	70746978 	0x6978
 66f:	73636f72 	0x6f72
	...

0000000000000674 <$LASF116>:
 674:	7473616c 	0x616c
 678:	65720070 	0x70

000000000000067a <$LASF123>:
 67a:	74736572 	0x6572

000000000000067c <$LASF12>:
 67c:	72617473 	0x72617473
 680:	5f5f0074 	0x74

0000000000000682 <$LASF12>:
 682:	69675f5f 	0x69675f5f

0000000000000684 <$LASF25>:
 684:	5f646967 	j	17d9828 <_end+0x17c82cc>
 688:	5f5f0074 	0x74

000000000000068a <$LASF65>:
 68a:	6e695f5f 	0x6e695f5f
 68e:	6e726574 	0x6574
 692:	735f6c61 	0x6c61
 696:	61637379 	0x7379
 69a:	63006c6c 	0x6c6c

000000000000069d <$LASF94>:
 69d:	776f6863 	beq	s9,s3,1551 <$LLST103+0x11>
 6a1:	6170006e 	0x6e

00000000000006a3 <$LASF93>:
 6a3:	68746170 	0x6170
	...

00000000000006a8 <$LASF41>:
 6a8:	625f7473 	0x625f7473
 6ac:	6b636f6c 	0x6f6c
 6b0:	79730073 	0x79730073

00000000000006b2 <$LASF9>:
 6b2:	72737973 	0x72737973
 6b6:	745f7465 	0x7465
	...

00000000000006bb <$LASF52>:
 6bb:	5f736d74 	0x6d74
 6bf:	69747563 	0x69747563
 6c3:	6400656d 	0x656d

00000000000006c6 <$LASF61>:
 6c6:	66747364 	0x7364
 6ca:	0067616c 	0x616c

00000000000006ce <$LASF86>:
 6ce:	6c6c696b 	jalr.j	t1,t5,-1254
	...

00000000000006d3 <$LASF111>:
 6d3:	6978655f 	0x6978655f

00000000000006d4 <$LASF119>:
 6d4:	74697865 	0x7865
	...

00000000000006d9 <$LASF32>:
 6d9:	695f7473 	0x695f7473
 6dd:	5f006f6e 	0x6f6e

00000000000006e0 <$LASF66>:
 6e0:	79735f5f 	0x79735f5f
 6e4:	6c616373 	0x6c616373
 6e8:	72655f6c 	0x5f6c
 6ec:	006f6e72 	0x6e72

00000000000006f0 <$LASF87>:
 6f0:	74696177 	0x74696177
	...

00000000000006f5 <$LASF96>:
 6f5:	756f7267 	j	1d5c4bd <_end+0x1d4af61>
 6f9:	79730070 	0x70

00000000000006fb <$LASF101>:
 6fb:	63737973 	0x63737973
 6ff:	00666e6f 	jal	1a0b7 <_end+0x8b5b>

0000000000000703 <$LASF51>:
 703:	5f736d74 	0x6d74
 707:	6d697473 	0x6d697473
 70b:	78650065 	0x65

000000000000070d <$LASF82>:
 70d:	63657865 	0x7865
 711:	63006576 	0x6576

0000000000000714 <$LASF98>:
 714:	69646863 	beq	a1,t6,1448 <$LLST95+0x12>
 718:	6f660072 	0x72

000000000000071a <$LASF84>:
 71a:	6b726f66 	0x6f66
	...

000000000000071f <$LASF29>:
 71f:	6e696c6e 	0x6c6e
 723:	00745f6b 	0x745f6b

0000000000000727 <$LASF37>:
 727:	61705f5f 	0x61705f5f
 72b:	63003064 	0x3064

000000000000072e <$LASF20>:
 72e:	636f6c63 	beq	t1,s3,13e4 <$LLST90+0x28>
 732:	00745f6b 	0x745f6b

0000000000000736 <$LASF60>:
 736:	656d6974 	0x6974
 73a:	656e6f7a 	0x6f7a
	...

000000000000073f <$LASF59>:
 73f:	6c6c696d 	0x696d
 743:	006d7469 	0x7469

0000000000000747 <$LASF30>:
 747:	65737573 	0x65737573
 74b:	646e6f63 	bltu	t5,s3,1381 <$LLST88+0x33>
 74f:	00745f73 	0x745f73

0000000000000753 <$LASF10>:
 753:	65645f5f 	0x65645f5f

0000000000000755 <$LASF23>:
 755:	5f766564 	0x6564
 759:	74730074 	0x74

000000000000075b <$LASF35>:
 75b:	755f7473 	0x755f7473
 75f:	73006469 	0x6469

0000000000000762 <$LASF43>:
 762:	735f7473 	0x735f7473
 766:	65726170 	0x6170
 76a:	74730031 	0x31

000000000000076c <$LASF45>:
 76c:	735f7473 	0x735f7473
 770:	65726170 	0x6170
 774:	74730032 	0x32

0000000000000776 <$LASF47>:
 776:	735f7473 	0x735f7473
 77a:	65726170 	0x6170
 77e:	68630033 	sub	t1,ra,t5

0000000000000780 <$LASF97>:
 780:	6f6d6863 	beq	s9,s2,1534 <$LLST102+0x17>
 784:	74660064 	0x64

0000000000000786 <$LASF92>:
 786:	6d697466 	0x7466
 78a:	74750065 	0x65

000000000000078c <$LASF62>:
 78c:	6d697475 	0x7475
 790:	00667562 	0x7562

0000000000000794 <$LASF71>:
 794:	6565736c 	0x736c
 798:	6567006b 	jalr	t0,s1,-1600

000000000000079a <$LASF110>:
 79a:	74746567 	j	1d1d92e <_end+0x1d0c3d2>
 79e:	6f656d69 	0x6d69
 7a2:	79616466 	0x6466
	...

00000000000007a7 <$LASF42>:
 7a7:	615f7473 	0x615f7473

00000000000007ab <$LASF58>:
 7ab:	656d6974 	0x6974
	...

00000000000007b0 <$LASF54>:
 7b0:	656d6974 	0x6974
 7b4:	006c6176 	0x6176

00000000000007b8 <$LASF39>:
 7b8:	735f7473 	0x735f7473

00000000000007ba <$LASF44>:
 7ba:	7a69735f 	0x7a69735f

00000000000007bb <$LASF100>:
 7bb:	657a6973 	0x657a6973
	...

00000000000007c0 <$LASF19>:
 7c0:	64727470 	0x7470
 7c4:	5f666669 	0x6669
 7c8:	736c0074 	0x74

00000000000007ca <$LASF76>:
 7ca:	6174736c 	0x736c
 7ce:	74730074 	0x74

00000000000007d0 <$LASF34>:
 7d0:	6d5f7473 	0x6d5f7473

00000000000007d3 <$LASF69>:
 7d3:	65646f6d 	0x6f6d
	...

00000000000007d8 <$LASF89>:
 7d8:	74617369 	0x7369
 7dc:	75007974 	0x7974

00000000000007df <$LASF81>:
 7df:	696c6e75 	0x6e75
 7e3:	6f006b6e 	0x6b6e

00000000000007e6 <$LASF70>:
 7e6:	6e65706f 	jal	1b99da6 <_end+0x1b8884a>
	...

00000000000007eb <$LASF55>:
 7eb:	735f7674 	0x7674
 7ef:	5f006365 	0x6365

00000000000007f2 <$LASF13>:
 7f2:	66666f5f 	0x66666f5f

00000000000007f3 <$LASF22>:
 7f3:	5f66666f 	jal	17da18b <_end+0x17c8c2f>
 7f7:	6c6f0074 	0x74

00000000000007f9 <$LASF79>:
 7f9:	5f646c6f 	jal	17d99a9 <_end+0x17c844d>

00000000000007fd <$LASF67>:
 7fd:	656d616e 	0x616e
	...

0000000000000802 <$LASF104>:
 802:	70616568 	0x6568

0000000000000806 <$LASF106>:
 806:	646e655f 	0x646e655f
	...

000000000000080b <$LASF14>:
 80b:	656d6974 	0x6974
 80f:	7300745f 	0x7300745f

0000000000000812 <$LASF102>:
 812:	6b726273 	0x6b726273
	...

0000000000000817 <$LASF33>:
 817:	6e5f7473 	0x6e5f7473

000000000000081b <$LASF78>:
 81b:	6b6e696c 	0x696c
	...

0000000000000820 <$LASF105>:
 820:	74697865 	0x7865
 824:	6174735f 	0x6174735f

0000000000000825 <$LASF88>:
 825:	74617473 	0x74617473
 829:	73007375 	0x7375

000000000000082c <$LASF40>:
 82c:	625f7473 	0x625f7473

000000000000082e <$LASF56>:
 82e:	6b6c625f 	0x6b6c625f
 832:	657a6973 	0x657a6973
	...

0000000000000837 <$LASF50>:
 837:	5f736d74 	0x6d74

000000000000083b <$LASF91>:
 83b:	6d697475 	0x7475
 83f:	74730065 	0x65

0000000000000841 <$LASF46>:
 841:	635f7473 	0x635f7473
 845:	656d6974 	0x6974
	...

000000000000084a <$LASF56>:
 84a:	755f7674 	0x7674
 84e:	00636573 	0x636573

0000000000000852 <$LASF95>:
 852:	656e776f 	jal	195c22e <_end+0x194acd2>
 856:	74730072 	0x72

0000000000000858 <$LASF38>:
 858:	725f7473 	0x725f7473
 85c:	00766564 	0x6564

0000000000000860 <$LASF64>:
 860:	74646f6d 	0x6f6d
 864:	00656d69 	0x6d69

0000000000000868 <$LASF85>:
 868:	70746567 	j	1c1d9fc <_end+0x1c0c4a0>
 86c:	5f006469 	0x6469

000000000000086f <$LASF11>:
 86f:	69755f5f 	0x69755f5f

0000000000000871 <$LASF24>:
 871:	5f646975 	0x6975
 875:	656e0074 	0x74

0000000000000877 <$LASF80>:
 877:	5f77656e 	0x656e
 87b:	656d616e 	0x616e
	...

0000000000000880 <$LASF36>:
 880:	675f7473 	0x675f7473
 884:	5f006469 	0x6469

0000000000000887 <$LASF48>:
 887:	61705f5f 	0x61705f5f
 88b:	74003164 	0x3164

000000000000088e <$LASF53>:
 88e:	5f736d74 	0x6d74
 892:	69747363 	bltu	a1,s6,15ca <$LLST105+0x10>
 896:	2e00656d 	0x656d

0000000000000899 <$LASF108>:
 899:	2e2f2e2e 	0x2e2e
 89d:	2e2e2f2e 	0x2f2e
 8a1:	2f2e2e2f 	0x2f2e2e2f
 8a5:	6c697562 	0x7562
 8a9:	63672d64 	0x2d64
 8ad:	656e2d63 	0x656e2d63
 8b1:	62696c77 	0x62696c77
 8b5:	6372732d 	0x732d
 8b9:	62696c2f 	0x62696c2f
 8bd:	736f6c67 	j	1cdc66d <_end+0x1ccb111>
 8c1:	69722f73 	0x69722f73
 8c5:	2f766373 	0x2f766373
 8c9:	63737973 	0x63737973
 8cd:	736c6c61 	0x6c61
 8d1:	7400632e 	0x632e

00000000000008d4 <$LASF57>:
 8d4:	656d6974 	0x6974
 8d8:	6f6d0062 	0x62

00000000000008da <$LASF28>:
 8da:	65646f6d 	0x6f6d
 8de:	7300745f 	0x7300745f

00000000000008e1 <$LASF31>:
 8e1:	645f7473 	0x645f7473
 8e5:	5f007665 	0x7665

00000000000008e8 <$LASF16>:
 8e8:	6973735f 	0x6973735f

00000000000008e9 <$LASF27>:
 8e9:	7a697373 	0x7a697373

00000000000008ea <$LASF10>:
 8ea:	657a6973 	0x657a6973
 8ee:	7300745f 	0x7300745f

00000000000008f1 <$LASF44>:
 8f1:	6d5f7473 	0x6d5f7473
 8f5:	656d6974 	0x6974
	...

00000000000008fa <$LASF90>:
 8fa:	656d6974 	0x6974
 8fe:	73660073 	0x73660073

0000000000000900 <$LASF75>:
 900:	61747366 	0x7366

0000000000000901 <$LASF49>:
 901:	74617473 	0x74617473
	...

0000000000000906 <$LASF26>:
 906:	5f646970 	0x6970
 90a:	682f0074 	0x74

000000000000090c <$LASF109>:
 90c:	6d6f682f 	0x6d6f682f
 910:	7a6d2f65 	0x2f65
 914:	656d6d69 	0x6d69
 918:	65722f72 	0x2f72
 91c:	72616573 	0x72616573
 920:	732f6863 	beq	t0,s3,17d4 <$LLST117+0xe>
 924:	62646e61 	0x6e61
 928:	722f786f 	jal	1c8c708 <_end+0x1c7b1ac>
 92c:	76637369 	0x7369
 930:	6363672d 	0x672d
 934:	6173692d 	0x692d
 938:	2f6d6973 	0x2f6d6973
 93c:	63736972 	0x6972
 940:	63672d76 	0x2d76
 944:	75622f63 	bltu	s1,t5,175a <$LLST115+0x2>
 948:	2d646c69 	0x6c69
 94c:	2d636367 	j	b596d8 <_end+0xb4817c>
 950:	6c77656e 	0x656e
 954:	722f6269 	0x6269
 958:	76637369 	0x7369
 95c:	666c652d 	0x652d
 960:	62696c2f 	0x62696c2f
 964:	736f6c67 	j	1cdc714 <_end+0x1ccb1b8>
 968:	69722f73 	0x69722f73
 96c:	00766373 	0x766373

0000000000000970 <$LASF63>:
 970:	69746361 	0x6361
 974:	6100656d 	0x656d

0000000000000977 <$LASF83>:
 977:	76677261 	0x7261
	...

000000000000097c <$LASF103>:
 97c:	72636e69 	0x6e69
	...

0000000000000981 <$LASF99>:
 981:	63746567 	j	18ddb15 <_end+0x18cc5b9>
 985:	69006477 	0x69006477

0000000000000988 <$LASF21>:
 988:	5f6f6e69 	0x6e69
 98c:	5f5f0074 	0x74

000000000000098e <$LASF119>:
 98e:	72655f5f 	0x72655f5f

000000000000098f <$LASF63>:
 98f:	7272655f 	0x7272655f
 993:	2e006f6e 	0x6f6e

0000000000000996 <$LASF117>:
 996:	2e2f2e2e 	0x2e2e
 99a:	2e2e2f2e 	0x2f2e
 99e:	2f2e2e2f 	0x2f2e2e2f
 9a2:	622f2e2e 	0x2e2e
 9a6:	646c6975 	0x6975
 9aa:	6363672d 	0x672d
 9ae:	77656e2d 	0x6e2d
 9b2:	2d62696c 	0x696c
 9b6:	2f637273 	0x2f637273
 9ba:	6c77656e 	0x656e
 9be:	6c2f6269 	0x6269
 9c2:	2f636269 	0x6269
 9c6:	6e727265 	0x7265
 9ca:	72652f6f 	jal	1c99e86 <_end+0x1c8892a>
 9ce:	2e6f6e72 	0x6e72
 9d2:	682f0063 	beq	zero,s3,1752 <$LLST114+0x32>

00000000000009d4 <$LASF118>:
 9d4:	6d6f682f 	0x6d6f682f
 9d8:	7a6d2f65 	0x2f65
 9dc:	656d6d69 	0x6d69
 9e0:	65722f72 	0x2f72
 9e4:	72616573 	0x72616573
 9e8:	732f6863 	beq	t0,s3,189c <$LLST125+0x16>
 9ec:	62646e61 	0x6e61
 9f0:	722f786f 	jal	1c8c7d0 <_end+0x1c7b274>
 9f4:	76637369 	0x7369
 9f8:	6363672d 	0x672d
 9fc:	6173692d 	0x692d
 a00:	2f6d6973 	0x2f6d6973
 a04:	63736972 	0x6972
 a08:	63672d76 	0x2d76
 a0c:	75622f63 	bltu	s1,t5,1822 <$LLST118+0x39>
 a10:	2d646c69 	0x6c69
 a14:	2d636367 	j	b597a0 <_end+0xb48244>
 a18:	6c77656e 	0x656e
 a1c:	722f6269 	0x6269
 a20:	76637369 	0x7369
 a24:	666c652d 	0x652d
 a28:	77656e2f 	0x77656e2f
 a2c:	2f62696c 	0x696c
 a30:	6362696c 	0x696c
 a34:	7272652f 	0x7272652f
 a38:	67006f6e 	0x6f6e

0000000000000a3b <$LASF16>:
 a3b:	44746567 	j	111dbcf <_end+0x110c673>
 a3f:	63657465 	0x7465
 a43:	6c754e74 	0x4e74
 a47:	6e6f436c 	0x436c
 a4b:	75007473 	0x75007473

0000000000000a4e <$LASF11>:
 a4e:	746e6975 	0x6975
 a52:	5f727470 	0x7470
 a56:	682f0074 	0x74

0000000000000a58 <$LASF15>:
 a58:	6d6f682f 	0x6d6f682f
 a5c:	7a6d2f65 	0x2f65
 a60:	656d6d69 	0x6d69
 a64:	65722f72 	0x2f72
 a68:	72616573 	0x72616573
 a6c:	732f6863 	beq	t0,s3,1920 <$LLST130+0xe>
 a70:	62646e61 	0x6e61
 a74:	722f786f 	jal	1c8c854 <_end+0x1c7b2f8>
 a78:	76637369 	0x7369
 a7c:	6363672d 	0x672d
 a80:	6173692d 	0x692d
 a84:	2f6d6973 	0x2f6d6973
 a88:	63736972 	0x6972
 a8c:	63672d76 	0x2d76
 a90:	75622f63 	bltu	s1,t5,18a6 <$LLST125+0x20>
 a94:	2d646c69 	0x6c69
 a98:	2d636367 	j	b59824 <_end+0xb482c8>
 a9c:	6c77656e 	0x656e
 aa0:	722f6269 	0x6269
 aa4:	76637369 	0x7369
 aa8:	666c652d 	0x652d
 aac:	77656e2f 	0x77656e2f
 ab0:	2f62696c 	0x696c
 ab4:	6362696c 	0x696c
 ab8:	63616d2f 	0x63616d2f
 abc:	656e6968 	0x6968
 ac0:	7369722f 	0x7369722f
 ac4:	73007663 	bltz	t0,18fe <$LLST128+0xf>

0000000000000ac7 <$LASF17>:
 ac7:	6c727473 	0x6c727473
 acb:	2e006e65 	0x6e65

0000000000000ace <$LASF14>:
 ace:	2e2f2e2e 	0x2e2e
 ad2:	2e2e2f2e 	0x2f2e
 ad6:	2f2e2e2f 	0x2f2e2e2f
 ada:	2e2f2e2e 	0x2e2e
 ade:	75622f2e 	0x2f2e
 ae2:	2d646c69 	0x6c69
 ae6:	2d636367 	j	b59872 <_end+0xb48316>
 aea:	6c77656e 	0x656e
 aee:	732d6269 	0x6269
 af2:	6e2f6372 	0x6372
 af6:	696c7765 	0x7765
 afa:	696c2f62 	0x2f62
 afe:	6d2f6362 	0x6362
 b02:	69686361 	0x6361
 b06:	722f656e 	0x656e
 b0a:	76637369 	0x7369
 b0e:	7274732f 	0x7274732f
 b12:	2e6e656c 	0x656c
 b16:	Address 0x0000000000000b16 is out of bounds.


Disassembly of section .debug_frame:

0000000000000000 <.debug_frame>:
   0:	0000000c 	0xc
   4:	ffffffff 	0xffffffff
   8:	7c010001 	0x1
   c:	001e0d01 	0xd01
  10:	00000014 	0x14
  14:	00000000 	unimp
  18:	00010240 	0x240
  1c:	00000000 	unimp
  20:	00000014 	0x14
  24:	00000000 	unimp
  28:	0000000c 	0xc
  2c:	ffffffff 	0xffffffff
  30:	7c010001 	0x1
  34:	001e0d01 	0xd01
  38:	0000001c 	0x1c
  3c:	00000028 	0x28
  40:	00010254 	0x254
  44:	00000000 	unimp
  48:	00000034 	0x34
  4c:	00000000 	unimp
  50:	50100e44 	0xe44
  54:	02940481 	0x481
  58:	0000000c 	0xc
  5c:	ffffffff 	0xffffffff
  60:	7c010001 	0x1
  64:	001e0d01 	0xd01
  68:	00000024 	0x24
  6c:	00000058 	0x58
  70:	00010288 	0x288
  74:	00000000 	unimp
  78:	00000134 	0x134
  7c:	00000000 	unimp
  80:	4c400e44 	0xe44
  84:	81540694 	0x694
  88:	95029608 	0x9608
  8c:	00000004 	0x4
  90:	0000000c 	0xc
  94:	ffffffff 	0xffffffff
  98:	7c010001 	0x1
  9c:	001e0d01 	0xd01
  a0:	00000034 	0x34
  a4:	00000090 	0x90
  a8:	000103bc 	0x3bc
  ac:	00000000 	unimp
  b0:	00000190 	0x190
  b4:	00000000 	unimp
  b8:	4c500e44 	0xe44
  bc:	8168049b 	0x8168049b
  c0:	95129414 	0x9414
  c4:	990a9810 	0x9810
  c8:	970e9608 	0x9608
  cc:	9d069a0c 	0x9a0c
  d0:	00000002 	0x2
  d4:	00000000 	unimp
  d8:	0000000c 	0xc
  dc:	ffffffff 	0xffffffff
  e0:	7c010001 	0x1
  e4:	001e0d01 	0xd01
  e8:	00000024 	0x24
  ec:	000000d8 	0xd8
  f0:	0001054c 	0x54c
  f4:	00000000 	unimp
  f8:	0000006c 	0x6c
  fc:	00000000 	unimp
 100:	50200e44 	0xe44
 104:	04950694 	0x694
 108:	814c0296 	0x296
 10c:	00000008 	0x8
 110:	00000024 	0x24
 114:	000000d8 	0xd8
 118:	000105b8 	0x5b8
 11c:	00000000 	unimp
 120:	00000044 	0x44
 124:	00000000 	unimp
 128:	5c200e44 	0xe44
 12c:	04940681 	0x681
 130:	00000295 	0x295
 134:	00000000 	unimp
 138:	00000024 	0x24
 13c:	000000d8 	0xd8
 140:	000105fc 	0x5fc
 144:	00000000 	unimp
 148:	00000048 	0x48
 14c:	00000000 	unimp
 150:	5c200e44 	0xe44
 154:	04940681 	0x681
 158:	00000295 	0x295
 15c:	00000000 	unimp
 160:	00000024 	0x24
 164:	000000d8 	0xd8
 168:	00010644 	0x644
 16c:	00000000 	unimp
 170:	00000048 	0x48
 174:	00000000 	unimp
 178:	5c200e44 	0xe44
 17c:	04940681 	0x681
 180:	00000295 	0x295
 184:	00000000 	unimp
 188:	00000024 	0x24
 18c:	000000d8 	0xd8
 190:	0001068c 	0x68c
 194:	00000000 	unimp
 198:	0000004c 	0x4c
 19c:	00000000 	unimp
 1a0:	60200e44 	0xe44
 1a4:	04940681 	0x681
 1a8:	00000295 	0x295
 1ac:	00000000 	unimp
 1b0:	00000024 	0x24
 1b4:	000000d8 	0xd8
 1b8:	000106d8 	0x6d8
 1bc:	00000000 	unimp
 1c0:	00000060 	0x60
 1c4:	00000000 	unimp
 1c8:	4c200e44 	0xe44
 1cc:	02950494 	0x494
 1d0:	00068148 	0x8148
 1d4:	00000000 	unimp
 1d8:	00000024 	0x24
 1dc:	000000d8 	0xd8
 1e0:	00010738 	0x738
 1e4:	00000000 	unimp
 1e8:	00000060 	0x60
 1ec:	00000000 	unimp
 1f0:	4c200e44 	0xe44
 1f4:	02950494 	0x494
 1f8:	00068148 	0x8148
 1fc:	00000000 	unimp
 200:	00000024 	0x24
 204:	000000d8 	0xd8
 208:	00010798 	0x798
 20c:	00000000 	unimp
 210:	00000050 	0x50
 214:	00000000 	unimp
 218:	64200e44 	0xe44
 21c:	04940681 	0x681
 220:	00000295 	0x295
 224:	00000000 	unimp
 228:	00000024 	0x24
 22c:	000000d8 	0xd8
 230:	000107e8 	0x7e8
 234:	00000000 	unimp
 238:	00000074 	0x74
 23c:	00000000 	unimp
 240:	48200e44 	0xe44
 244:	954c0694 	0x694
 248:	44029604 	0x9604
 24c:	00000881 	0x881
 250:	00000024 	0x24
 254:	000000d8 	0xd8
 258:	0001085c 	0x85c
 25c:	00000000 	unimp
 260:	0000005c 	0x5c
 264:	00000000 	unimp
 268:	4c200e44 	0xe44
 26c:	04940295 	0x295
 270:	00068144 	0x8144
 274:	00000000 	unimp
 278:	0000001c 	0x1c
 27c:	000000d8 	0xd8
 280:	000108b8 	0x8b8
 284:	00000000 	unimp
 288:	00000024 	0x24
 28c:	00000000 	unimp
 290:	44100e44 	0xe44
 294:	00000281 	0x281
 298:	0000001c 	0x1c
 29c:	000000d8 	0xd8
 2a0:	000108dc 	0x8dc
 2a4:	00000000 	unimp
 2a8:	00000024 	0x24
 2ac:	00000000 	unimp
 2b0:	44100e44 	0xe44
 2b4:	00000281 	0x281
 2b8:	00000014 	0x14
 2bc:	000000d8 	0xd8
 2c0:	00010900 	0x900
 2c4:	00000000 	unimp
 2c8:	00000008 	0x8
 2cc:	00000000 	unimp
 2d0:	0000001c 	0x1c
 2d4:	000000d8 	0xd8
 2d8:	00010908 	0x908
 2dc:	00000000 	unimp
 2e0:	00000024 	0x24
 2e4:	00000000 	unimp
 2e8:	44100e44 	0xe44
 2ec:	00000281 	0x281
 2f0:	0000001c 	0x1c
 2f4:	000000d8 	0xd8
 2f8:	0001092c 	0x92c
 2fc:	00000000 	unimp
 300:	00000024 	0x24
 304:	00000000 	unimp
 308:	44100e44 	0xe44
 30c:	00000281 	0x281
 310:	0000001c 	0x1c
 314:	000000d8 	0xd8
 318:	00010950 	0x950
 31c:	00000000 	unimp
 320:	00000038 	0x38
 324:	00000000 	unimp
 328:	01a00e44 	0xe44
 32c:	00028148 	0x8148
 330:	00000014 	0x14
 334:	000000d8 	0xd8
 338:	00010988 	0x988
 33c:	00000000 	unimp
 340:	00000078 	0x78
 344:	00000000 	unimp
 348:	00000014 	0x14
 34c:	000000d8 	0xd8
 350:	00010a00 	0xa00
 354:	00000000 	unimp
 358:	00000010 	0x10
 35c:	00000000 	unimp
 360:	00000014 	0x14
 364:	000000d8 	0xd8
 368:	00010a10 	0xa10
 36c:	00000000 	unimp
 370:	00000010 	0x10
 374:	00000000 	unimp
 378:	00000014 	0x14
 37c:	000000d8 	0xd8
 380:	00010a20 	0xa20
 384:	00000000 	unimp
 388:	00000008 	0x8
 38c:	00000000 	unimp
 390:	00000014 	0x14
 394:	000000d8 	0xd8
 398:	00010a28 	0xa28
 39c:	00000000 	unimp
 3a0:	00000008 	0x8
 3a4:	00000000 	unimp
 3a8:	00000014 	0x14
 3ac:	000000d8 	0xd8
 3b0:	00010a30 	0xa30
 3b4:	00000000 	unimp
 3b8:	00000008 	0x8
 3bc:	00000000 	unimp
 3c0:	00000014 	0x14
 3c4:	000000d8 	0xd8
 3c8:	00010a38 	0xa38
 3cc:	00000000 	unimp
 3d0:	00000008 	0x8
 3d4:	00000000 	unimp
 3d8:	00000014 	0x14
 3dc:	000000d8 	0xd8
 3e0:	00010a40 	0xa40
 3e4:	00000000 	unimp
 3e8:	00000008 	0x8
 3ec:	00000000 	unimp
 3f0:	00000014 	0x14
 3f4:	000000d8 	0xd8
 3f8:	00010a48 	0xa48
 3fc:	00000000 	unimp
 400:	0000001c 	0x1c
 404:	00000000 	unimp
 408:	00000024 	0x24
 40c:	000000d8 	0xd8
 410:	00010a64 	0xa64
 414:	00000000 	unimp
 418:	000000a0 	0xa0
 41c:	00000000 	unimp
 420:	48300e44 	0xe44
 424:	81580695 	0x695
 428:	9608940a 	0x940a
 42c:	00029704 	0x9704
 430:	0000001c 	0x1c
 434:	000000d8 	0xd8
 438:	00010b04 	0xb04
 43c:	00000000 	unimp
 440:	00000030 	0x30
 444:	00000000 	unimp
 448:	5c200e44 	0xe44
 44c:	00000281 	0x281
 450:	0000000c 	0xc
 454:	ffffffff 	0xffffffff
 458:	7c010001 	0x1
 45c:	001e0d01 	0xd01
 460:	00000014 	0x14
 464:	00000450 	0x450
 468:	00010b34 	0xb34
 46c:	00000000 	unimp
 470:	0000000c 	0xc
 474:	00000000 	unimp
 478:	0000000c 	0xc
 47c:	ffffffff 	0xffffffff
 480:	7c010001 	0x1
 484:	001e0d01 	0xd01
 488:	00000014 	0x14
 48c:	00000478 	0x478
 490:	00010b40 	0xb40
 494:	00000000 	unimp
 498:	00000088 	0x88
 49c:	00000000 	unimp

Disassembly of section .debug_ranges:

0000000000000000 <$Ldebug_ranges0>:
   0:	0000003c 	0x3c
   4:	00000000 	unimp
   8:	00000040 	0x40
   c:	00000000 	unimp
  10:	00000060 	0x60
  14:	00000000 	unimp
  18:	00000078 	0x78
  1c:	00000000 	unimp
  20:	000000c0 	0xc0
  24:	00000000 	unimp
  28:	00000150 	0x150
	...

0000000000000040 <$Ldebug_ranges0>:
  40:	00000028 	0x28
  44:	00000000 	unimp
  48:	0000002c 	0x2c
  4c:	00000000 	unimp
  50:	00000034 	0x34
  54:	00000000 	unimp
  58:	00000048 	0x48
  5c:	00000000 	unimp
  60:	00000050 	0x50
  64:	00000000 	unimp
  68:	00000054 	0x54
	...
  80:	00000028 	0x28
  84:	00000000 	unimp
  88:	0000002c 	0x2c
  8c:	00000000 	unimp
  90:	00000034 	0x34
  94:	00000000 	unimp
  98:	00000048 	0x48
  9c:	00000000 	unimp
  a0:	00000050 	0x50
  a4:	00000000 	unimp
  a8:	00000054 	0x54
	...
  c0:	00000028 	0x28
  c4:	00000000 	unimp
  c8:	0000002c 	0x2c
  cc:	00000000 	unimp
  d0:	00000034 	0x34
  d4:	00000000 	unimp
  d8:	00000044 	0x44
	...
  f0:	00000028 	0x28
  f4:	00000000 	unimp
  f8:	0000002c 	0x2c
  fc:	00000000 	unimp
 100:	00000034 	0x34
 104:	00000000 	unimp
 108:	00000044 	0x44
	...
 120:	0000007c 	0x7c
 124:	00000000 	unimp
 128:	00000094 	0x94
 12c:	00000000 	unimp
 130:	00000098 	0x98
 134:	00000000 	unimp
 138:	0000009c 	0x9c
	...
 150:	0000007c 	0x7c
 154:	00000000 	unimp
 158:	00000094 	0x94
 15c:	00000000 	unimp
 160:	00000098 	0x98
 164:	00000000 	unimp
 168:	0000009c 	0x9c
	...
 180:	000000c0 	0xc0
 184:	00000000 	unimp
 188:	000000d8 	0xd8
 18c:	00000000 	unimp
 190:	000000e0 	0xe0
 194:	00000000 	unimp
 198:	000000e4 	0xe4
	...
 1b0:	000000c0 	0xc0
 1b4:	00000000 	unimp
 1b8:	000000d8 	0xd8
 1bc:	00000000 	unimp
 1c0:	000000e0 	0xe0
 1c4:	00000000 	unimp
 1c8:	000000e4 	0xe4
	...
 1e0:	00000108 	0x108
 1e4:	00000000 	unimp
 1e8:	00000120 	0x120
 1ec:	00000000 	unimp
 1f0:	00000128 	0x128
 1f4:	00000000 	unimp
 1f8:	0000012c 	0x12c
	...
 210:	00000108 	0x108
 214:	00000000 	unimp
 218:	00000120 	0x120
 21c:	00000000 	unimp
 220:	00000128 	0x128
 224:	00000000 	unimp
 228:	0000012c 	0x12c
	...
 240:	00000150 	0x150
 244:	00000000 	unimp
 248:	0000016c 	0x16c
 24c:	00000000 	unimp
 250:	00000174 	0x174
 254:	00000000 	unimp
 258:	00000178 	0x178
	...
 270:	00000150 	0x150
 274:	00000000 	unimp
 278:	0000016c 	0x16c
 27c:	00000000 	unimp
 280:	00000174 	0x174
 284:	00000000 	unimp
 288:	00000178 	0x178
	...
 2a0:	000001ac 	0x1ac
 2a4:	00000000 	unimp
 2a8:	000001cc 	0x1cc
 2ac:	00000000 	unimp
 2b0:	000001d4 	0x1d4
 2b4:	00000000 	unimp
 2b8:	000001d8 	0x1d8
	...
 2d0:	000001ac 	0x1ac
 2d4:	00000000 	unimp
 2d8:	000001cc 	0x1cc
 2dc:	00000000 	unimp
 2e0:	000001d4 	0x1d4
 2e4:	00000000 	unimp
 2e8:	000001d8 	0x1d8
	...
 300:	0000020c 	0x20c
 304:	00000000 	unimp
 308:	0000022c 	0x22c
 30c:	00000000 	unimp
 310:	00000234 	0x234
 314:	00000000 	unimp
 318:	00000238 	0x238
	...
 330:	0000020c 	0x20c
 334:	00000000 	unimp
 338:	0000022c 	0x22c
 33c:	00000000 	unimp
 340:	00000234 	0x234
 344:	00000000 	unimp
 348:	00000238 	0x238
	...
 360:	0000025c 	0x25c
 364:	00000000 	unimp
 368:	0000027c 	0x27c
 36c:	00000000 	unimp
 370:	00000284 	0x284
 374:	00000000 	unimp
 378:	00000288 	0x288
	...
 390:	0000025c 	0x25c
 394:	00000000 	unimp
 398:	0000027c 	0x27c
 39c:	00000000 	unimp
 3a0:	00000284 	0x284
 3a4:	00000000 	unimp
 3a8:	00000288 	0x288
	...
 3c0:	000002cc 	0x2cc
 3c4:	00000000 	unimp
 3c8:	000002d0 	0x2d0
 3cc:	00000000 	unimp
 3d0:	000002d4 	0x2d4
 3d4:	00000000 	unimp
 3d8:	000002ec 	0x2ec
 3dc:	00000000 	unimp
 3e0:	000002f4 	0x2f4
 3e4:	00000000 	unimp
 3e8:	000002f8 	0x2f8
	...
 400:	000002cc 	0x2cc
 404:	00000000 	unimp
 408:	000002d0 	0x2d0
 40c:	00000000 	unimp
 410:	000002d4 	0x2d4
 414:	00000000 	unimp
 418:	000002ec 	0x2ec
 41c:	00000000 	unimp
 420:	000002f4 	0x2f4
 424:	00000000 	unimp
 428:	000002f8 	0x2f8
	...
 440:	000002cc 	0x2cc
 444:	00000000 	unimp
 448:	000002d0 	0x2d0
 44c:	00000000 	unimp
 450:	000002d4 	0x2d4
 454:	00000000 	unimp
 458:	000002e8 	0x2e8
	...
 470:	000002cc 	0x2cc
 474:	00000000 	unimp
 478:	000002d0 	0x2d0
 47c:	00000000 	unimp
 480:	000002d4 	0x2d4
 484:	00000000 	unimp
 488:	000002e8 	0x2e8
	...
 4a0:	0000032c 	0x32c
 4a4:	00000000 	unimp
 4a8:	0000034c 	0x34c
 4ac:	00000000 	unimp
 4b0:	00000354 	0x354
 4b4:	00000000 	unimp
 4b8:	00000358 	0x358
	...
 4d0:	0000032c 	0x32c
 4d4:	00000000 	unimp
 4d8:	0000034c 	0x34c
 4dc:	00000000 	unimp
 4e0:	00000354 	0x354
 4e4:	00000000 	unimp
 4e8:	00000358 	0x358
	...
 500:	00000448 	0x448
 504:	00000000 	unimp
 508:	00000454 	0x454
 50c:	00000000 	unimp
 510:	00000458 	0x458
 514:	00000000 	unimp
 518:	0000045c 	0x45c
	...
 530:	00000570 	0x570
 534:	00000000 	unimp
 538:	00000574 	0x574
 53c:	00000000 	unimp
 540:	00000578 	0x578
 544:	00000000 	unimp
 548:	00000598 	0x598
	...
 560:	00000570 	0x570
 564:	00000000 	unimp
 568:	00000574 	0x574
 56c:	00000000 	unimp
 570:	00000578 	0x578
 574:	00000000 	unimp
 578:	00000598 	0x598
	...
 590:	00000570 	0x570
 594:	00000000 	unimp
 598:	00000574 	0x574
 59c:	00000000 	unimp
 5a0:	00000578 	0x578
 5a4:	00000000 	unimp
 5a8:	00000590 	0x590
	...
 5c0:	00000570 	0x570
 5c4:	00000000 	unimp
 5c8:	00000574 	0x574
 5cc:	00000000 	unimp
 5d0:	00000578 	0x578
 5d4:	00000000 	unimp
 5d8:	00000590 	0x590
	...

00000000000005f0 <$Ldebug_ranges0>:
 5f0:	0000000c 	0xc
 5f4:	00000000 	unimp
 5f8:	00000014 	0x14
 5fc:	00000000 	unimp
 600:	00000018 	0x18
 604:	00000000 	unimp
 608:	00000020 	0x20
	...
 620:	0000000c 	0xc
 624:	00000000 	unimp
 628:	00000014 	0x14
 62c:	00000000 	unimp
 630:	00000018 	0x18
 634:	00000000 	unimp
 638:	00000020 	0x20
	...
