
bsort100.exe:     file format elf64-littleriscv


Disassembly of section .text:

0000000000010000 <_start>:
   10000:	f7bf0013 	add	sp,sp,-64
   10004:	0003056f 	jal	10c18 <_init>
   10008:	200008b7 	lui	a0,0x11
   1000c:	2130d013 	add	a0,a0,-972
   10010:	00008c6f 	jal	10240 <atexit>
   10014:	27810183 	ld	a0,64(sp)
   10018:	2f812013 	add	a1,sp,72
   1001c:	0002eb6f 	jal	10bc8 <main>
   10020:	20800013 	move	a0,v0
   10024:	00008c6f 	jal	10254 <exit>

0000000000010028 <__do_global_dtors_aux>:
   10028:	f7bf4013 	add	sp,sp,-48
   1002c:	07a841a3 	sd	s0,16(sp)
   10030:	a00008b7 	lui	s0,0x11
   10034:	15128203 	lbu	v0,1184(s0)
   10038:	07aea1a3 	sd	s3,40(sp)
   1003c:	07ac81a3 	sd	s2,32(sp)
   10040:	07aa61a3 	sd	s1,24(sp)
   10044:	078221a3 	sd	ra,8(sp)
   10048:	0080d8e3 	bnez	v0,100b4 <$L1>
   1004c:	b80008b7 	lui	s3,0x11
   10050:	b00008b7 	lui	s2,0x11
   10054:	a80008b7 	lui	s1,0x11
   10058:	bdf50013 	add	s3,s3,-704
   1005c:	b5b52013 	add	s2,s2,-696
   10060:	b5af0033 	sub	s2,s2,s3
   10064:	1552a183 	ld	v0,1192(s1)
   10068:	b5810e93 	sra	s2,s2,0x3
   1006c:	b5bffc13 	add	s2,s2,-1
   10070:	00ac4be3 	bleu	s2,v0,10094 <$L3>

0000000000010074 <$L6>:
   10074:	10800413 	add	v0,v0,1
   10078:	18800c93 	sll	v1,v0,0x3
   1007c:	1dc60033 	add	v1,s3,v1
   10080:	18c00183 	ld	v1,0(v1)
   10084:	4d44a1a3 	sd	v0,1192(s1)
   10088:	08c0006b 	jalr	v1
   1008c:	1552a183 	ld	v0,1192(s1)
   10090:	f8adcb63 	bltu	v0,s2,10074 <$L6>

0000000000010094 <$L3>:
   10094:	10000037 	lui	v0,0x0
   10098:	10800013 	move	v0,v0
   1009c:	00802063 	beqz	v0,100ac <$L5>
   100a0:	200008b7 	lui	a0,0x11
   100a4:	21354013 	add	a0,a0,-688
   100a8:	0000006f 	jal	100a8 <$L3+0x14>

00000000000100ac <$L5>:
   100ac:	10000413 	li	v0,1
   100b0:	4d048023 	sb	v0,1184(s0)

00000000000100b4 <$L1>:
   100b4:	0f802183 	ld	ra,8(sp)
   100b8:	bf80a183 	ld	s3,40(sp)
   100bc:	b7808183 	ld	s2,32(sp)
   100c0:	af806183 	ld	s1,24(sp)
   100c4:	a7804183 	ld	s0,16(sp)
   100c8:	f780c013 	add	sp,sp,48
   100cc:	004000eb 	ret

00000000000100d0 <call___do_global_dtors_aux>:
   100d0:	f7bfc013 	add	sp,sp,-16
   100d4:	078221a3 	sd	ra,8(sp)
   100d8:	0f802183 	ld	ra,8(sp)
   100dc:	f7804013 	add	sp,sp,16
   100e0:	004000eb 	ret

00000000000100e4 <frame_dummy>:
   100e4:	10000037 	lui	v0,0x0
   100e8:	f7bfc013 	add	sp,sp,-16
   100ec:	10800013 	move	v0,v0
   100f0:	078221a3 	sd	ra,8(sp)
   100f4:	00803063 	beqz	v0,1010c <$L11>
   100f8:	200008b7 	lui	a0,0x11
   100fc:	280008b7 	lui	a1,0x11
   10100:	21354013 	add	a0,a0,-688
   10104:	2952c013 	add	a1,a1,1200
   10108:	0000006f 	jal	10108 <frame_dummy+0x24>

000000000001010c <$L11>:
   1010c:	200008b7 	lui	a0,0x11
   10110:	11356183 	ld	v0,-680(a0)
   10114:	00804063 	beqz	v0,10134 <$L10>
   10118:	98000037 	lui	t7,0x0
   1011c:	9cc00013 	move	t7,t7
   10120:	04c02863 	beqz	t7,10134 <$L10>
   10124:	0f802183 	ld	ra,8(sp)
   10128:	21356013 	add	a0,a0,-680
   1012c:	f7804013 	add	sp,sp,16
   10130:	04c0016b 	jr	t7

0000000000010134 <$L10>:
   10134:	0f802183 	ld	ra,8(sp)
   10138:	f7804013 	add	sp,sp,16
   1013c:	004000eb 	ret

0000000000010140 <call_frame_dummy>:
   10140:	f7bfc013 	add	sp,sp,-16
   10144:	078221a3 	sd	ra,8(sp)
   10148:	0f802183 	ld	ra,8(sp)
   1014c:	f7804013 	add	sp,sp,16
   10150:	004000eb 	ret

0000000000010154 <Initialize>:
   10154:	100008b7 	lui	v0,0x11
   10158:	183ffc13 	li	v1,-1
   1015c:	50876123 	sw	v1,1368(v0)
   10160:	21001013 	add	a0,a0,4
   10164:	103ffc13 	li	v0,-1
   10168:	283fac13 	li	a1,-21

000000000001016c <$L2>:
   1016c:	18bffc1b 	addw	v1,v0,-1
   10170:	01040123 	sw	v0,0(a0)
   10174:	10c00013 	move	v0,v1
   10178:	21001013 	add	a0,a0,4
   1017c:	f8cbe0e3 	bne	v1,a1,1016c <$L2>
   10180:	004000eb 	ret

0000000000010184 <BubbleSort>:
   10184:	10004c13 	li	v0,19
   10188:	21001013 	add	a0,a0,4
   1018c:	50005013 	li	a6,20

0000000000010190 <$L6>:
   10190:	48800013 	move	a5,v0
   10194:	19000013 	move	v1,a0
   10198:	28000413 	li	a1,1
   1019c:	58000413 	li	a7,1

00000000000101a0 <$L9>:
   101a0:	3140041b 	addw	a2,a1,1
   101a4:	024a5263 	blt	a5,a1,101cc <$L7>
   101a8:	38c00103 	lw	a3,0(v1)
   101ac:	40c01103 	lw	a4,4(v1)
   101b0:	29800013 	move	a1,a2
   101b4:	020e22e3 	ble	a3,a4,101c4 <$L8>
   101b8:	00d00123 	sw	a4,0(v1)
   101bc:	00ce1123 	sw	a3,4(v1)
   101c0:	58000013 	li	a7,0

00000000000101c4 <$L8>:
   101c4:	18c01013 	add	v1,v1,4
   101c8:	f995b0e3 	bne	a2,a6,101a0 <$L9>

00000000000101cc <$L7>:
   101cc:	02c018e3 	bnez	a7,101d8 <$L5>
   101d0:	10bffc1b 	addw	v0,v0,-1
   101d4:	f88178e3 	bnez	v0,10190 <$L6>

00000000000101d8 <$L5>:
   101d8:	004000eb 	ret

00000000000101dc <__do_global_ctors_aux>:
   101dc:	f7bf8013 	add	sp,sp,-32
   101e0:	07a841a3 	sd	s0,16(sp)
   101e4:	a00008b7 	lui	s0,0x11
   101e8:	a534e013 	add	s0,s0,-712
   101ec:	153fe183 	ld	v0,-8(s0)
   101f0:	183ffc13 	li	v1,-1
   101f4:	07aa61a3 	sd	s1,24(sp)
   101f8:	078221a3 	sd	ra,8(sp)
   101fc:	00863863 	beq	v0,v1,10218 <$L1>
   10200:	a53fe013 	add	s0,s0,-8
   10204:	a83ffc13 	li	s1,-1

0000000000010208 <$L3>:
   10208:	a53fe013 	add	s0,s0,-8
   1020c:	0880006b 	jalr	v0
   10210:	15000183 	ld	v0,0(s0)
   10214:	f8abe8e3 	bne	v0,s1,10208 <$L3>

0000000000010218 <$L1>:
   10218:	0f802183 	ld	ra,8(sp)
   1021c:	af806183 	ld	s1,24(sp)
   10220:	a7804183 	ld	s0,16(sp)
   10224:	f7808013 	add	sp,sp,32
   10228:	004000eb 	ret

000000000001022c <call___do_global_ctors_aux>:
   1022c:	f7bfc013 	add	sp,sp,-16
   10230:	078221a3 	sd	ra,8(sp)
   10234:	0f802183 	ld	ra,8(sp)
   10238:	f7804013 	add	sp,sp,16
   1023c:	004000eb 	ret

0000000000010240 <atexit>:
   10240:	29000013 	move	a1,a0
   10244:	30000013 	li	a2,0
   10248:	20000013 	li	a0,0

000000000001024c <$LVL1>:
   1024c:	38000013 	li	a3,0
   10250:	00000e67 	j	10288 <__register_exitproc>

0000000000010254 <exit>:
   10254:	f7bfc013 	add	sp,sp,-16

0000000000010258 <$LCFI0>:
   10258:	28000013 	li	a1,0

000000000001025c <$LM3>:
   1025c:	07a821a3 	sd	s0,8(sp)
   10260:	078201a3 	sd	ra,0(sp)

0000000000010264 <$LM4>:
   10264:	a1000013 	move	s0,a0

0000000000010268 <$LM5>:
   10268:	0000556f 	jal	103bc <__call_exitprocs>

000000000001026c <$LM6>:
   1026c:	100008b7 	lui	v0,0x11
   10270:	20b3c183 	ld	a0,-784(v0)
   10274:	11016183 	ld	v0,88(a0)
   10278:	00801063 	beqz	v0,10280 <$L2>

000000000001027c <$LM7>:
   1027c:	0880006b 	jalr	v0

0000000000010280 <$L2>:
   10280:	25000013 	move	a0,s0
   10284:	0002206f 	jal	10b04 <_exit>

0000000000010288 <__register_exitproc>:
   10288:	f7bf0013 	add	sp,sp,-64

000000000001028c <$LCFI0>:
   1028c:	100008b7 	lui	v0,0x11

0000000000010290 <$LM3>:
   10290:	07a8a1a3 	sd	s0,40(sp)

0000000000010294 <$LM4>:
   10294:	a0b3c183 	ld	s0,-784(v0)

0000000000010298 <$LM5>:
   10298:	07aac1a3 	sd	s1,48(sp)
   1029c:	07ace1a3 	sd	s2,56(sp)

00000000000102a0 <$LM6>:
   102a0:	1d07e183 	ld	v1,504(s0)

00000000000102a4 <$LM7>:
   102a4:	078281a3 	sd	ra,32(sp)

00000000000102a8 <$LM8>:
   102a8:	a9000013 	move	s1,a0

00000000000102ac <$LM9>:
   102ac:	08c00863 	beqz	v1,103b0 <$L9>

00000000000102b0 <$L2>:
   102b0:	10c02103 	lw	v0,8(v1)
   102b4:	20808113 	slt	a0,v0,32

00000000000102b8 <$LVL3>:
   102b8:	0100e8e3 	bnez	a0,1032c <$L3>

00000000000102bc <$LM11>:
   102bc:	10000037 	lui	v0,0x0
   102c0:	10800013 	move	v0,v0

00000000000102c4 <$LM12>:
   102c4:	b03ffc13 	li	s2,-1

00000000000102c8 <$LM13>:
   102c8:	008040e3 	bnez	v0,102e8 <$L10>

00000000000102cc <$L4>:
   102cc:	0f808183 	ld	ra,32(sp)
   102d0:	15800013 	move	v0,s2
   102d4:	af80c183 	ld	s1,48(sp)
   102d8:	b780e183 	ld	s2,56(sp)
   102dc:	a780a183 	ld	s0,40(sp)
   102e0:	f7810013 	add	sp,sp,64
   102e4:	004000eb 	ret

00000000000102e8 <$L10>:
   102e8:	200c6013 	li	a0,792
   102ec:	078a01a3 	sd	a1,0(sp)
   102f0:	078c21a3 	sd	a2,8(sp)
   102f4:	078e41a3 	sd	a3,16(sp)
   102f8:	0000006f 	jal	102f8 <$L10+0x10>

00000000000102fc <$LVL6>:
   102fc:	18800013 	move	v1,v0

0000000000010300 <$LM16>:
   10300:	2f800183 	ld	a1,0(sp)
   10304:	37802183 	ld	a2,8(sp)
   10308:	3f804183 	ld	a3,16(sp)
   1030c:	f8818063 	beqz	v0,102cc <$L4>

0000000000010310 <$LM17>:
   10310:	2507e183 	ld	a0,504(s0)

0000000000010314 <$LM18>:
   10314:	00802123 	sw	zero,8(v0)

0000000000010318 <$LM19>:
   10318:	10000013 	li	v0,0

000000000001031c <$LM20>:
   1031c:	00c801a3 	sd	a0,0(v1)

0000000000010320 <$LM21>:
   10320:	1d07e1a3 	sd	v1,504(s0)

0000000000010324 <$LM22>:
   10324:	30c04123 	sw	zero,784(v1)

0000000000010328 <$LM23>:
   10328:	30c05123 	sw	zero,788(v1)

000000000001032c <$L3>:
   1032c:	05407863 	beqz	s1,10368 <$L5>

0000000000010330 <$LM25>:
   10330:	48cc4103 	lw	a5,784(v1)

0000000000010334 <$LM26>:
   10334:	40808013 	add	a4,v0,32

0000000000010338 <$LM27>:
   10338:	50800c93 	sll	a6,v0,0x3

000000000001033c <$LM28>:
   1033c:	20000413 	li	a0,1
   10340:	210400bb 	sllw	a0,a0,v0

0000000000010344 <$LM29>:
   10344:	42000c93 	sll	a4,a4,0x3

0000000000010348 <$LM30>:
   10348:	50d40033 	add	a6,v1,a6

000000000001034c <$LM31>:
   1034c:	4a480333 	or	a5,a5,a0

0000000000010350 <$LM32>:
   10350:	40d00033 	add	a4,v1,a4

0000000000010354 <$LM33>:
   10354:	128c41a3 	sd	a2,272(a6)

0000000000010358 <$LM34>:
   10358:	30000813 	li	a2,2

000000000001035c <$LM35>:
   1035c:	30d24123 	sw	a5,784(v1)

0000000000010360 <$LM36>:
   10360:	120e41a3 	sd	a3,272(a4)

0000000000010364 <$LM37>:
   10364:	054c7863 	beq	s1,a2,103a0 <$L11>

0000000000010368 <$L5>:
   10368:	20800813 	add	a0,v0,2

000000000001036c <$LM39>:
   1036c:	0f808183 	ld	ra,32(sp)

0000000000010370 <$LM40>:
   10370:	21000c93 	sll	a0,a0,0x3
   10374:	1080041b 	addw	v0,v0,1

0000000000010378 <$LM41>:
   10378:	b0000013 	li	s2,0

000000000001037c <$LM42>:
   1037c:	20c80033 	add	a0,v1,a0
   10380:	00c42123 	sw	v0,8(v1)

0000000000010384 <$LM43>:
   10384:	af80c183 	ld	s1,48(sp)
   10388:	15800013 	move	v0,s2
   1038c:	a780a183 	ld	s0,40(sp)
   10390:	b780e183 	ld	s2,56(sp)

0000000000010394 <$LM44>:
   10394:	010a01a3 	sd	a1,0(a0)

0000000000010398 <$LM45>:
   10398:	f7810013 	add	sp,sp,64
   1039c:	004000eb 	ret

00000000000103a0 <$L11>:
   103a0:	30cc5103 	lw	a2,788(v1)
   103a4:	21880333 	or	a0,a2,a0
   103a8:	30c85123 	sw	a0,788(v1)
   103ac:	ffffef67 	j	10368 <$L5>

00000000000103b0 <$L9>:
   103b0:	1d080013 	add	v1,s0,512

00000000000103b4 <$LVL13>:
   103b4:	1d07e1a3 	sd	v1,504(s0)
   103b8:	ffffbe67 	j	102b0 <$L2>

00000000000103bc <__call_exitprocs>:
   103bc:	f7bec013 	add	sp,sp,-80

00000000000103c0 <$LCFI0>:
   103c0:	100008b7 	lui	v0,0x11
   103c4:	07b701a3 	sd	s7,64(sp)

00000000000103c8 <$LM2>:
   103c8:	d8b3c183 	ld	s7,-784(v0)

00000000000103cc <$LM3>:
   103cc:	07bb21a3 	sd	s9,72(sp)
   103d0:	07b4e1a3 	sd	s6,56(sp)
   103d4:	07ae81a3 	sd	s3,32(sp)
   103d8:	07ac61a3 	sd	s2,24(sp)
   103dc:	07b2c1a3 	sd	s5,48(sp)
   103e0:	07b0a1a3 	sd	s4,40(sp)
   103e4:	07aa41a3 	sd	s1,16(sp)
   103e8:	07a821a3 	sd	s0,8(sp)
   103ec:	078201a3 	sd	ra,0(sp)

00000000000103f0 <$LM4>:
   103f0:	e9000013 	move	s9,a0
   103f4:	b1400013 	move	s2,a1

00000000000103f8 <$LBB2>:
   103f8:	d0000413 	li	s6,1

00000000000103fc <$LBE2>:
   103fc:	b83ffc13 	li	s3,-1

0000000000010400 <$L23>:
   10400:	aec7e183 	ld	s1,504(s7)

0000000000010404 <$LM8>:
   10404:	05409063 	beqz	s1,1044c <$L1>

0000000000010408 <$LM9>:
   10408:	cec7e013 	add	s5,s7,504

000000000001040c <$L16>:
   1040c:	15402103 	lw	v0,8(s1)
   10410:	10bffc1b 	addw	v0,v0,-1

0000000000010414 <$LVL4>:
   10414:	a0800013 	move	s0,v0
   10418:	00805263 	bltz	v0,10440 <$L3>

000000000001041c <$L19>:
   1041c:	0580c063 	beqz	s2,1047c <$L4>

0000000000010420 <$LM12>:
   10420:	15008013 	add	v0,s0,32

0000000000010424 <$LVL6>:
   10424:	10800c93 	sll	v0,v0,0x3
   10428:	15440033 	add	v0,s1,v0
   1042c:	10844183 	ld	v0,272(v0)
   10430:	00ac9863 	beq	v0,s2,1047c <$L4>

0000000000010434 <$L5>:
   10434:	153ffc1b 	addw	v0,s0,-1

0000000000010438 <$LVL7>:
   10438:	a0800013 	move	s0,v0

000000000001043c <$LVL8>:
   1043c:	f8afc0e3 	bne	v0,s3,1041c <$L19>

0000000000010440 <$L3>:
   10440:	10000037 	lui	v0,0x0

0000000000010444 <$LVL9>:
   10444:	10800013 	move	v0,v0
   10448:	008188e3 	bnez	v0,1050c <$L25>

000000000001044c <$L1>:
   1044c:	0f800183 	ld	ra,0(sp)
   10450:	ef812183 	ld	s9,72(sp)
   10454:	df810183 	ld	s7,64(sp)
   10458:	d780e183 	ld	s6,56(sp)
   1045c:	cf80c183 	ld	s5,48(sp)
   10460:	c780a183 	ld	s4,40(sp)
   10464:	bf808183 	ld	s3,32(sp)
   10468:	b7806183 	ld	s2,24(sp)

000000000001046c <$LVL11>:
   1046c:	af804183 	ld	s1,16(sp)

0000000000010470 <$LVL12>:
   10470:	a7802183 	ld	s0,8(sp)
   10474:	f7814013 	add	sp,sp,80
   10478:	004000eb 	ret

000000000001047c <$L4>:
   1047c:	25402103 	lw	a0,8(s1)

0000000000010480 <$LM17>:
   10480:	1d000813 	add	v1,s0,2
   10484:	18c00c93 	sll	v1,v1,0x3
   10488:	1d460033 	add	v1,s1,v1

000000000001048c <$LM18>:
   1048c:	213ffc1b 	addw	a0,a0,-1

0000000000010490 <$LM19>:
   10490:	10c00183 	ld	v0,0(v1)

0000000000010494 <$LM20>:
   10494:	0128b863 	beq	a0,s0,104f0 <$L26>

0000000000010498 <$LM21>:
   10498:	00c001a3 	sd	zero,0(v1)

000000000001049c <$L7>:
   1049c:	f8813063 	beqz	v0,10434 <$L5>

00000000000104a0 <$LM23>:
   104a0:	254c4103 	lw	a0,784(s1)

00000000000104a4 <$LM24>:
   104a4:	1ea800bb 	sllw	v1,s6,s0

00000000000104a8 <$LM25>:
   104a8:	c5402103 	lw	s4,8(s1)

00000000000104ac <$LM26>:
   104ac:	210603b3 	and	a0,a0,v1
   104b0:	01007063 	beqz	a0,104e8 <$L27>

00000000000104b4 <$LM27>:
   104b4:	254c5103 	lw	a0,788(s1)
   104b8:	190603b3 	and	v1,a0,v1
   104bc:	00c078e3 	bnez	v1,104f8 <$L10>

00000000000104c0 <$LM28>:
   104c0:	1d000c93 	sll	v1,s0,0x3
   104c4:	1d460033 	add	v1,s1,v1
   104c8:	28c44183 	ld	a1,272(v1)
   104cc:	27400013 	move	a0,s9
   104d0:	0880006b 	jalr	v0

00000000000104d4 <$L9>:
   104d4:	15402103 	lw	v0,8(s1)
   104d8:	f8b050e3 	bne	v0,s4,10400 <$L23>

00000000000104dc <$LM30>:
   104dc:	16400183 	ld	v0,0(s5)
   104e0:	f8aaa863 	beq	v0,s1,10434 <$L5>
   104e4:	ffffc767 	j	10400 <$L23>

00000000000104e8 <$L27>:
   104e8:	0880006b 	jalr	v0

00000000000104ec <$LVL19>:
   104ec:	fffffa67 	j	104d4 <$L9>

00000000000104f0 <$L26>:
   104f0:	05482123 	sw	a0,8(s1)
   104f4:	ffffea67 	j	1049c <$L7>

00000000000104f8 <$L10>:
   104f8:	1d000c93 	sll	v1,s0,0x3
   104fc:	1d460033 	add	v1,s1,v1
   10500:	20c44183 	ld	a0,272(v1)
   10504:	0880006b 	jalr	v0

0000000000010508 <$LVL22>:
   10508:	fffff367 	j	104d4 <$L9>

000000000001050c <$L25>:
   1050c:	15402103 	lw	v0,8(s1)
   10510:	008048e3 	bnez	v0,10534 <$L13>

0000000000010514 <$LM35>:
   10514:	15400183 	ld	v0,0(s1)
   10518:	00805863 	beqz	v0,10544 <$L17>

000000000001051c <$LM36>:
   1051c:	25400013 	move	a0,s1

0000000000010520 <$LM37>:
   10520:	064401a3 	sd	v0,0(s5)

0000000000010524 <$LM38>:
   10524:	0000006f 	jal	10524 <$LM38>

0000000000010528 <$LM39>:
   10528:	ae400183 	ld	s1,0(s5)

000000000001052c <$L15>:
   1052c:	f541c0e3 	bnez	s1,1040c <$L16>
   10530:	ffffc767 	j	1044c <$L1>

0000000000010534 <$L13>:
   10534:	15400183 	ld	v0,0(s1)

0000000000010538 <$L14>:
   10538:	cd400013 	move	s5,s1

000000000001053c <$LM43>:
   1053c:	a8800013 	move	s1,v0

0000000000010540 <$LVL27>:
   10540:	fffffb67 	j	1052c <$L15>

0000000000010544 <$L17>:
   10544:	10000013 	li	v0,0
   10548:	fffffc67 	j	10538 <$L14>

000000000001054c <open>:
   1054c:	f7bf8013 	add	sp,sp,-32

0000000000010550 <$LCFI0>:
   10550:	07ac61a3 	sd	s2,24(sp)
   10554:	07aa41a3 	sd	s1,16(sp)
   10558:	07a821a3 	sd	s0,8(sp)
   1055c:	a9400013 	move	s1,a1
   10560:	a1800013 	move	s0,a2
   10564:	b1000013 	move	s2,a0
   10568:	078201a3 	sd	ra,0(sp)

000000000001056c <$LM2>:
   1056c:	0001756f 	jal	10b40 <strlen>

0000000000010570 <$LVL1>:
   10570:	28800413 	add	a1,v0,1

0000000000010574 <$LBB12>:
   10574:	25800013 	move	a0,s2

0000000000010578 <$LBE12>:
   10578:	35400013 	move	a2,s1

000000000001057c <$LVL4>:
   1057c:	3d000013 	move	a3,s0

0000000000010580 <$LBB16>:
   10580:	10001413 	li	v0,5

0000000000010584 <$LM6>:
   10584:	00000077 	syscall

0000000000010588 <$LM7>:
   10588:	a8c00013 	move	s1,v1

000000000001058c <$LM8>:
   1058c:	a0800013 	move	s0,v0

0000000000010590 <$LBE16>:
   10590:	0001696f 	jal	10b34 <__errno>

0000000000010594 <$LBE18>:
   10594:	0f800183 	ld	ra,0(sp)

0000000000010598 <$LM11>:
   10598:	a500009b 	sllw	s0,s0,0x0

000000000001059c <$LBB19>:
   1059c:	00aa0123 	sw	s1,0(v0)

00000000000105a0 <$LBE19>:
   105a0:	b7806183 	ld	s2,24(sp)

00000000000105a4 <$LVL12>:
   105a4:	15000013 	move	v0,s0
   105a8:	af804183 	ld	s1,16(sp)

00000000000105ac <$LVL13>:
   105ac:	a7802183 	ld	s0,8(sp)
   105b0:	f7808013 	add	sp,sp,32
   105b4:	004000eb 	ret

00000000000105b8 <lseek>:
   105b8:	f7bf8013 	add	sp,sp,-32

00000000000105bc <$LCFI1>:
   105bc:	07aa61a3 	sd	s1,24(sp)
   105c0:	07a841a3 	sd	s0,16(sp)
   105c4:	078221a3 	sd	ra,8(sp)

00000000000105c8 <$LBB26>:
   105c8:	38000013 	li	a3,0

00000000000105cc <$LM16>:
   105cc:	10004c13 	li	v0,19

00000000000105d0 <$LM17>:
   105d0:	00000077 	syscall

00000000000105d4 <$LM18>:
   105d4:	a0800013 	move	s0,v0

00000000000105d8 <$LM19>:
   105d8:	a8c00013 	move	s1,v1

00000000000105dc <$LBE28>:
   105dc:	0001566f 	jal	10b34 <__errno>

00000000000105e0 <$LBE26>:
   105e0:	0f802183 	ld	ra,8(sp)

00000000000105e4 <$LBB30>:
   105e4:	00aa0123 	sw	s1,0(v0)

00000000000105e8 <$LBE30>:
   105e8:	15000013 	move	v0,s0
   105ec:	af806183 	ld	s1,24(sp)

00000000000105f0 <$LVL21>:
   105f0:	a7804183 	ld	s0,16(sp)

00000000000105f4 <$LVL22>:
   105f4:	f7808013 	add	sp,sp,32
   105f8:	004000eb 	ret

00000000000105fc <read>:
   105fc:	f7bf8013 	add	sp,sp,-32

0000000000010600 <$LCFI2>:
   10600:	07aa61a3 	sd	s1,24(sp)
   10604:	07a841a3 	sd	s0,16(sp)
   10608:	078221a3 	sd	ra,8(sp)

000000000001060c <$LBB36>:
   1060c:	38000013 	li	a3,0

0000000000010610 <$LM26>:
   10610:	10000c13 	li	v0,3

0000000000010614 <$LM27>:
   10614:	00000077 	syscall

0000000000010618 <$LM28>:
   10618:	a8c00013 	move	s1,v1

000000000001061c <$LM29>:
   1061c:	a0800013 	move	s0,v0

0000000000010620 <$LBE38>:
   10620:	0001456f 	jal	10b34 <__errno>

0000000000010624 <$LBE36>:
   10624:	0f802183 	ld	ra,8(sp)

0000000000010628 <$LM32>:
   10628:	a500009b 	sllw	s0,s0,0x0

000000000001062c <$LBB40>:
   1062c:	00aa0123 	sw	s1,0(v0)

0000000000010630 <$LBE40>:
   10630:	15000013 	move	v0,s0
   10634:	af806183 	ld	s1,24(sp)

0000000000010638 <$LVL30>:
   10638:	a7804183 	ld	s0,16(sp)
   1063c:	f7808013 	add	sp,sp,32
   10640:	004000eb 	ret

0000000000010644 <write>:
   10644:	f7bf8013 	add	sp,sp,-32

0000000000010648 <$LCFI3>:
   10648:	07aa61a3 	sd	s1,24(sp)
   1064c:	07a841a3 	sd	s0,16(sp)
   10650:	078221a3 	sd	ra,8(sp)

0000000000010654 <$LBB46>:
   10654:	38000013 	li	a3,0

0000000000010658 <$LM37>:
   10658:	10001013 	li	v0,4

000000000001065c <$LM38>:
   1065c:	00000077 	syscall

0000000000010660 <$LM39>:
   10660:	a8c00013 	move	s1,v1

0000000000010664 <$LM40>:
   10664:	a0800013 	move	s0,v0

0000000000010668 <$LBE48>:
   10668:	0001336f 	jal	10b34 <__errno>

000000000001066c <$LBE46>:
   1066c:	0f802183 	ld	ra,8(sp)

0000000000010670 <$LM43>:
   10670:	a500009b 	sllw	s0,s0,0x0

0000000000010674 <$LBB50>:
   10674:	00aa0123 	sw	s1,0(v0)

0000000000010678 <$LBE50>:
   10678:	15000013 	move	v0,s0
   1067c:	af806183 	ld	s1,24(sp)

0000000000010680 <$LVL38>:
   10680:	a7804183 	ld	s0,16(sp)
   10684:	f7808013 	add	sp,sp,32
   10688:	004000eb 	ret

000000000001068c <fstat>:
   1068c:	f7bf8013 	add	sp,sp,-32

0000000000010690 <$LCFI4>:
   10690:	07aa61a3 	sd	s1,24(sp)
   10694:	07a841a3 	sd	s0,16(sp)
   10698:	078221a3 	sd	ra,8(sp)

000000000001069c <$LBB56>:
   1069c:	30000013 	li	a2,0

00000000000106a0 <$LM48>:
   106a0:	38000013 	li	a3,0

00000000000106a4 <$LM49>:
   106a4:	10007013 	li	v0,28

00000000000106a8 <$LM50>:
   106a8:	00000077 	syscall

00000000000106ac <$LM51>:
   106ac:	a8c00013 	move	s1,v1

00000000000106b0 <$LM52>:
   106b0:	a0800013 	move	s0,v0

00000000000106b4 <$LBE58>:
   106b4:	0001206f 	jal	10b34 <__errno>

00000000000106b8 <$LBE56>:
   106b8:	0f802183 	ld	ra,8(sp)

00000000000106bc <$LM55>:
   106bc:	a500009b 	sllw	s0,s0,0x0

00000000000106c0 <$LBB60>:
   106c0:	00aa0123 	sw	s1,0(v0)

00000000000106c4 <$LBE60>:
   106c4:	15000013 	move	v0,s0
   106c8:	af806183 	ld	s1,24(sp)

00000000000106cc <$LVL47>:
   106cc:	a7804183 	ld	s0,16(sp)
   106d0:	f7808013 	add	sp,sp,32
   106d4:	004000eb 	ret

00000000000106d8 <stat>:
   106d8:	f7bf8013 	add	sp,sp,-32

00000000000106dc <$LCFI5>:
   106dc:	07aa61a3 	sd	s1,24(sp)
   106e0:	07a841a3 	sd	s0,16(sp)
   106e4:	a9000013 	move	s1,a0
   106e8:	a1400013 	move	s0,a1
   106ec:	078221a3 	sd	ra,8(sp)

00000000000106f0 <$LM59>:
   106f0:	0001146f 	jal	10b40 <strlen>

00000000000106f4 <$LVL49>:
   106f4:	28800413 	add	a1,v0,1

00000000000106f8 <$LBB66>:
   106f8:	25400013 	move	a0,s1

00000000000106fc <$LM61>:
   106fc:	35000013 	move	a2,s0

0000000000010700 <$LM62>:
   10700:	38000013 	li	a3,0

0000000000010704 <$LM63>:
   10704:	10004813 	li	v0,18

0000000000010708 <$LM64>:
   10708:	00000077 	syscall

000000000001070c <$LM65>:
   1070c:	a8c00013 	move	s1,v1

0000000000010710 <$LM66>:
   10710:	a0800013 	move	s0,v0

0000000000010714 <$LBE68>:
   10714:	0001086f 	jal	10b34 <__errno>

0000000000010718 <$LBE66>:
   10718:	0f802183 	ld	ra,8(sp)

000000000001071c <$LM69>:
   1071c:	a500009b 	sllw	s0,s0,0x0

0000000000010720 <$LBB70>:
   10720:	00aa0123 	sw	s1,0(v0)

0000000000010724 <$LBE70>:
   10724:	15000013 	move	v0,s0
   10728:	af806183 	ld	s1,24(sp)

000000000001072c <$LVL60>:
   1072c:	a7804183 	ld	s0,16(sp)
   10730:	f7808013 	add	sp,sp,32
   10734:	004000eb 	ret

0000000000010738 <lstat>:
   10738:	f7bf8013 	add	sp,sp,-32

000000000001073c <$LCFI6>:
   1073c:	07aa61a3 	sd	s1,24(sp)
   10740:	07a841a3 	sd	s0,16(sp)
   10744:	a9000013 	move	s1,a0
   10748:	a1400013 	move	s0,a1
   1074c:	078221a3 	sd	ra,8(sp)

0000000000010750 <$LM73>:
   10750:	0000fc6f 	jal	10b40 <strlen>

0000000000010754 <$LVL62>:
   10754:	28800413 	add	a1,v0,1

0000000000010758 <$LBB76>:
   10758:	25400013 	move	a0,s1

000000000001075c <$LM75>:
   1075c:	35000013 	move	a2,s0

0000000000010760 <$LM76>:
   10760:	38000013 	li	a3,0

0000000000010764 <$LM77>:
   10764:	10015013 	li	v0,84

0000000000010768 <$LM78>:
   10768:	00000077 	syscall

000000000001076c <$LM79>:
   1076c:	a8c00013 	move	s1,v1

0000000000010770 <$LM80>:
   10770:	a0800013 	move	s0,v0

0000000000010774 <$LBE78>:
   10774:	0000f06f 	jal	10b34 <__errno>

0000000000010778 <$LBE76>:
   10778:	0f802183 	ld	ra,8(sp)

000000000001077c <$LM83>:
   1077c:	a500009b 	sllw	s0,s0,0x0

0000000000010780 <$LBB80>:
   10780:	00aa0123 	sw	s1,0(v0)

0000000000010784 <$LBE80>:
   10784:	15000013 	move	v0,s0
   10788:	af806183 	ld	s1,24(sp)

000000000001078c <$LVL73>:
   1078c:	a7804183 	ld	s0,16(sp)
   10790:	f7808013 	add	sp,sp,32
   10794:	004000eb 	ret

0000000000010798 <close>:
   10798:	f7bf8013 	add	sp,sp,-32

000000000001079c <$LCFI7>:
   1079c:	07aa61a3 	sd	s1,24(sp)
   107a0:	07a841a3 	sd	s0,16(sp)
   107a4:	078221a3 	sd	ra,8(sp)

00000000000107a8 <$LBB86>:
   107a8:	28000013 	li	a1,0

00000000000107ac <$LM88>:
   107ac:	30000013 	li	a2,0

00000000000107b0 <$LM89>:
   107b0:	38000013 	li	a3,0

00000000000107b4 <$LM90>:
   107b4:	10001813 	li	v0,6

00000000000107b8 <$LM91>:
   107b8:	00000077 	syscall

00000000000107bc <$LM92>:
   107bc:	a8c00013 	move	s1,v1

00000000000107c0 <$LM93>:
   107c0:	a0800013 	move	s0,v0

00000000000107c4 <$LBE88>:
   107c4:	0000dc6f 	jal	10b34 <__errno>

00000000000107c8 <$LBE86>:
   107c8:	0f802183 	ld	ra,8(sp)

00000000000107cc <$LM96>:
   107cc:	a500009b 	sllw	s0,s0,0x0

00000000000107d0 <$LBB90>:
   107d0:	00aa0123 	sw	s1,0(v0)

00000000000107d4 <$LBE90>:
   107d4:	15000013 	move	v0,s0
   107d8:	af806183 	ld	s1,24(sp)

00000000000107dc <$LVL83>:
   107dc:	a7804183 	ld	s0,16(sp)
   107e0:	f7808013 	add	sp,sp,32
   107e4:	004000eb 	ret

00000000000107e8 <link>:
   107e8:	f7bf8013 	add	sp,sp,-32

00000000000107ec <$LCFI8>:
   107ec:	07a821a3 	sd	s0,8(sp)
   107f0:	a1400013 	move	s0,a1
   107f4:	07ac61a3 	sd	s2,24(sp)
   107f8:	07aa41a3 	sd	s1,16(sp)
   107fc:	b1000013 	move	s2,a0
   10800:	078201a3 	sd	ra,0(sp)

0000000000010804 <$LM100>:
   10804:	0000cf6f 	jal	10b40 <strlen>

0000000000010808 <$LVL85>:
   10808:	25000013 	move	a0,s0
   1080c:	a8800013 	move	s1,v0
   10810:	0000cc6f 	jal	10b40 <strlen>

0000000000010814 <$LVL86>:
   10814:	38800413 	add	a3,v0,1

0000000000010818 <$LBB96>:
   10818:	25800013 	move	a0,s2

000000000001081c <$LBE96>:
   1081c:	2d400413 	add	a1,s1,1

0000000000010820 <$LBB100>:
   10820:	35000013 	move	a2,s0

0000000000010824 <$LM104>:
   10824:	10002413 	li	v0,9

0000000000010828 <$LM105>:
   10828:	00000077 	syscall

000000000001082c <$LM106>:
   1082c:	a8c00013 	move	s1,v1

0000000000010830 <$LM107>:
   10830:	a0800013 	move	s0,v0

0000000000010834 <$LBE100>:
   10834:	0000c06f 	jal	10b34 <__errno>

0000000000010838 <$LBE102>:
   10838:	0f800183 	ld	ra,0(sp)

000000000001083c <$LM110>:
   1083c:	a500009b 	sllw	s0,s0,0x0

0000000000010840 <$LBB103>:
   10840:	00aa0123 	sw	s1,0(v0)

0000000000010844 <$LBE103>:
   10844:	b7806183 	ld	s2,24(sp)

0000000000010848 <$LVL97>:
   10848:	15000013 	move	v0,s0
   1084c:	af804183 	ld	s1,16(sp)

0000000000010850 <$LVL98>:
   10850:	a7802183 	ld	s0,8(sp)
   10854:	f7808013 	add	sp,sp,32
   10858:	004000eb 	ret

000000000001085c <unlink>:
   1085c:	f7bf8013 	add	sp,sp,-32

0000000000010860 <$LCFI9>:
   10860:	07a841a3 	sd	s0,16(sp)
   10864:	07aa61a3 	sd	s1,24(sp)
   10868:	a1000013 	move	s0,a0
   1086c:	078221a3 	sd	ra,8(sp)

0000000000010870 <$LM114>:
   10870:	0000b46f 	jal	10b40 <strlen>

0000000000010874 <$LVL100>:
   10874:	28800413 	add	a1,v0,1

0000000000010878 <$LBB110>:
   10878:	25000013 	move	a0,s0

000000000001087c <$LM116>:
   1087c:	30000013 	li	a2,0

0000000000010880 <$LM117>:
   10880:	38000013 	li	a3,0

0000000000010884 <$LM118>:
   10884:	10002813 	li	v0,10

0000000000010888 <$LM119>:
   10888:	00000077 	syscall

000000000001088c <$LM120>:
   1088c:	a8c00013 	move	s1,v1

0000000000010890 <$LM121>:
   10890:	a0800013 	move	s0,v0

0000000000010894 <$LBE112>:
   10894:	0000a86f 	jal	10b34 <__errno>

0000000000010898 <$LBE110>:
   10898:	0f802183 	ld	ra,8(sp)

000000000001089c <$LM124>:
   1089c:	a500009b 	sllw	s0,s0,0x0

00000000000108a0 <$LBB114>:
   108a0:	00aa0123 	sw	s1,0(v0)

00000000000108a4 <$LBE114>:
   108a4:	15000013 	move	v0,s0
   108a8:	af806183 	ld	s1,24(sp)

00000000000108ac <$LVL110>:
   108ac:	a7804183 	ld	s0,16(sp)
   108b0:	f7808013 	add	sp,sp,32
   108b4:	004000eb 	ret

00000000000108b8 <execve>:
   108b8:	f7bfc013 	add	sp,sp,-16

00000000000108bc <$LCFI10>:
   108bc:	078221a3 	sd	ra,8(sp)

00000000000108c0 <$LM128>:
   108c0:	00009d6f 	jal	10b34 <__errno>

00000000000108c4 <$LM129>:
   108c4:	0f802183 	ld	ra,8(sp)

00000000000108c8 <$LM130>:
   108c8:	18003013 	li	v1,12
   108cc:	00860123 	sw	v1,0(v0)

00000000000108d0 <$LM131>:
   108d0:	f7804013 	add	sp,sp,16
   108d4:	103ffc13 	li	v0,-1
   108d8:	004000eb 	ret

00000000000108dc <fork>:
   108dc:	f7bfc013 	add	sp,sp,-16

00000000000108e0 <$LCFI11>:
   108e0:	078221a3 	sd	ra,8(sp)

00000000000108e4 <$LM133>:
   108e4:	0000946f 	jal	10b34 <__errno>

00000000000108e8 <$LM134>:
   108e8:	0f802183 	ld	ra,8(sp)

00000000000108ec <$LM135>:
   108ec:	18002c13 	li	v1,11
   108f0:	00860123 	sw	v1,0(v0)

00000000000108f4 <$LM136>:
   108f4:	f7804013 	add	sp,sp,16
   108f8:	103ffc13 	li	v0,-1
   108fc:	004000eb 	ret

0000000000010900 <getpid>:
   10900:	10000413 	li	v0,1
   10904:	004000eb 	ret

0000000000010908 <kill>:
   10908:	f7bfc013 	add	sp,sp,-16

000000000001090c <$LCFI12>:
   1090c:	078221a3 	sd	ra,8(sp)

0000000000010910 <$LM140>:
   10910:	0000896f 	jal	10b34 <__errno>

0000000000010914 <$LM141>:
   10914:	0f802183 	ld	ra,8(sp)

0000000000010918 <$LM142>:
   10918:	18005813 	li	v1,22
   1091c:	00860123 	sw	v1,0(v0)

0000000000010920 <$LM143>:
   10920:	f7804013 	add	sp,sp,16
   10924:	103ffc13 	li	v0,-1
   10928:	004000eb 	ret

000000000001092c <wait>:
   1092c:	f7bfc013 	add	sp,sp,-16

0000000000010930 <$LCFI13>:
   10930:	078221a3 	sd	ra,8(sp)

0000000000010934 <$LM145>:
   10934:	0000806f 	jal	10b34 <__errno>

0000000000010938 <$LM146>:
   10938:	0f802183 	ld	ra,8(sp)

000000000001093c <$LM147>:
   1093c:	18002813 	li	v1,10
   10940:	00860123 	sw	v1,0(v0)

0000000000010944 <$LM148>:
   10944:	f7804013 	add	sp,sp,16
   10948:	103ffc13 	li	v0,-1
   1094c:	004000eb 	ret

0000000000010950 <isatty>:
   10950:	f7bd8013 	add	sp,sp,-160

0000000000010954 <$LCFI14>:
   10954:	2f800013 	move	a1,sp

0000000000010958 <$LM151>:
   10958:	0f8261a3 	sd	ra,152(sp)

000000000001095c <$LM152>:
   1095c:	ffff4c6f 	jal	1068c <fstat>

0000000000010960 <$LM153>:
   10960:	203ffc13 	li	a0,-1
   10964:	183ffc13 	li	v1,-1
   10968:	00882063 	beq	v0,a0,10978 <$L17>

000000000001096c <$LM154>:
   1096c:	1f803103 	lw	v1,12(sp)
   10970:	18c03693 	srl	v1,v1,0xd
   10974:	18c00793 	and	v1,v1,1

0000000000010978 <$L17>:
   10978:	0f826183 	ld	ra,152(sp)
   1097c:	10c00013 	move	v0,v1

0000000000010980 <$LVL119>:
   10980:	f7828013 	add	sp,sp,160
   10984:	004000eb 	ret

0000000000010988 <times>:
   10988:	100008b7 	lui	v0,0x11
   1098c:	18938183 	ld	v1,1248(v0)
   10990:	00c058e3 	bnez	v1,109bc <$L23>

0000000000010994 <$LBB116>:
   10994:	18938013 	add	v1,v0,1248
   10998:	488181a3 	sd	zero,1248(v0)
   1099c:	10000013 	li	v0,0

00000000000109a0 <$LBE116>:
   109a0:	010401a3 	sd	v0,0(a0)

00000000000109a4 <$LBB118>:
   109a4:	00c021a3 	sd	zero,8(v1)

00000000000109a8 <$LBE118>:
   109a8:	010041a3 	sd	zero,16(a0)
   109ac:	010061a3 	sd	zero,24(a0)
   109b0:	010021a3 	sd	zero,8(a0)

00000000000109b4 <$LM162>:
   109b4:	103ffc13 	li	v0,-1
   109b8:	004000eb 	ret

00000000000109bc <$L23>:
   109bc:	18070033 	neg	v1,v1
   109c0:	30c02093 	sll	a2,v1,0x8
   109c4:	28c00c93 	sll	a1,v1,0x3
   109c8:	298b0033 	sub	a1,a2,a1
   109cc:	31401893 	sll	a2,a1,0x6
   109d0:	10938013 	add	v0,v0,1248
   109d4:	298b0033 	sub	a1,a2,a1
   109d8:	30802183 	ld	a2,8(v0)
   109dc:	19460033 	add	v1,a1,v1
   109e0:	10c01893 	sll	v0,v1,0x6
   109e4:	108d0033 	sub	v0,v0,a2

00000000000109e8 <$LM164>:
   109e8:	010401a3 	sd	v0,0(a0)

00000000000109ec <$LM165>:
   109ec:	010041a3 	sd	zero,16(a0)
   109f0:	010061a3 	sd	zero,24(a0)
   109f4:	010021a3 	sd	zero,8(a0)

00000000000109f8 <$LM166>:
   109f8:	103ffc13 	li	v0,-1
   109fc:	004000eb 	ret

0000000000010a00 <gettimeofday>:
   10a00:	010021a3 	sd	zero,8(a0)
   10a04:	010001a3 	sd	zero,0(a0)

0000000000010a08 <$LM169>:
   10a08:	10000013 	li	v0,0
   10a0c:	004000eb 	ret

0000000000010a10 <ftime>:
   10a10:	010020a3 	sh	zero,8(a0)
   10a14:	010001a3 	sd	zero,0(a0)

0000000000010a18 <$LM172>:
   10a18:	10000013 	li	v0,0
   10a1c:	004000eb 	ret

0000000000010a20 <utime>:
   10a20:	103ffc13 	li	v0,-1
   10a24:	004000eb 	ret

0000000000010a28 <chown>:
   10a28:	103ffc13 	li	v0,-1
   10a2c:	004000eb 	ret

0000000000010a30 <chmod>:
   10a30:	103ffc13 	li	v0,-1
   10a34:	004000eb 	ret

0000000000010a38 <chdir>:
   10a38:	103ffc13 	li	v0,-1
   10a3c:	004000eb 	ret

0000000000010a40 <getcwd>:
   10a40:	10000013 	li	v0,0
   10a44:	004000eb 	ret

0000000000010a48 <sysconf>:
   10a48:	10000813 	li	v0,2
   10a4c:	01041863 	beq	a0,v0,10a58 <$L33>
   10a50:	103ffc13 	li	v0,-1
   10a54:	004000eb 	ret

0000000000010a58 <$L33>:
   10a58:	10007a37 	lui	v0,0xf4
   10a5c:	10890013 	add	v0,v0,576

0000000000010a60 <$LM185>:
   10a60:	004000eb 	ret

0000000000010a64 <sbrk>:
   10a64:	f7bf4013 	add	sp,sp,-48

0000000000010a68 <$LCFI15>:
   10a68:	07aa61a3 	sd	s1,24(sp)

0000000000010a6c <$LM187>:
   10a6c:	a80008b7 	lui	s1,0x11
   10a70:	1553c183 	ld	v0,1264(s1)

0000000000010a74 <$LM188>:
   10a74:	07aea1a3 	sd	s3,40(sp)
   10a78:	07ac81a3 	sd	s2,32(sp)
   10a7c:	07a841a3 	sd	s0,16(sp)
   10a80:	078221a3 	sd	ra,8(sp)

0000000000010a84 <$LM189>:
   10a84:	0080e063 	beqz	v0,10af4 <$L40>

0000000000010a88 <$L35>:
   10a88:	a0000013 	li	s0,0
   10a8c:	010058e3 	bnez	a0,10ab8 <$L41>

0000000000010a90 <$L36>:
   10a90:	10a80033 	add	v0,v0,s0
   10a94:	4d45c1a3 	sd	v0,1264(s1)

0000000000010a98 <$LM192>:
   10a98:	10a90033 	sub	v0,v0,s0

0000000000010a9c <$L37>:
   10a9c:	0f802183 	ld	ra,8(sp)
   10aa0:	bf80a183 	ld	s3,40(sp)
   10aa4:	b7808183 	ld	s2,32(sp)
   10aa8:	af806183 	ld	s1,24(sp)
   10aac:	a7804183 	ld	s0,16(sp)
   10ab0:	f780c013 	add	sp,sp,48
   10ab4:	004000eb 	ret

0000000000010ab8 <$L41>:
   10ab8:	a1000013 	move	s0,a0

0000000000010abc <$LBB124>:
   10abc:	28000013 	li	a1,0

0000000000010ac0 <$LBE124>:
   10ac0:	20880033 	add	a0,v0,a0

0000000000010ac4 <$LBB128>:
   10ac4:	30000013 	li	a2,0

0000000000010ac8 <$LM198>:
   10ac8:	38000013 	li	a3,0

0000000000010acc <$LM199>:
   10acc:	10004413 	li	v0,17

0000000000010ad0 <$LM200>:
   10ad0:	00000077 	syscall

0000000000010ad4 <$LM201>:
   10ad4:	b8c00013 	move	s3,v1

0000000000010ad8 <$LM202>:
   10ad8:	b0800013 	move	s2,v0

0000000000010adc <$LBE128>:
   10adc:	0000166f 	jal	10b34 <__errno>

0000000000010ae0 <$LVL144>:
   10ae0:	00ae0123 	sw	s3,0(v0)

0000000000010ae4 <$LBE130>:
   10ae4:	103ffc13 	li	v0,-1

0000000000010ae8 <$LM205>:
   10ae8:	fd8168e3 	bnez	s2,10a9c <$L37>

0000000000010aec <$LM206>:
   10aec:	1553c183 	ld	v0,1264(s1)
   10af0:	ffffe867 	j	10a90 <$L36>

0000000000010af4 <$L40>:
   10af4:	100008b7 	lui	v0,0x11
   10af8:	10957013 	add	v0,v0,1372
   10afc:	4d45c1a3 	sd	v0,1264(s1)
   10b00:	ffffe267 	j	10a88 <$L35>

0000000000010b04 <_exit>:
   10b04:	f7bf8013 	add	sp,sp,-32

0000000000010b08 <$LCFI16>:
   10b08:	078261a3 	sd	ra,24(sp)

0000000000010b0c <$LBB136>:
   10b0c:	28000013 	li	a1,0

0000000000010b10 <$LM210>:
   10b10:	30000013 	li	a2,0

0000000000010b14 <$LM211>:
   10b14:	38000013 	li	a3,0

0000000000010b18 <$LM212>:
   10b18:	10000413 	li	v0,1

0000000000010b1c <$LM213>:
   10b1c:	00000077 	syscall

0000000000010b20 <$LBE138>:
   10b20:	078601a3 	sd	v1,0(sp)
   10b24:	0000046f 	jal	10b34 <__errno>

0000000000010b28 <$LVL152>:
   10b28:	1f800183 	ld	v1,0(sp)
   10b2c:	00860123 	sw	v1,0(v0)

0000000000010b30 <$L43>:
   10b30:	00000067 	j	10b30 <$L43>

0000000000010b34 <__errno>:
   10b34:	100008b7 	lui	v0,0x11

0000000000010b38 <$LM3>:
   10b38:	10b58183 	ld	v0,-672(v0)
   10b3c:	004000eb 	ret

0000000000010b40 <strlen>:
   10b40:	11001f93 	and	v0,a0,7
   10b44:	19000013 	move	v1,a0
   10b48:	0080d0e3 	bnez	v0,10bb0 <$L5>

0000000000010b4c <$L3>:
   10b4c:	13fbfc37 	lui	v0,0x7f7f8
   10b50:	10bdfc13 	add	v0,v0,-129

0000000000010b54 <$LBE5>:
   10b54:	28c00183 	ld	a1,0(v1)

0000000000010b58 <$LBB7>:
   10b58:	30808093 	sll	a2,v0,0x20
   10b5c:	11840333 	or	v0,a2,v0

0000000000010b60 <$LBE7>:
   10b60:	308a03b3 	and	a2,v0,a1
   10b64:	31840033 	add	a2,a2,v0
   10b68:	288a0333 	or	a1,v0,a1
   10b6c:	294c0333 	or	a1,a1,a2
   10b70:	303ffc13 	li	a2,-1
   10b74:	014c48e3 	bne	a1,a2,10b98 <$L10>
   10b78:	383ffc13 	li	a3,-1

0000000000010b7c <$L8>:
   10b7c:	18c02013 	add	v1,v1,8

0000000000010b80 <$LM8>:
   10b80:	28c00183 	ld	a1,0(v1)
   10b84:	314403b3 	and	a2,a1,v0
   10b88:	31840033 	add	a2,a2,v0
   10b8c:	29440333 	or	a1,a1,v0
   10b90:	294c0333 	or	a1,a1,a2
   10b94:	f94fd063 	beq	a1,a3,10b7c <$L8>

0000000000010b98 <$L10>:
   10b98:	10c00003 	lb	v0,0(v1)
   10b9c:	18c00413 	add	v1,v1,1

0000000000010ba0 <$LVL7>:
   10ba0:	f881f0e3 	bnez	v0,10b98 <$L10>

0000000000010ba4 <$L4>:
   10ba4:	18c90033 	sub	v1,v1,a0

0000000000010ba8 <$LM11>:
   10ba8:	10fffc13 	add	v0,v1,-1
   10bac:	004000eb 	ret

0000000000010bb0 <$L5>:
   10bb0:	10c01f93 	and	v0,v1,7
   10bb4:	f8813063 	beqz	v0,10b4c <$L3>

0000000000010bb8 <$LBB9>:
   10bb8:	10c00003 	lb	v0,0(v1)

0000000000010bbc <$LM14>:
   10bbc:	18c00413 	add	v1,v1,1

0000000000010bc0 <$LM15>:
   10bc0:	f881e0e3 	bnez	v0,10bb0 <$L5>
   10bc4:	fffff867 	j	10ba4 <$L4>

0000000000010bc8 <main>:
   10bc8:	183ffc13 	li	v1,-1
   10bcc:	100008b7 	lui	v0,0x11
   10bd0:	f7bfc013 	add	sp,sp,-16
   10bd4:	200008b7 	lui	a0,0x11
   10bd8:	50876123 	sw	v1,1368(v0)
   10bdc:	078221a3 	sd	ra,8(sp)
   10be0:	19140013 	add	v1,a0,1280
   10be4:	103ffc13 	li	v0,-1
   10be8:	303fac13 	li	a2,-21

0000000000010bec <$L13>:
   10bec:	28bffc1b 	addw	a1,v0,-1
   10bf0:	00c41123 	sw	v0,4(v1)
   10bf4:	11400013 	move	v0,a1
   10bf8:	18c01013 	add	v1,v1,4
   10bfc:	f94de0e3 	bne	a1,a2,10bec <$L13>
   10c00:	21140013 	add	a0,a0,1280
   10c04:	fffd606f 	jal	10184 <BubbleSort>
   10c08:	0f802183 	ld	ra,8(sp)
   10c0c:	10000013 	li	v0,0
   10c10:	f7804013 	add	sp,sp,16
   10c14:	004000eb 	ret

Disassembly of section .init:

0000000000010c18 <_init>:
   10c18:	f7bf4013 	add	sp,sp,-48
   10c1c:	0782a1a3 	sd	ra,40(sp)
   10c20:	fffd316f 	jal	100e4 <frame_dummy>
   10c24:	fffd6e6f 	jal	101dc <__do_global_ctors_aux>
   10c28:	0f80a183 	ld	ra,40(sp)
   10c2c:	f780c013 	add	sp,sp,48
   10c30:	004000eb 	ret

Disassembly of section .fini:

0000000000010c34 <_fini>:
   10c34:	f7bf4013 	add	sp,sp,-48
   10c38:	0782a1a3 	sd	ra,40(sp)
   10c3c:	fffcfb6f 	jal	10028 <__do_global_dtors_aux>
   10c40:	0f80a183 	ld	ra,40(sp)
   10c44:	f780c013 	add	sp,sp,48
   10c48:	004000eb 	ret
